
scope.elf:     file format elf32-littlearm


Disassembly of section .text:

00008000 <__code_start__>:
    8000:	e3a00013 	mov	r0, #19
    8004:	e3800080 	orr	r0, r0, #128	; 0x80
    8008:	e129f000 	msr	CPSR_fc, r0
    800c:	e3a01000 	mov	r1, #0
    8010:	ee071f95 	mcr	15, 0, r1, cr7, cr5, {4}
    8014:	e3a0d302 	mov	sp, #134217728	; 0x8000000
    8018:	e3a0b000 	mov	fp, #0
    801c:	eb0002b8 	bl	8b04 <_cstart>
    8020:	eb0002d2 	bl	8b70 <rpi_reboot>

00008024 <PUT32>:
    8024:	e5801000 	str	r1, [r0]
    8028:	e12fff1e 	bx	lr

0000802c <GET32>:
    802c:	e5900000 	ldr	r0, [r0]
    8030:	e12fff1e 	bx	lr

00008034 <BRANCHTO>:
    8034:	e12fff10 	bx	r0

00008038 <scope>:
    8038:	e92d47f0 	push	{r4, r5, r6, r7, r8, r9, sl, lr}
    803c:	e1a05000 	mov	r5, r0
    8040:	e1a07001 	mov	r7, r1
    8044:	e1a09002 	mov	r9, r2
    8048:	e1a0a003 	mov	sl, r3
    804c:	eb000090 	bl	8294 <gpio_read>
    8050:	e1a04000 	mov	r4, r0
    8054:	e1a00005 	mov	r0, r5
    8058:	eb00008d 	bl	8294 <gpio_read>
    805c:	e1540000 	cmp	r4, r0
    8060:	0afffffb 	beq	8054 <scope+0x1c>
    8064:	ee1f8f3c 	mrc	15, 0, r8, cr15, cr12, {1}
    8068:	e3a06000 	mov	r6, #0
    806c:	e1560009 	cmp	r6, r9
    8070:	2a000013 	bcs	80c4 <scope+0x8c>
    8074:	e2644001 	rsb	r4, r4, #1
    8078:	e1a00005 	mov	r0, r5
    807c:	eb000084 	bl	8294 <gpio_read>
    8080:	e1540000 	cmp	r4, r0
    8084:	0afffffb 	beq	8078 <scope+0x40>
    8088:	ee1f3f3c 	mrc	15, 0, r3, cr15, cr12, {1}
    808c:	e0872186 	add	r2, r7, r6, lsl #3
    8090:	e0433008 	sub	r3, r3, r8
    8094:	e5823004 	str	r3, [r2, #4]
    8098:	e7870186 	str	r0, [r7, r6, lsl #3]
    809c:	ee1f3f3c 	mrc	15, 0, r3, cr15, cr12, {1}
    80a0:	e0433008 	sub	r3, r3, r8
    80a4:	e153000a 	cmp	r3, sl
    80a8:	92866001 	addls	r6, r6, #1
    80ac:	9affffee 	bls	806c <scope+0x34>
    80b0:	e3a03000 	mov	r3, #0
    80b4:	e1a02008 	mov	r2, r8
    80b8:	e1a01008 	mov	r1, r8
    80bc:	e59f0008 	ldr	r0, [pc, #8]	; 80cc <scope+0x94>
    80c0:	eb000080 	bl	82c8 <printk>
    80c4:	e1a00006 	mov	r0, r6
    80c8:	e8bd87f0 	pop	{r4, r5, r6, r7, r8, r9, sl, pc}
    80cc:	00008f08 	andeq	r8, r0, r8, lsl #30

000080d0 <notmain>:
    80d0:	e92d41f0 	push	{r4, r5, r6, r7, r8, lr}
    80d4:	e24dde11 	sub	sp, sp, #272	; 0x110
    80d8:	e3a00015 	mov	r0, #21
    80dc:	eb000061 	bl	8268 <gpio_set_input>
    80e0:	e3a03001 	mov	r3, #1
    80e4:	ee0f3f1c 	mcr	15, 0, r3, cr15, cr12, {0}
    80e8:	e3a08000 	mov	r8, #0
    80ec:	ea00001c 	b	8164 <notmain+0x94>
    80f0:	e04e2004 	sub	r2, lr, r4
    80f4:	e0866002 	add	r6, r6, r2
    80f8:	e58d600c 	str	r6, [sp, #12]
    80fc:	e58d2008 	str	r2, [sp, #8]
    8100:	e58de004 	str	lr, [sp, #4]
    8104:	e58d4000 	str	r4, [sp]
    8108:	e790200c 	ldr	r2, [r0, ip]
    810c:	e59f008c 	ldr	r0, [pc, #140]	; 81a0 <notmain+0xd0>
    8110:	eb00006c 	bl	82c8 <printk>
    8114:	e1a01005 	mov	r1, r5
    8118:	e1a03004 	mov	r3, r4
    811c:	e2472001 	sub	r2, r7, #1
    8120:	e1510002 	cmp	r1, r2
    8124:	2a00000d 	bcs	8160 <notmain+0x90>
    8128:	e1a0c181 	lsl	ip, r1, #3
    812c:	e28d0010 	add	r0, sp, #16
    8130:	e0802181 	add	r2, r0, r1, lsl #3
    8134:	e5924004 	ldr	r4, [r2, #4]
    8138:	e0443003 	sub	r3, r4, r3
    813c:	e2815001 	add	r5, r1, #1
    8140:	e0852105 	add	r2, r5, r5, lsl #2
    8144:	e0822102 	add	r2, r2, r2, lsl #2
    8148:	e0622202 	rsb	r2, r2, r2, lsl #4
    814c:	e1a0e202 	lsl	lr, r2, #4
    8150:	e1540202 	cmp	r4, r2, lsl #4
    8154:	9affffe5 	bls	80f0 <notmain+0x20>
    8158:	e044200e 	sub	r2, r4, lr
    815c:	eaffffe4 	b	80f4 <notmain+0x24>
    8160:	e2888001 	add	r8, r8, #1
    8164:	e3580003 	cmp	r8, #3
    8168:	ca00000b 	bgt	819c <notmain+0xcc>
    816c:	e59f3030 	ldr	r3, [pc, #48]	; 81a4 <notmain+0xd4>
    8170:	e3a02020 	mov	r2, #32
    8174:	e28d1010 	add	r1, sp, #16
    8178:	e3a00015 	mov	r0, #21
    817c:	ebffffad 	bl	8038 <scope>
    8180:	e1a07000 	mov	r7, r0
    8184:	e59f001c 	ldr	r0, [pc, #28]	; 81a8 <notmain+0xd8>
    8188:	eb00004e 	bl	82c8 <printk>
    818c:	e3a01000 	mov	r1, #0
    8190:	e1a03001 	mov	r3, r1
    8194:	e1a06001 	mov	r6, r1
    8198:	eaffffdf 	b	811c <notmain+0x4c>
    819c:	eb00024d 	bl	8ad8 <clean_reboot>
    81a0:	00008f34 	andeq	r8, r0, r4, lsr pc
    81a4:	0a6e49c0 	beq	1b9a8ac <__bss_end__+0x1b913ac>
    81a8:	00008f2c 	andeq	r8, r0, ip, lsr #30

000081ac <gpio_set_function>:
    81ac:	e350001f 	cmp	r0, #31
    81b0:	812fff1e 	bxhi	lr
    81b4:	e92d4070 	push	{r4, r5, r6, lr}
    81b8:	e1a05001 	mov	r5, r1
    81bc:	e3d13007 	bics	r3, r1, #7
    81c0:	18bd8070 	popne	{r4, r5, r6, pc}
    81c4:	e59f3040 	ldr	r3, [pc, #64]	; 820c <gpio_set_function+0x60>
    81c8:	e0832093 	umull	r2, r3, r3, r0
    81cc:	e1a031a3 	lsr	r3, r3, #3
    81d0:	e1a02003 	mov	r2, r3
    81d4:	e0833103 	add	r3, r3, r3, lsl #2
    81d8:	e0403083 	sub	r3, r0, r3, lsl #1
    81dc:	e0834083 	add	r4, r3, r3, lsl #1
    81e0:	e2820302 	add	r0, r2, #134217728	; 0x8000000
    81e4:	e2800702 	add	r0, r0, #524288	; 0x80000
    81e8:	e1a06100 	lsl	r6, r0, #2
    81ec:	e1a00006 	mov	r0, r6
    81f0:	ebffff8d 	bl	802c <GET32>
    81f4:	e3a01007 	mov	r1, #7
    81f8:	e1c01411 	bic	r1, r0, r1, lsl r4
    81fc:	e1811415 	orr	r1, r1, r5, lsl r4
    8200:	e1a00006 	mov	r0, r6
    8204:	ebffff86 	bl	8024 <PUT32>
    8208:	e8bd8070 	pop	{r4, r5, r6, pc}
    820c:	cccccccd 	stclgt	12, cr12, [ip], {205}	; 0xcd

00008210 <gpio_set_output>:
    8210:	e92d4010 	push	{r4, lr}
    8214:	e3a01001 	mov	r1, #1
    8218:	ebffffe3 	bl	81ac <gpio_set_function>
    821c:	e8bd8010 	pop	{r4, pc}

00008220 <gpio_set_on>:
    8220:	e350001f 	cmp	r0, #31
    8224:	812fff1e 	bxhi	lr
    8228:	e92d4010 	push	{r4, lr}
    822c:	e3a01001 	mov	r1, #1
    8230:	e1a01011 	lsl	r1, r1, r0
    8234:	e59f0004 	ldr	r0, [pc, #4]	; 8240 <gpio_set_on+0x20>
    8238:	ebffff79 	bl	8024 <PUT32>
    823c:	e8bd8010 	pop	{r4, pc}
    8240:	2020001c 	eorcs	r0, r0, ip, lsl r0

00008244 <gpio_set_off>:
    8244:	e350001f 	cmp	r0, #31
    8248:	812fff1e 	bxhi	lr
    824c:	e92d4010 	push	{r4, lr}
    8250:	e3a01001 	mov	r1, #1
    8254:	e1a01011 	lsl	r1, r1, r0
    8258:	e59f0004 	ldr	r0, [pc, #4]	; 8264 <gpio_set_off+0x20>
    825c:	ebffff70 	bl	8024 <PUT32>
    8260:	e8bd8010 	pop	{r4, pc}
    8264:	20200028 	eorcs	r0, r0, r8, lsr #32

00008268 <gpio_set_input>:
    8268:	e92d4010 	push	{r4, lr}
    826c:	e3a01000 	mov	r1, #0
    8270:	ebffffcd 	bl	81ac <gpio_set_function>
    8274:	e8bd8010 	pop	{r4, pc}

00008278 <gpio_write>:
    8278:	e92d4010 	push	{r4, lr}
    827c:	e3510000 	cmp	r1, #0
    8280:	0a000001 	beq	828c <gpio_write+0x14>
    8284:	ebffffe5 	bl	8220 <gpio_set_on>
    8288:	e8bd8010 	pop	{r4, pc}
    828c:	ebffffec 	bl	8244 <gpio_set_off>
    8290:	e8bd8010 	pop	{r4, pc}

00008294 <gpio_read>:
    8294:	e350001f 	cmp	r0, #31
    8298:	8a000007 	bhi	82bc <gpio_read+0x28>
    829c:	e92d4010 	push	{r4, lr}
    82a0:	e200401f 	and	r4, r0, #31
    82a4:	e59f3018 	ldr	r3, [pc, #24]	; 82c4 <gpio_read+0x30>
    82a8:	e08302a0 	add	r0, r3, r0, lsr #5
    82ac:	ebffff5e 	bl	802c <GET32>
    82b0:	e1a00430 	lsr	r0, r0, r4
    82b4:	e2000001 	and	r0, r0, #1
    82b8:	e8bd8010 	pop	{r4, pc}
    82bc:	e3e00000 	mvn	r0, #0
    82c0:	e12fff1e 	bx	lr
    82c4:	20200034 	eorcs	r0, r0, r4, lsr r0

000082c8 <printk>:
    82c8:	e92d000f 	push	{r0, r1, r2, r3}
    82cc:	e92d4030 	push	{r4, r5, lr}
    82d0:	e24dd00c 	sub	sp, sp, #12
    82d4:	e28d301c 	add	r3, sp, #28
    82d8:	e58d3004 	str	r3, [sp, #4]
    82dc:	e59f5034 	ldr	r5, [pc, #52]	; 8318 <printk+0x50>
    82e0:	e59d2018 	ldr	r2, [sp, #24]
    82e4:	e3a01b01 	mov	r1, #1024	; 0x400
    82e8:	e1a00005 	mov	r0, r5
    82ec:	eb0000cb 	bl	8620 <va_printk>
    82f0:	e1a04000 	mov	r4, r0
    82f4:	e59f3020 	ldr	r3, [pc, #32]	; 831c <printk+0x54>
    82f8:	e5933000 	ldr	r3, [r3]
    82fc:	e1a00005 	mov	r0, r5
    8300:	e12fff33 	blx	r3
    8304:	e1a00004 	mov	r0, r4
    8308:	e28dd00c 	add	sp, sp, #12
    830c:	e8bd4030 	pop	{r4, r5, lr}
    8310:	e28dd010 	add	sp, sp, #16
    8314:	e12fff1e 	bx	lr
    8318:	00009100 	andeq	r9, r0, r0, lsl #2
    831c:	000090f8 	strdeq	r9, [r0], -r8

00008320 <internal_putk>:
    8320:	e92d4010 	push	{r4, lr}
    8324:	e1a04000 	mov	r4, r0
    8328:	ea000003 	b	833c <internal_putk+0x1c>
    832c:	e59f301c 	ldr	r3, [pc, #28]	; 8350 <internal_putk+0x30>
    8330:	e5933000 	ldr	r3, [r3]
    8334:	e12fff33 	blx	r3
    8338:	e2844001 	add	r4, r4, #1
    833c:	e5d40000 	ldrb	r0, [r4]
    8340:	e3500000 	cmp	r0, #0
    8344:	1afffff8 	bne	832c <internal_putk+0xc>
    8348:	e3a00001 	mov	r0, #1
    834c:	e8bd8010 	pop	{r4, pc}
    8350:	000090fc 	strdeq	r9, [r0], -ip

00008354 <internal_putchar>:
    8354:	e92d4010 	push	{r4, lr}
    8358:	e1a04000 	mov	r4, r0
    835c:	eb000291 	bl	8da8 <uart_putc>
    8360:	e1a00004 	mov	r0, r4
    8364:	e8bd8010 	pop	{r4, pc}

00008368 <rpi_reset_putc>:
    8368:	e59f3008 	ldr	r3, [pc, #8]	; 8378 <rpi_reset_putc+0x10>
    836c:	e59f2008 	ldr	r2, [pc, #8]	; 837c <rpi_reset_putc+0x14>
    8370:	e5832000 	str	r2, [r3]
    8374:	e12fff1e 	bx	lr
    8378:	000090fc 	strdeq	r9, [r0], -ip
    837c:	00008354 	andeq	r8, r0, r4, asr r3

00008380 <rpi_set_putc>:
    8380:	e59f3004 	ldr	r3, [pc, #4]	; 838c <rpi_set_putc+0xc>
    8384:	e5830000 	str	r0, [r3]
    8388:	e12fff1e 	bx	lr
    838c:	000090fc 	strdeq	r9, [r0], -ip

00008390 <isdigit>:
    8390:	e2400030 	sub	r0, r0, #48	; 0x30
    8394:	e3500009 	cmp	r0, #9
    8398:	83a00000 	movhi	r0, #0
    839c:	93a00001 	movls	r0, #1
    83a0:	e12fff1e 	bx	lr

000083a4 <pad>:
    83a4:	e0401001 	sub	r1, r0, r1
    83a8:	ea000002 	b	83b8 <pad+0x14>
    83ac:	e3a03020 	mov	r3, #32
    83b0:	e4c03001 	strb	r3, [r0], #1
    83b4:	e2811001 	add	r1, r1, #1
    83b8:	e1510002 	cmp	r1, r2
    83bc:	bafffffa 	blt	83ac <pad+0x8>
    83c0:	e3a03000 	mov	r3, #0
    83c4:	e5c03000 	strb	r3, [r0]
    83c8:	e12fff1e 	bx	lr

000083cc <reverse>:
    83cc:	e042c003 	sub	ip, r2, r3
    83d0:	e28cc001 	add	ip, ip, #1
    83d4:	e15c0001 	cmp	ip, r1
    83d8:	c04cc001 	subgt	ip, ip, r1
    83dc:	c083300c 	addgt	r3, r3, ip
    83e0:	e2421001 	sub	r1, r2, #1
    83e4:	e1a02000 	mov	r2, r0
    83e8:	ea000001 	b	83f4 <reverse+0x28>
    83ec:	e451c001 	ldrb	ip, [r1], #-1
    83f0:	e4c2c001 	strb	ip, [r2], #1
    83f4:	e1510003 	cmp	r1, r3
    83f8:	2afffffb 	bcs	83ec <reverse+0x20>
    83fc:	e3a03000 	mov	r3, #0
    8400:	e5c23000 	strb	r3, [r2]
    8404:	e12fff1e 	bx	lr

00008408 <emit>:
    8408:	e92d40f0 	push	{r4, r5, r6, r7, lr}
    840c:	e24dd04c 	sub	sp, sp, #76	; 0x4c
    8410:	e1a05001 	mov	r5, r1
    8414:	e1a04002 	mov	r4, r2
    8418:	e59d2060 	ldr	r2, [sp, #96]	; 0x60
    841c:	e1520004 	cmp	r2, r4
    8420:	c2442001 	subgt	r2, r4, #1
    8424:	e1a0c003 	mov	ip, r3
    8428:	e2400002 	sub	r0, r0, #2
    842c:	e350000e 	cmp	r0, #14
    8430:	979ff100 	ldrls	pc, [pc, r0, lsl #2]
    8434:	ea000050 	b	857c <emit+0x174>
    8438:	00008554 	andeq	r8, r0, r4, asr r5
    843c:	0000857c 	andeq	r8, r0, ip, ror r5
    8440:	0000857c 	andeq	r8, r0, ip, ror r5
    8444:	0000857c 	andeq	r8, r0, ip, ror r5
    8448:	0000857c 	andeq	r8, r0, ip, ror r5
    844c:	0000857c 	andeq	r8, r0, ip, ror r5
    8450:	00008548 	andeq	r8, r0, r8, asr #10
    8454:	0000857c 	andeq	r8, r0, ip, ror r5
    8458:	00008474 	andeq	r8, r0, r4, ror r4
    845c:	0000857c 	andeq	r8, r0, ip, ror r5
    8460:	0000857c 	andeq	r8, r0, ip, ror r5
    8464:	0000857c 	andeq	r8, r0, ip, ror r5
    8468:	0000857c 	andeq	r8, r0, ip, ror r5
    846c:	0000857c 	andeq	r8, r0, ip, ror r5
    8470:	000084ec 	andeq	r8, r0, ip, ror #9
    8474:	e59d1064 	ldr	r1, [sp, #100]	; 0x64
    8478:	e2511000 	subs	r1, r1, #0
    847c:	13a01001 	movne	r1, #1
    8480:	e0111fa3 	ands	r1, r1, r3, lsr #31
    8484:	0a000016 	beq	84e4 <emit+0xdc>
    8488:	e263c000 	rsb	ip, r3, #0
    848c:	e3a06001 	mov	r6, #1
    8490:	e28d0008 	add	r0, sp, #8
    8494:	e59f3100 	ldr	r3, [pc, #256]	; 859c <emit+0x194>
    8498:	e0831c93 	umull	r1, r3, r3, ip
    849c:	e1a031a3 	lsr	r3, r3, #3
    84a0:	e1a0e003 	mov	lr, r3
    84a4:	e0833103 	add	r3, r3, r3, lsl #2
    84a8:	e04c3083 	sub	r3, ip, r3, lsl #1
    84ac:	e1a01000 	mov	r1, r0
    84b0:	e2800001 	add	r0, r0, #1
    84b4:	e59f70e4 	ldr	r7, [pc, #228]	; 85a0 <emit+0x198>
    84b8:	e7d73003 	ldrb	r3, [r7, r3]
    84bc:	e5c13000 	strb	r3, [r1]
    84c0:	e1a0300c 	mov	r3, ip
    84c4:	e1a0c00e 	mov	ip, lr
    84c8:	e3530009 	cmp	r3, #9
    84cc:	8afffff0 	bhi	8494 <emit+0x8c>
    84d0:	e3560000 	cmp	r6, #0
    84d4:	13a0302d 	movne	r3, #45	; 0x2d
    84d8:	15c03000 	strbne	r3, [r0]
    84dc:	12810002 	addne	r0, r1, #2
    84e0:	ea00000f 	b	8524 <emit+0x11c>
    84e4:	e3a06000 	mov	r6, #0
    84e8:	eaffffe8 	b	8490 <emit+0x88>
    84ec:	e28d1008 	add	r1, sp, #8
    84f0:	e20c000f 	and	r0, ip, #15
    84f4:	e59fe0a8 	ldr	lr, [pc, #168]	; 85a4 <emit+0x19c>
    84f8:	e7de0000 	ldrb	r0, [lr, r0]
    84fc:	e5c10000 	strb	r0, [r1]
    8500:	e2811001 	add	r1, r1, #1
    8504:	e35c000f 	cmp	ip, #15
    8508:	e1a0c22c 	lsr	ip, ip, #4
    850c:	8afffff7 	bhi	84f0 <emit+0xe8>
    8510:	e1a00001 	mov	r0, r1
    8514:	e3a03078 	mov	r3, #120	; 0x78
    8518:	e4c03002 	strb	r3, [r0], #2
    851c:	e3a03030 	mov	r3, #48	; 0x30
    8520:	e5c13001 	strb	r3, [r1, #1]
    8524:	e28d1008 	add	r1, sp, #8
    8528:	ebffff9d 	bl	83a4 <pad>
    852c:	e1a02000 	mov	r2, r0
    8530:	e28d3008 	add	r3, sp, #8
    8534:	e1a01004 	mov	r1, r4
    8538:	e1a00005 	mov	r0, r5
    853c:	ebffffa2 	bl	83cc <reverse>
    8540:	e28dd04c 	add	sp, sp, #76	; 0x4c
    8544:	e8bd80f0 	pop	{r4, r5, r6, r7, pc}
    8548:	e5cd3008 	strb	r3, [sp, #8]
    854c:	e28d0009 	add	r0, sp, #9
    8550:	eafffff3 	b	8524 <emit+0x11c>
    8554:	e28d0008 	add	r0, sp, #8
    8558:	e20c1001 	and	r1, ip, #1
    855c:	e59fe044 	ldr	lr, [pc, #68]	; 85a8 <emit+0x1a0>
    8560:	e7de1001 	ldrb	r1, [lr, r1]
    8564:	e5c01000 	strb	r1, [r0]
    8568:	e2800001 	add	r0, r0, #1
    856c:	e35c0001 	cmp	ip, #1
    8570:	e1a0c0ac 	lsr	ip, ip, #1
    8574:	8afffff7 	bhi	8558 <emit+0x150>
    8578:	eaffffe9 	b	8524 <emit+0x11c>
    857c:	e59f3028 	ldr	r3, [pc, #40]	; 85ac <emit+0x1a4>
    8580:	e58d3000 	str	r3, [sp]
    8584:	e3a03079 	mov	r3, #121	; 0x79
    8588:	e59f2020 	ldr	r2, [pc, #32]	; 85b0 <emit+0x1a8>
    858c:	e59f1020 	ldr	r1, [pc, #32]	; 85b4 <emit+0x1ac>
    8590:	e59f0020 	ldr	r0, [pc, #32]	; 85b8 <emit+0x1b0>
    8594:	ebffff4b 	bl	82c8 <printk>
    8598:	eb00014e 	bl	8ad8 <clean_reboot>
    859c:	cccccccd 	stclgt	12, cr12, [ip], {205}	; 0xcd
    85a0:	00008f9c 	muleq	r0, ip, pc	; <UNPREDICTABLE>
    85a4:	00008fa8 	andeq	r8, r0, r8, lsr #31
    85a8:	00008fbc 			; <UNDEFINED> instruction: 0x00008fbc
    85ac:	00008f98 	muleq	r0, r8, pc	; <UNPREDICTABLE>
    85b0:	000090c8 	andeq	r9, r0, r8, asr #1
    85b4:	00008f70 	andeq	r8, r0, r0, ror pc
    85b8:	00008f84 	andeq	r8, r0, r4, lsl #31

000085bc <rpi_set_output>:
    85bc:	e3500000 	cmp	r0, #0
    85c0:	0a000006 	beq	85e0 <rpi_set_output+0x24>
    85c4:	e59f303c 	ldr	r3, [pc, #60]	; 8608 <rpi_set_output+0x4c>
    85c8:	e5830000 	str	r0, [r3]
    85cc:	e3510000 	cmp	r1, #0
    85d0:	012fff1e 	bxeq	lr
    85d4:	e59f3030 	ldr	r3, [pc, #48]	; 860c <rpi_set_output+0x50>
    85d8:	e5831000 	str	r1, [r3]
    85dc:	e12fff1e 	bx	lr
    85e0:	e52de004 	push	{lr}		; (str lr, [sp, #-4]!)
    85e4:	e24dd00c 	sub	sp, sp, #12
    85e8:	e59f3020 	ldr	r3, [pc, #32]	; 8610 <rpi_set_output+0x54>
    85ec:	e58d3000 	str	r3, [sp]
    85f0:	e3a03020 	mov	r3, #32
    85f4:	e59f2018 	ldr	r2, [pc, #24]	; 8614 <rpi_set_output+0x58>
    85f8:	e59f1018 	ldr	r1, [pc, #24]	; 8618 <rpi_set_output+0x5c>
    85fc:	e59f0018 	ldr	r0, [pc, #24]	; 861c <rpi_set_output+0x60>
    8600:	ebffff30 	bl	82c8 <printk>
    8604:	eb000133 	bl	8ad8 <clean_reboot>
    8608:	000090fc 	strdeq	r9, [r0], -ip
    860c:	000090f8 	strdeq	r9, [r0], -r8
    8610:	00008fc0 	andeq	r8, r0, r0, asr #31
    8614:	000090d0 	ldrdeq	r9, [r0], -r0
    8618:	00008f70 	andeq	r8, r0, r0, ror pc
    861c:	00008f84 	andeq	r8, r0, r4, lsl #31

00008620 <va_printk>:
    8620:	e92d4ff0 	push	{r4, r5, r6, r7, r8, r9, sl, fp, lr}
    8624:	e24ddf45 	sub	sp, sp, #276	; 0x114
    8628:	e1a09000 	mov	r9, r0
    862c:	e58d2008 	str	r2, [sp, #8]
    8630:	e58d300c 	str	r3, [sp, #12]
    8634:	e2411001 	sub	r1, r1, #1
    8638:	e0808001 	add	r8, r0, r1
    863c:	e3a03000 	mov	r3, #0
    8640:	e5c03000 	strb	r3, [r0]
    8644:	e1a04000 	mov	r4, r0
    8648:	e1a06002 	mov	r6, r2
    864c:	ea000004 	b	8664 <va_printk+0x44>
    8650:	e5d62001 	ldrb	r2, [r6, #1]
    8654:	e3520025 	cmp	r2, #37	; 0x25
    8658:	1a00000b 	bne	868c <va_printk+0x6c>
    865c:	e4c43001 	strb	r3, [r4], #1
    8660:	e2866002 	add	r6, r6, #2
    8664:	e5d63000 	ldrb	r3, [r6]
    8668:	e3530000 	cmp	r3, #0
    866c:	0a000105 	beq	8a88 <va_printk+0x468>
    8670:	e1540008 	cmp	r4, r8
    8674:	2a000103 	bcs	8a88 <va_printk+0x468>
    8678:	e3530025 	cmp	r3, #37	; 0x25
    867c:	0afffff3 	beq	8650 <va_printk+0x30>
    8680:	e2866001 	add	r6, r6, #1
    8684:	e4c43001 	strb	r3, [r4], #1
    8688:	eafffff5 	b	8664 <va_printk+0x44>
    868c:	e2866001 	add	r6, r6, #1
    8690:	e3a05000 	mov	r5, #0
    8694:	ea000003 	b	86a8 <va_printk+0x88>
    8698:	e0855105 	add	r5, r5, r5, lsl #2
    869c:	e0875085 	add	r5, r7, r5, lsl #1
    86a0:	e2455030 	sub	r5, r5, #48	; 0x30
    86a4:	e2866001 	add	r6, r6, #1
    86a8:	e5d67000 	ldrb	r7, [r6]
    86ac:	e1a00007 	mov	r0, r7
    86b0:	ebffff36 	bl	8390 <isdigit>
    86b4:	e3500000 	cmp	r0, #0
    86b8:	1afffff6 	bne	8698 <va_printk+0x78>
    86bc:	e355001f 	cmp	r5, #31
    86c0:	8a00001a 	bhi	8730 <va_printk+0x110>
    86c4:	e2473062 	sub	r3, r7, #98	; 0x62
    86c8:	e3530016 	cmp	r3, #22
    86cc:	979ff103 	ldrls	pc, [pc, r3, lsl #2]
    86d0:	ea0000d4 	b	8a28 <va_printk+0x408>
    86d4:	000089ac 	andeq	r8, r0, ip, lsr #19
    86d8:	000089f4 	strdeq	r8, [r0], -r4
    86dc:	0000890c 	andeq	r8, r0, ip, lsl #18
    86e0:	00008a28 	andeq	r8, r0, r8, lsr #20
    86e4:	000088f4 	strdeq	r8, [r0], -r4
    86e8:	00008a28 	andeq	r8, r0, r8, lsr #20
    86ec:	00008a28 	andeq	r8, r0, r8, lsr #20
    86f0:	00008a28 	andeq	r8, r0, r8, lsr #20
    86f4:	00008a28 	andeq	r8, r0, r8, lsr #20
    86f8:	00008a28 	andeq	r8, r0, r8, lsr #20
    86fc:	00008750 	andeq	r8, r0, r0, asr r7
    8700:	00008a28 	andeq	r8, r0, r8, lsr #20
    8704:	00008a28 	andeq	r8, r0, r8, lsr #20
    8708:	00008a28 	andeq	r8, r0, r8, lsr #20
    870c:	00008978 	andeq	r8, r0, r8, ror r9
    8710:	00008a28 	andeq	r8, r0, r8, lsr #20
    8714:	00008a28 	andeq	r8, r0, r8, lsr #20
    8718:	000089e0 	andeq	r8, r0, r0, ror #19
    871c:	00008a28 	andeq	r8, r0, r8, lsr #20
    8720:	00008944 	andeq	r8, r0, r4, asr #18
    8724:	00008a28 	andeq	r8, r0, r8, lsr #20
    8728:	00008a28 	andeq	r8, r0, r8, lsr #20
    872c:	00008978 	andeq	r8, r0, r8, ror r9
    8730:	e59f3364 	ldr	r3, [pc, #868]	; 8a9c <va_printk+0x47c>
    8734:	e58d3000 	str	r3, [sp]
    8738:	e3a03098 	mov	r3, #152	; 0x98
    873c:	e59f235c 	ldr	r2, [pc, #860]	; 8aa0 <va_printk+0x480>
    8740:	e59f135c 	ldr	r1, [pc, #860]	; 8aa4 <va_printk+0x484>
    8744:	e59f035c 	ldr	r0, [pc, #860]	; 8aa8 <va_printk+0x488>
    8748:	ebfffede 	bl	82c8 <printk>
    874c:	eb0000e1 	bl	8ad8 <clean_reboot>
    8750:	e3a02003 	mov	r2, #3
    8754:	e59f1350 	ldr	r1, [pc, #848]	; 8aac <va_printk+0x48c>
    8758:	e1a00006 	mov	r0, r6
    875c:	eb0001d8 	bl	8ec4 <strncmp>
    8760:	e3500000 	cmp	r0, #0
    8764:	0a000005 	beq	8780 <va_printk+0x160>
    8768:	e3a02003 	mov	r2, #3
    876c:	e59f133c 	ldr	r1, [pc, #828]	; 8ab0 <va_printk+0x490>
    8770:	e1a00006 	mov	r0, r6
    8774:	eb0001d2 	bl	8ec4 <strncmp>
    8778:	e3500000 	cmp	r0, #0
    877c:	1a000033 	bne	8850 <va_printk+0x230>
    8780:	e286b002 	add	fp, r6, #2
    8784:	e59d300c 	ldr	r3, [sp, #12]
    8788:	e2833007 	add	r3, r3, #7
    878c:	e3c33007 	bic	r3, r3, #7
    8790:	e2832008 	add	r2, r3, #8
    8794:	e58d200c 	str	r2, [sp, #12]
    8798:	e593a000 	ldr	sl, [r3]
    879c:	e5937004 	ldr	r7, [r3, #4]
    87a0:	e1a01007 	mov	r1, r7
    87a4:	e59f0308 	ldr	r0, [pc, #776]	; 8ab4 <va_printk+0x494>
    87a8:	ebfffec6 	bl	82c8 <printk>
    87ac:	e1a0100a 	mov	r1, sl
    87b0:	e59f0300 	ldr	r0, [pc, #768]	; 8ab8 <va_printk+0x498>
    87b4:	ebfffec3 	bl	82c8 <printk>
    87b8:	e3a02003 	mov	r2, #3
    87bc:	e59f12e8 	ldr	r1, [pc, #744]	; 8aac <va_printk+0x48c>
    87c0:	e1a00006 	mov	r0, r6
    87c4:	eb0001be 	bl	8ec4 <strncmp>
    87c8:	e3500000 	cmp	r0, #0
    87cc:	0a000027 	beq	8870 <va_printk+0x250>
    87d0:	e3a02003 	mov	r2, #3
    87d4:	e59f12d4 	ldr	r1, [pc, #724]	; 8ab0 <va_printk+0x490>
    87d8:	e1a00006 	mov	r0, r6
    87dc:	eb0001b8 	bl	8ec4 <strncmp>
    87e0:	e3500000 	cmp	r0, #0
    87e4:	1a00003b 	bne	88d8 <va_printk+0x2b8>
    87e8:	e3a06000 	mov	r6, #0
    87ec:	e58d6004 	str	r6, [sp, #4]
    87f0:	e58d5000 	str	r5, [sp]
    87f4:	e1a03007 	mov	r3, r7
    87f8:	e3a02080 	mov	r2, #128	; 0x80
    87fc:	e28d1010 	add	r1, sp, #16
    8800:	e3a0000a 	mov	r0, #10
    8804:	ebfffeff 	bl	8408 <emit>
    8808:	e1a07000 	mov	r7, r0
    880c:	e58d6004 	str	r6, [sp, #4]
    8810:	e58d5000 	str	r5, [sp]
    8814:	e1a0300a 	mov	r3, sl
    8818:	e3a02080 	mov	r2, #128	; 0x80
    881c:	e28d1090 	add	r1, sp, #144	; 0x90
    8820:	e3a0000a 	mov	r0, #10
    8824:	ebfffef7 	bl	8408 <emit>
    8828:	e59f128c 	ldr	r1, [pc, #652]	; 8abc <va_printk+0x49c>
    882c:	e28d0010 	add	r0, sp, #16
    8830:	eb000197 	bl	8e94 <strcmp>
    8834:	e1500006 	cmp	r0, r6
    8838:	1a000021 	bne	88c4 <va_printk+0x2a4>
    883c:	e28d1090 	add	r1, sp, #144	; 0x90
    8840:	e28d0010 	add	r0, sp, #16
    8844:	eb00017d 	bl	8e40 <strcpy>
    8848:	e1a0600b 	mov	r6, fp
    884c:	ea00003a 	b	893c <va_printk+0x31c>
    8850:	e59f3268 	ldr	r3, [pc, #616]	; 8ac0 <va_printk+0x4a0>
    8854:	e58d3000 	str	r3, [sp]
    8858:	e3a0309f 	mov	r3, #159	; 0x9f
    885c:	e59f223c 	ldr	r2, [pc, #572]	; 8aa0 <va_printk+0x480>
    8860:	e59f123c 	ldr	r1, [pc, #572]	; 8aa4 <va_printk+0x484>
    8864:	e59f023c 	ldr	r0, [pc, #572]	; 8aa8 <va_printk+0x488>
    8868:	ebfffe96 	bl	82c8 <printk>
    886c:	eb000099 	bl	8ad8 <clean_reboot>
    8870:	e3a06000 	mov	r6, #0
    8874:	e58d6004 	str	r6, [sp, #4]
    8878:	e58d5000 	str	r5, [sp]
    887c:	e1a03007 	mov	r3, r7
    8880:	e3a02080 	mov	r2, #128	; 0x80
    8884:	e28d1010 	add	r1, sp, #16
    8888:	e3a00010 	mov	r0, #16
    888c:	ebfffedd 	bl	8408 <emit>
    8890:	e1a07000 	mov	r7, r0
    8894:	e58d6004 	str	r6, [sp, #4]
    8898:	e58d5000 	str	r5, [sp]
    889c:	e1a0300a 	mov	r3, sl
    88a0:	e3a02080 	mov	r2, #128	; 0x80
    88a4:	e28d1090 	add	r1, sp, #144	; 0x90
    88a8:	e3a00010 	mov	r0, #16
    88ac:	ebfffed5 	bl	8408 <emit>
    88b0:	e28d1092 	add	r1, sp, #146	; 0x92
    88b4:	e28d0010 	add	r0, sp, #16
    88b8:	eb000168 	bl	8e60 <strcat>
    88bc:	e1a0600b 	mov	r6, fp
    88c0:	ea00001d 	b	893c <va_printk+0x31c>
    88c4:	e28d1090 	add	r1, sp, #144	; 0x90
    88c8:	e28d0010 	add	r0, sp, #16
    88cc:	eb000163 	bl	8e60 <strcat>
    88d0:	e1a0600b 	mov	r6, fp
    88d4:	ea000018 	b	893c <va_printk+0x31c>
    88d8:	e58d6000 	str	r6, [sp]
    88dc:	e3a030b6 	mov	r3, #182	; 0xb6
    88e0:	e59f21b8 	ldr	r2, [pc, #440]	; 8aa0 <va_printk+0x480>
    88e4:	e59f11b8 	ldr	r1, [pc, #440]	; 8aa4 <va_printk+0x484>
    88e8:	e59f01d4 	ldr	r0, [pc, #468]	; 8ac4 <va_printk+0x4a4>
    88ec:	ebfffe75 	bl	82c8 <printk>
    88f0:	eb000078 	bl	8ad8 <clean_reboot>
    88f4:	e3a030be 	mov	r3, #190	; 0xbe
    88f8:	e59f21a0 	ldr	r2, [pc, #416]	; 8aa0 <va_printk+0x480>
    88fc:	e59f11a0 	ldr	r1, [pc, #416]	; 8aa4 <va_printk+0x484>
    8900:	e59f01c0 	ldr	r0, [pc, #448]	; 8ac8 <va_printk+0x4a8>
    8904:	ebfffe6f 	bl	82c8 <printk>
    8908:	eb000072 	bl	8ad8 <clean_reboot>
    890c:	e59d300c 	ldr	r3, [sp, #12]
    8910:	e2832004 	add	r2, r3, #4
    8914:	e58d200c 	str	r2, [sp, #12]
    8918:	e5933000 	ldr	r3, [r3]
    891c:	e3a02001 	mov	r2, #1
    8920:	e58d2004 	str	r2, [sp, #4]
    8924:	e58d5000 	str	r5, [sp]
    8928:	e3a02080 	mov	r2, #128	; 0x80
    892c:	e28d1010 	add	r1, sp, #16
    8930:	e3a0000a 	mov	r0, #10
    8934:	ebfffeb3 	bl	8408 <emit>
    8938:	e1a07000 	mov	r7, r0
    893c:	e2866001 	add	r6, r6, #1
    8940:	ea00004a 	b	8a70 <va_printk+0x450>
    8944:	e59d300c 	ldr	r3, [sp, #12]
    8948:	e2832004 	add	r2, r3, #4
    894c:	e58d200c 	str	r2, [sp, #12]
    8950:	e5933000 	ldr	r3, [r3]
    8954:	e3a02000 	mov	r2, #0
    8958:	e58d2004 	str	r2, [sp, #4]
    895c:	e58d5000 	str	r5, [sp]
    8960:	e3a02080 	mov	r2, #128	; 0x80
    8964:	e28d1010 	add	r1, sp, #16
    8968:	e3a0000a 	mov	r0, #10
    896c:	ebfffea5 	bl	8408 <emit>
    8970:	e1a07000 	mov	r7, r0
    8974:	eafffff0 	b	893c <va_printk+0x31c>
    8978:	e59d300c 	ldr	r3, [sp, #12]
    897c:	e2832004 	add	r2, r3, #4
    8980:	e58d200c 	str	r2, [sp, #12]
    8984:	e5933000 	ldr	r3, [r3]
    8988:	e3a02000 	mov	r2, #0
    898c:	e58d2004 	str	r2, [sp, #4]
    8990:	e58d5000 	str	r5, [sp]
    8994:	e3a02080 	mov	r2, #128	; 0x80
    8998:	e28d1010 	add	r1, sp, #16
    899c:	e3a00010 	mov	r0, #16
    89a0:	ebfffe98 	bl	8408 <emit>
    89a4:	e1a07000 	mov	r7, r0
    89a8:	eaffffe3 	b	893c <va_printk+0x31c>
    89ac:	e59d300c 	ldr	r3, [sp, #12]
    89b0:	e2832004 	add	r2, r3, #4
    89b4:	e58d200c 	str	r2, [sp, #12]
    89b8:	e5933000 	ldr	r3, [r3]
    89bc:	e3a02000 	mov	r2, #0
    89c0:	e58d2004 	str	r2, [sp, #4]
    89c4:	e58d5000 	str	r5, [sp]
    89c8:	e3a02080 	mov	r2, #128	; 0x80
    89cc:	e28d1010 	add	r1, sp, #16
    89d0:	e3a00002 	mov	r0, #2
    89d4:	ebfffe8b 	bl	8408 <emit>
    89d8:	e1a07000 	mov	r7, r0
    89dc:	eaffffd6 	b	893c <va_printk+0x31c>
    89e0:	e59d300c 	ldr	r3, [sp, #12]
    89e4:	e2832004 	add	r2, r3, #4
    89e8:	e58d200c 	str	r2, [sp, #12]
    89ec:	e5937000 	ldr	r7, [r3]
    89f0:	eaffffd1 	b	893c <va_printk+0x31c>
    89f4:	e59d300c 	ldr	r3, [sp, #12]
    89f8:	e2832004 	add	r2, r3, #4
    89fc:	e58d200c 	str	r2, [sp, #12]
    8a00:	e5933000 	ldr	r3, [r3]
    8a04:	e3a02000 	mov	r2, #0
    8a08:	e58d2004 	str	r2, [sp, #4]
    8a0c:	e58d5000 	str	r5, [sp]
    8a10:	e3a02080 	mov	r2, #128	; 0x80
    8a14:	e28d1010 	add	r1, sp, #16
    8a18:	e3a00008 	mov	r0, #8
    8a1c:	ebfffe79 	bl	8408 <emit>
    8a20:	e1a07000 	mov	r7, r0
    8a24:	eaffffc4 	b	893c <va_printk+0x31c>
    8a28:	e3a03000 	mov	r3, #0
    8a2c:	e5c63001 	strb	r3, [r6, #1]
    8a30:	e1a02007 	mov	r2, r7
    8a34:	e1a01007 	mov	r1, r7
    8a38:	e59f008c 	ldr	r0, [pc, #140]	; 8acc <va_printk+0x4ac>
    8a3c:	ebfffe21 	bl	82c8 <printk>
    8a40:	e59f3088 	ldr	r3, [pc, #136]	; 8ad0 <va_printk+0x4b0>
    8a44:	e5933000 	ldr	r3, [r3]
    8a48:	e59d0008 	ldr	r0, [sp, #8]
    8a4c:	e12fff33 	blx	r3
    8a50:	e3a030e2 	mov	r3, #226	; 0xe2
    8a54:	e59f2044 	ldr	r2, [pc, #68]	; 8aa0 <va_printk+0x480>
    8a58:	e59f1044 	ldr	r1, [pc, #68]	; 8aa4 <va_printk+0x484>
    8a5c:	e59f0070 	ldr	r0, [pc, #112]	; 8ad4 <va_printk+0x4b4>
    8a60:	ebfffe18 	bl	82c8 <printk>
    8a64:	eb00001b 	bl	8ad8 <clean_reboot>
    8a68:	e2877001 	add	r7, r7, #1
    8a6c:	e4c43001 	strb	r3, [r4], #1
    8a70:	e1540008 	cmp	r4, r8
    8a74:	2afffefa 	bcs	8664 <va_printk+0x44>
    8a78:	e5d73000 	ldrb	r3, [r7]
    8a7c:	e3530000 	cmp	r3, #0
    8a80:	1afffff8 	bne	8a68 <va_printk+0x448>
    8a84:	eafffef6 	b	8664 <va_printk+0x44>
    8a88:	e3a03000 	mov	r3, #0
    8a8c:	e4c43001 	strb	r3, [r4], #1
    8a90:	e0440009 	sub	r0, r4, r9
    8a94:	e28ddf45 	add	sp, sp, #276	; 0x114
    8a98:	e8bd8ff0 	pop	{r4, r5, r6, r7, r8, r9, sl, fp, pc}
    8a9c:	00008fc8 	andeq	r8, r0, r8, asr #31
    8aa0:	000090e0 	andeq	r9, r0, r0, ror #1
    8aa4:	00008f70 	andeq	r8, r0, r0, ror pc
    8aa8:	00008f84 	andeq	r8, r0, r4, lsl #31
    8aac:	00008fd4 	ldrdeq	r8, [r0], -r4
    8ab0:	00008fd8 	ldrdeq	r8, [r0], -r8	; <UNPREDICTABLE>
    8ab4:	00008fdc 	ldrdeq	r8, [r0], -ip
    8ab8:	00008fe4 	andeq	r8, r0, r4, ror #31
    8abc:	00008f98 	muleq	r0, r8, pc	; <UNPREDICTABLE>
    8ac0:	00008fec 	andeq	r8, r0, ip, ror #31
    8ac4:	00009028 	andeq	r9, r0, r8, lsr #32
    8ac8:	00009050 	andeq	r9, r0, r0, asr r0
    8acc:	00009078 	andeq	r9, r0, r8, ror r0
    8ad0:	000090f8 	strdeq	r9, [r0], -r8
    8ad4:	000090a8 	andeq	r9, r0, r8, lsr #1

00008ad8 <clean_reboot>:
    8ad8:	e92d4010 	push	{r4, lr}
    8adc:	e59f3018 	ldr	r3, [pc, #24]	; 8afc <clean_reboot+0x24>
    8ae0:	e5933000 	ldr	r3, [r3]
    8ae4:	e59f0014 	ldr	r0, [pc, #20]	; 8b00 <clean_reboot+0x28>
    8ae8:	e12fff33 	blx	r3
    8aec:	eb0000c5 	bl	8e08 <uart_flush_tx>
    8af0:	e3a0000a 	mov	r0, #10
    8af4:	eb000049 	bl	8c20 <delay_ms>
    8af8:	eb00001c 	bl	8b70 <rpi_reboot>
    8afc:	000090f8 	strdeq	r9, [r0], -r8
    8b00:	000090ec 	andeq	r9, r0, ip, ror #1

00008b04 <_cstart>:
    8b04:	e92d4010 	push	{r4, lr}
    8b08:	eb00002e 	bl	8bc8 <custom_loader>
    8b0c:	e59f3028 	ldr	r3, [pc, #40]	; 8b3c <_cstart+0x38>
    8b10:	ea000001 	b	8b1c <_cstart+0x18>
    8b14:	e3a02000 	mov	r2, #0
    8b18:	e4832004 	str	r2, [r3], #4
    8b1c:	e59f201c 	ldr	r2, [pc, #28]	; 8b40 <_cstart+0x3c>
    8b20:	e1530002 	cmp	r3, r2
    8b24:	3afffffa 	bcc	8b14 <_cstart+0x10>
    8b28:	eb000058 	bl	8c90 <uart_init>
    8b2c:	e3a03001 	mov	r3, #1
    8b30:	ee0f3f1c 	mcr	15, 0, r3, cr15, cr12, {0}
    8b34:	ebfffd65 	bl	80d0 <notmain>
    8b38:	ebffffe6 	bl	8ad8 <clean_reboot>
    8b3c:	00009100 	andeq	r9, r0, r0, lsl #2
    8b40:	00009500 	andeq	r9, r0, r0, lsl #10

00008b44 <at_user_level>:
    8b44:	e10f0000 	mrs	r0, CPSR
    8b48:	e200001f 	and	r0, r0, #31
    8b4c:	e3500010 	cmp	r0, #16
    8b50:	13a00000 	movne	r0, #0
    8b54:	03a00001 	moveq	r0, #1
    8b58:	e12fff1e 	bx	lr

00008b5c <set_user_level>:
    8b5c:	e10f3000 	mrs	r3, CPSR
    8b60:	e3c3301f 	bic	r3, r3, #31
    8b64:	e3833010 	orr	r3, r3, #16
    8b68:	e129f003 	msr	CPSR_fc, r3
    8b6c:	e12fff1e 	bx	lr

00008b70 <rpi_reboot>:
    8b70:	e92d4010 	push	{r4, lr}
    8b74:	ebfffff2 	bl	8b44 <at_user_level>
    8b78:	e3500000 	cmp	r0, #0
    8b7c:	1a00000a 	bne	8bac <rpi_reboot+0x3c>
    8b80:	eb00000f 	bl	8bc4 <reboot_callout>
    8b84:	eb00009f 	bl	8e08 <uart_flush_tx>
    8b88:	e3a0000a 	mov	r0, #10
    8b8c:	eb000023 	bl	8c20 <delay_ms>
    8b90:	e59f101c 	ldr	r1, [pc, #28]	; 8bb4 <rpi_reboot+0x44>
    8b94:	e59f001c 	ldr	r0, [pc, #28]	; 8bb8 <rpi_reboot+0x48>
    8b98:	ebfffd21 	bl	8024 <PUT32>
    8b9c:	e59f1018 	ldr	r1, [pc, #24]	; 8bbc <rpi_reboot+0x4c>
    8ba0:	e59f0018 	ldr	r0, [pc, #24]	; 8bc0 <rpi_reboot+0x50>
    8ba4:	ebfffd1e 	bl	8024 <PUT32>
    8ba8:	eafffffe 	b	8ba8 <rpi_reboot+0x38>
    8bac:	ebffffea 	bl	8b5c <set_user_level>
    8bb0:	eafffff2 	b	8b80 <rpi_reboot+0x10>
    8bb4:	5a000001 	bpl	8bc0 <rpi_reboot+0x50>
    8bb8:	20100024 	andscs	r0, r0, r4, lsr #32
    8bbc:	5a000020 	bpl	8c44 <delay_sec+0xc>
    8bc0:	2010001c 	andscs	r0, r0, ip, lsl r0

00008bc4 <reboot_callout>:
    8bc4:	e12fff1e 	bx	lr

00008bc8 <custom_loader>:
    8bc8:	e12fff1e 	bx	lr

00008bcc <timer_get_usec_raw>:
    8bcc:	e92d4010 	push	{r4, lr}
    8bd0:	e59f0004 	ldr	r0, [pc, #4]	; 8bdc <timer_get_usec_raw+0x10>
    8bd4:	ebfffd14 	bl	802c <GET32>
    8bd8:	e8bd8010 	pop	{r4, pc}
    8bdc:	20003004 	andcs	r3, r0, r4

00008be0 <timer_get_usec>:
    8be0:	e92d4010 	push	{r4, lr}
    8be4:	eb0000c1 	bl	8ef0 <dev_barrier>
    8be8:	ebfffff7 	bl	8bcc <timer_get_usec_raw>
    8bec:	e1a04000 	mov	r4, r0
    8bf0:	eb0000be 	bl	8ef0 <dev_barrier>
    8bf4:	e1a00004 	mov	r0, r4
    8bf8:	e8bd8010 	pop	{r4, pc}

00008bfc <delay_us>:
    8bfc:	e92d4070 	push	{r4, r5, r6, lr}
    8c00:	e1a05000 	mov	r5, r0
    8c04:	ebfffff5 	bl	8be0 <timer_get_usec>
    8c08:	e1a04000 	mov	r4, r0
    8c0c:	ebfffff3 	bl	8be0 <timer_get_usec>
    8c10:	e0400004 	sub	r0, r0, r4
    8c14:	e1500005 	cmp	r0, r5
    8c18:	3afffffb 	bcc	8c0c <delay_us+0x10>
    8c1c:	e8bd8070 	pop	{r4, r5, r6, pc}

00008c20 <delay_ms>:
    8c20:	e92d4010 	push	{r4, lr}
    8c24:	e0603280 	rsb	r3, r0, r0, lsl #5
    8c28:	e0800103 	add	r0, r0, r3, lsl #2
    8c2c:	e1a00180 	lsl	r0, r0, #3
    8c30:	ebfffff1 	bl	8bfc <delay_us>
    8c34:	e8bd8010 	pop	{r4, pc}

00008c38 <delay_sec>:
    8c38:	e92d4010 	push	{r4, lr}
    8c3c:	e0603280 	rsb	r3, r0, r0, lsl #5
    8c40:	e0800103 	add	r0, r0, r3, lsl #2
    8c44:	e1a00180 	lsl	r0, r0, #3
    8c48:	ebfffff4 	bl	8c20 <delay_ms>
    8c4c:	e8bd8010 	pop	{r4, pc}

00008c50 <and_in32>:
    8c50:	e92d4070 	push	{r4, r5, r6, lr}
    8c54:	e1a04000 	mov	r4, r0
    8c58:	e1a05001 	mov	r5, r1
    8c5c:	ebfffcf2 	bl	802c <GET32>
    8c60:	e0001005 	and	r1, r0, r5
    8c64:	e1a00004 	mov	r0, r4
    8c68:	ebfffced 	bl	8024 <PUT32>
    8c6c:	e8bd8070 	pop	{r4, r5, r6, pc}

00008c70 <or_in32>:
    8c70:	e92d4070 	push	{r4, r5, r6, lr}
    8c74:	e1a04000 	mov	r4, r0
    8c78:	e1a05001 	mov	r5, r1
    8c7c:	ebfffcea 	bl	802c <GET32>
    8c80:	e1801005 	orr	r1, r0, r5
    8c84:	e1a00004 	mov	r0, r4
    8c88:	ebfffce5 	bl	8024 <PUT32>
    8c8c:	e8bd8070 	pop	{r4, r5, r6, pc}

00008c90 <uart_init>:
    8c90:	e92d4010 	push	{r4, lr}
    8c94:	e3a01002 	mov	r1, #2
    8c98:	e3a0000e 	mov	r0, #14
    8c9c:	ebfffd42 	bl	81ac <gpio_set_function>
    8ca0:	e3a01002 	mov	r1, #2
    8ca4:	e3a0000f 	mov	r0, #15
    8ca8:	ebfffd3f 	bl	81ac <gpio_set_function>
    8cac:	eb00008f 	bl	8ef0 <dev_barrier>
    8cb0:	e3a01001 	mov	r1, #1
    8cb4:	e59f0064 	ldr	r0, [pc, #100]	; 8d20 <uart_init+0x90>
    8cb8:	ebffffec 	bl	8c70 <or_in32>
    8cbc:	eb00008b 	bl	8ef0 <dev_barrier>
    8cc0:	e59f405c 	ldr	r4, [pc, #92]	; 8d24 <uart_init+0x94>
    8cc4:	e3a01000 	mov	r1, #0
    8cc8:	e1a00004 	mov	r0, r4
    8ccc:	ebfffcd4 	bl	8024 <PUT32>
    8cd0:	e3a01000 	mov	r1, #0
    8cd4:	e59f004c 	ldr	r0, [pc, #76]	; 8d28 <uart_init+0x98>
    8cd8:	ebfffcd1 	bl	8024 <PUT32>
    8cdc:	e3a01003 	mov	r1, #3
    8ce0:	e59f0044 	ldr	r0, [pc, #68]	; 8d2c <uart_init+0x9c>
    8ce4:	ebfffcce 	bl	8024 <PUT32>
    8ce8:	e3a01000 	mov	r1, #0
    8cec:	e59f003c 	ldr	r0, [pc, #60]	; 8d30 <uart_init+0xa0>
    8cf0:	ebfffccb 	bl	8024 <PUT32>
    8cf4:	e3a010c7 	mov	r1, #199	; 0xc7
    8cf8:	e59f0034 	ldr	r0, [pc, #52]	; 8d34 <uart_init+0xa4>
    8cfc:	ebfffcc8 	bl	8024 <PUT32>
    8d00:	e59f1030 	ldr	r1, [pc, #48]	; 8d38 <uart_init+0xa8>
    8d04:	e59f0030 	ldr	r0, [pc, #48]	; 8d3c <uart_init+0xac>
    8d08:	ebfffcc5 	bl	8024 <PUT32>
    8d0c:	e3a01003 	mov	r1, #3
    8d10:	e1a00004 	mov	r0, r4
    8d14:	ebfffcc2 	bl	8024 <PUT32>
    8d18:	eb000074 	bl	8ef0 <dev_barrier>
    8d1c:	e8bd8010 	pop	{r4, pc}
    8d20:	20215004 	eorcs	r5, r1, r4
    8d24:	20215060 	eorcs	r5, r1, r0, rrx
    8d28:	20215044 	eorcs	r5, r1, r4, asr #32
    8d2c:	2021504c 	eorcs	r5, r1, ip, asr #32
    8d30:	20215050 	eorcs	r5, r1, r0, asr r0
    8d34:	20215048 	eorcs	r5, r1, r8, asr #32
    8d38:	0000010e 	andeq	r0, r0, lr, lsl #2
    8d3c:	20215068 	eorcs	r5, r1, r8, rrx

00008d40 <uart_can_getc>:
    8d40:	e92d4010 	push	{r4, lr}
    8d44:	e59f0008 	ldr	r0, [pc, #8]	; 8d54 <uart_can_getc+0x14>
    8d48:	ebfffcb7 	bl	802c <GET32>
    8d4c:	e2000001 	and	r0, r0, #1
    8d50:	e8bd8010 	pop	{r4, pc}
    8d54:	20215064 	eorcs	r5, r1, r4, rrx

00008d58 <uart_can_putc>:
    8d58:	e92d4010 	push	{r4, lr}
    8d5c:	e59f0010 	ldr	r0, [pc, #16]	; 8d74 <uart_can_putc+0x1c>
    8d60:	ebfffcb1 	bl	802c <GET32>
    8d64:	e3100002 	tst	r0, #2
    8d68:	13a00001 	movne	r0, #1
    8d6c:	03a00000 	moveq	r0, #0
    8d70:	e8bd8010 	pop	{r4, pc}
    8d74:	20215064 	eorcs	r5, r1, r4, rrx

00008d78 <uart_getc>:
    8d78:	e92d4010 	push	{r4, lr}
    8d7c:	eb00005b 	bl	8ef0 <dev_barrier>
    8d80:	ebffffee 	bl	8d40 <uart_can_getc>
    8d84:	e3500000 	cmp	r0, #0
    8d88:	0afffffc 	beq	8d80 <uart_getc+0x8>
    8d8c:	e59f0010 	ldr	r0, [pc, #16]	; 8da4 <uart_getc+0x2c>
    8d90:	ebfffca5 	bl	802c <GET32>
    8d94:	e6ef4070 	uxtb	r4, r0
    8d98:	eb000054 	bl	8ef0 <dev_barrier>
    8d9c:	e1a00004 	mov	r0, r4
    8da0:	e8bd8010 	pop	{r4, pc}
    8da4:	20215040 	eorcs	r5, r1, r0, asr #32

00008da8 <uart_putc>:
    8da8:	e92d4010 	push	{r4, lr}
    8dac:	e1a04000 	mov	r4, r0
    8db0:	eb00004e 	bl	8ef0 <dev_barrier>
    8db4:	ebffffe7 	bl	8d58 <uart_can_putc>
    8db8:	e3500000 	cmp	r0, #0
    8dbc:	0afffffc 	beq	8db4 <uart_putc+0xc>
    8dc0:	e6ef1074 	uxtb	r1, r4
    8dc4:	e59f0008 	ldr	r0, [pc, #8]	; 8dd4 <uart_putc+0x2c>
    8dc8:	ebfffc95 	bl	8024 <PUT32>
    8dcc:	eb000047 	bl	8ef0 <dev_barrier>
    8dd0:	e8bd8010 	pop	{r4, pc}
    8dd4:	20215040 	eorcs	r5, r1, r0, asr #32

00008dd8 <uart_has_data>:
    8dd8:	e92d4010 	push	{r4, lr}
    8ddc:	eb000043 	bl	8ef0 <dev_barrier>
    8de0:	ebffffd6 	bl	8d40 <uart_can_getc>
    8de4:	e8bd8010 	pop	{r4, pc}

00008de8 <uart_tx_is_empty>:
    8de8:	e92d4010 	push	{r4, lr}
    8dec:	eb00003f 	bl	8ef0 <dev_barrier>
    8df0:	e59f000c 	ldr	r0, [pc, #12]	; 8e04 <uart_tx_is_empty+0x1c>
    8df4:	ebfffc8c 	bl	802c <GET32>
    8df8:	e1a004a0 	lsr	r0, r0, #9
    8dfc:	e2000001 	and	r0, r0, #1
    8e00:	e8bd8010 	pop	{r4, pc}
    8e04:	20215064 	eorcs	r5, r1, r4, rrx

00008e08 <uart_flush_tx>:
    8e08:	e92d4010 	push	{r4, lr}
    8e0c:	ebfffff5 	bl	8de8 <uart_tx_is_empty>
    8e10:	e3500000 	cmp	r0, #0
    8e14:	0afffffc 	beq	8e0c <uart_flush_tx+0x4>
    8e18:	e8bd8010 	pop	{r4, pc}

00008e1c <uart_disable>:
    8e1c:	e92d4010 	push	{r4, lr}
    8e20:	ebfffff8 	bl	8e08 <uart_flush_tx>
    8e24:	eb000031 	bl	8ef0 <dev_barrier>
    8e28:	e3e01001 	mvn	r1, #1
    8e2c:	e59f0008 	ldr	r0, [pc, #8]	; 8e3c <uart_disable+0x20>
    8e30:	ebffff86 	bl	8c50 <and_in32>
    8e34:	eb00002d 	bl	8ef0 <dev_barrier>
    8e38:	e8bd8010 	pop	{r4, pc}
    8e3c:	20215004 	eorcs	r5, r1, r4

00008e40 <strcpy>:
    8e40:	e1a0c000 	mov	ip, r0
    8e44:	e5d12000 	ldrb	r2, [r1]
    8e48:	e2811001 	add	r1, r1, #1
    8e4c:	e5cc2000 	strb	r2, [ip]
    8e50:	e28cc001 	add	ip, ip, #1
    8e54:	e3520000 	cmp	r2, #0
    8e58:	1afffff9 	bne	8e44 <strcpy+0x4>
    8e5c:	e12fff1e 	bx	lr

00008e60 <strcat>:
    8e60:	e1a02000 	mov	r2, r0
    8e64:	e1a03002 	mov	r3, r2
    8e68:	e2822001 	add	r2, r2, #1
    8e6c:	e5d3c000 	ldrb	ip, [r3]
    8e70:	e35c0000 	cmp	ip, #0
    8e74:	1afffffa 	bne	8e64 <strcat+0x4>
    8e78:	e2433001 	sub	r3, r3, #1
    8e7c:	e5d12000 	ldrb	r2, [r1]
    8e80:	e2811001 	add	r1, r1, #1
    8e84:	e5e32001 	strb	r2, [r3, #1]!
    8e88:	e3520000 	cmp	r2, #0
    8e8c:	1afffffa 	bne	8e7c <strcat+0x1c>
    8e90:	e12fff1e 	bx	lr

00008e94 <strcmp>:
    8e94:	ea000001 	b	8ea0 <strcmp+0xc>
    8e98:	e2800001 	add	r0, r0, #1
    8e9c:	e2811001 	add	r1, r1, #1
    8ea0:	e5d03000 	ldrb	r3, [r0]
    8ea4:	e3530000 	cmp	r3, #0
    8ea8:	0a000002 	beq	8eb8 <strcmp+0x24>
    8eac:	e5d12000 	ldrb	r2, [r1]
    8eb0:	e1530002 	cmp	r3, r2
    8eb4:	0afffff7 	beq	8e98 <strcmp+0x4>
    8eb8:	e5d10000 	ldrb	r0, [r1]
    8ebc:	e0430000 	sub	r0, r3, r0
    8ec0:	e12fff1e 	bx	lr

00008ec4 <strncmp>:
    8ec4:	e3520000 	cmp	r2, #0
    8ec8:	e2422001 	sub	r2, r2, #1
    8ecc:	0a000005 	beq	8ee8 <strncmp+0x24>
    8ed0:	e4d03001 	ldrb	r3, [r0], #1
    8ed4:	e4d1c001 	ldrb	ip, [r1], #1
    8ed8:	e153000c 	cmp	r3, ip
    8edc:	0afffff8 	beq	8ec4 <strncmp>
    8ee0:	e043000c 	sub	r0, r3, ip
    8ee4:	e12fff1e 	bx	lr
    8ee8:	e3a00000 	mov	r0, #0
    8eec:	e12fff1e 	bx	lr

00008ef0 <dev_barrier>:
    8ef0:	ea000002 	b	8f00 <dsb>

00008ef4 <dmb>:
    8ef4:	e3a00000 	mov	r0, #0
    8ef8:	ee070fba 	mcr	15, 0, r0, cr7, cr10, {5}
    8efc:	e12fff1e 	bx	lr

00008f00 <dsb>:
    8f00:	ee070f9a 	mcr	15, 0, r0, cr7, cr10, {4}
    8f04:	e12fff1e 	bx	lr

Disassembly of section .rodata:

00008f08 <__FUNCTION__.0-0x1c0>:
    8f08:	656d6974 	strbvs	r6, [sp, #-2420]!	; 0xfffff68c
    8f0c:	2174756f 	cmncs	r4, pc, ror #10
    8f10:	61747320 	cmnvs	r4, r0, lsr #6
    8f14:	253d7472 	ldrcs	r7, [sp, #-1138]!	; 0xfffffb8e
    8f18:	74202c64 	strtvc	r2, [r0], #-3172	; 0xfffff39c
    8f1c:	2c64253d 	cfstr64cs	mvdx2, [r4], #-244	; 0xffffff0c
    8f20:	6e696d20 	cdpvs	13, 6, cr6, cr9, cr0, {1}
    8f24:	253d7875 	ldrcs	r7, [sp, #-2165]!	; 0xfffff78b
    8f28:	00000a64 	andeq	r0, r0, r4, ror #20
    8f2c:	656e6f64 	strbvs	r6, [lr, #-3940]!	; 0xfffff09c
    8f30:	0000000a 	andeq	r0, r0, sl
    8f34:	3a642520 	bcc	19123bc <__bss_end__+0x1908ebc>
    8f38:	6c617620 	stclvs	6, cr7, [r1], #-128	; 0xffffff80
    8f3c:	2c64253d 	cfstr64cs	mvdx2, [r4], #-244	; 0xffffff0c
    8f40:	6d697420 	cfstrdvs	mvd7, [r9, #-128]!	; 0xffffff80
    8f44:	64253d65 	strtvs	r3, [r5], #-3429	; 0xfffff29b
    8f48:	6f74202c 	svcvs	0x0074202c
    8f4c:	64253d74 	strtvs	r3, [r5], #-3444	; 0xfffff28c
    8f50:	7865203a 	stmdavc	r5!, {r1, r3, r4, r5, sp}^
    8f54:	64253d70 	strtvs	r3, [r5], #-3440	; 0xfffff290
    8f58:	72652820 	rsbvc	r2, r5, #32, 16	; 0x200000
    8f5c:	64253d72 	strtvs	r3, [r5], #-3442	; 0xfffff28e
    8f60:	6f74202c 	svcvs	0x0074202c
    8f64:	72726574 	rsbsvc	r6, r2, #116, 10	; 0x1d000000
    8f68:	2964253d 	stmdbcs	r4!, {r0, r2, r3, r4, r5, r8, sl, sp}^
    8f6c:	0000000a 	andeq	r0, r0, sl
    8f70:	696c2f2e 	stmdbvs	ip!, {r1, r2, r3, r5, r8, r9, sl, fp, sp}^
    8f74:	762f6362 	strtvc	r6, [pc], -r2, ror #6
    8f78:	72702d61 	rsbsvc	r2, r0, #6208	; 0x1840
    8f7c:	6b746e69 	blvs	1d24928 <__bss_end__+0x1d1b428>
    8f80:	0000632e 	andeq	r6, r0, lr, lsr #6
    8f84:	494e4150 	stmdbmi	lr, {r4, r6, r8, lr}^
    8f88:	73253a43 			; <UNDEFINED> instruction: 0x73253a43
    8f8c:	3a73253a 	bcc	1cd247c <__bss_end__+0x1cc8f7c>
    8f90:	253a6425 	ldrcs	r6, [sl, #-1061]!	; 0xfffffbdb
    8f94:	00000a73 	andeq	r0, r0, r3, ror sl
    8f98:	00000030 	andeq	r0, r0, r0, lsr r0
    8f9c:	33323130 	teqcc	r2, #48, 2
    8fa0:	37363534 			; <UNDEFINED> instruction: 0x37363534
    8fa4:	00003938 	andeq	r3, r0, r8, lsr r9
    8fa8:	33323130 	teqcc	r2, #48, 2
    8fac:	37363534 			; <UNDEFINED> instruction: 0x37363534
    8fb0:	62613938 	rsbvs	r3, r1, #56, 18	; 0xe0000
    8fb4:	66656463 	strbtvs	r6, [r5], -r3, ror #8
    8fb8:	00000000 	andeq	r0, r0, r0
    8fbc:	00003130 	andeq	r3, r0, r0, lsr r1
    8fc0:	63747570 	cmnvs	r4, #112, 10	; 0x1c000000
    8fc4:	0070665f 	rsbseq	r6, r0, pc, asr r6
    8fc8:	74646977 	strbtvc	r6, [r4], #-2423	; 0xfffff689
    8fcc:	203c2068 	eorscs	r2, ip, r8, rrx
    8fd0:	00003233 	andeq	r3, r0, r3, lsr r2
    8fd4:	00786c6c 	rsbseq	r6, r8, ip, ror #24
    8fd8:	00646c6c 	rsbeq	r6, r4, ip, ror #24
    8fdc:	253d3078 	ldrcs	r3, [sp, #-120]!	; 0xffffff88
    8fe0:	00000a78 	andeq	r0, r0, r8, ror sl
    8fe4:	253d3178 	ldrcs	r3, [sp, #-376]!	; 0xfffffe88
    8fe8:	00000a78 	andeq	r0, r0, r8, ror sl
    8fec:	6e727473 	mrcvs	4, 3, r7, cr2, cr3, {3}
    8ff0:	28706d63 	ldmdacs	r0!, {r0, r1, r5, r6, r8, sl, fp, sp, lr}^
    8ff4:	202c7974 	eorcs	r7, ip, r4, ror r9
    8ff8:	786c6c22 	stmdavc	ip!, {r1, r5, sl, fp, sp, lr}^
    8ffc:	33202c22 			; <UNDEFINED> instruction: 0x33202c22
    9000:	3d3d2029 	ldccc	0, cr2, [sp, #-164]!	; 0xffffff5c
    9004:	7c203020 	stcvc	0, cr3, [r0], #-128	; 0xffffff80
    9008:	7473207c 	ldrbtvc	r2, [r3], #-124	; 0xffffff84
    900c:	6d636e72 	stclvs	14, cr6, [r3, #-456]!	; 0xfffffe38
    9010:	79742870 	ldmdbvc	r4!, {r4, r5, r6, fp, sp}^
    9014:	6c22202c 	stcvs	0, cr2, [r2], #-176	; 0xffffff50
    9018:	2c22646c 	cfstrscs	mvf6, [r2], #-432	; 0xfffffe50
    901c:	20293320 	eorcs	r3, r9, r0, lsr #6
    9020:	30203d3d 	eorcc	r3, r0, sp, lsr sp
    9024:	00000000 	andeq	r0, r0, r0
    9028:	494e4150 	stmdbmi	lr, {r4, r6, r8, lr}^
    902c:	73253a43 			; <UNDEFINED> instruction: 0x73253a43
    9030:	3a73253a 	bcc	1cd2520 <__bss_end__+0x1cc9020>
    9034:	693a6425 	ldmdbvs	sl!, {r0, r2, r5, sl, sp, lr}
    9038:	736f706d 	cmnvc	pc, #109	; 0x6d
    903c:	6c626973 			; <UNDEFINED> instruction: 0x6c626973
    9040:	66203a65 	strtvs	r3, [r0], -r5, ror #20
    9044:	3c3d746d 	cfldrscc	mvf7, [sp], #-436	; 0xfffffe4c
    9048:	0a3e7325 	beq	fa5ce4 <__bss_end__+0xf9c7e4>
    904c:	0000000a 	andeq	r0, r0, sl
    9050:	494e4150 	stmdbmi	lr, {r4, r6, r8, lr}^
    9054:	73253a43 			; <UNDEFINED> instruction: 0x73253a43
    9058:	3a73253a 	bcc	1cd2548 <__bss_end__+0x1cc9048>
    905c:	663a6425 	ldrtvs	r6, [sl], -r5, lsr #8
    9060:	74616f6c 	strbtvc	r6, [r1], #-3948	; 0xfffff094
    9064:	746f6e20 	strbtvc	r6, [pc], #-3616	; 906c <__code_end__+0x164>
    9068:	616e6520 	cmnvs	lr, r0, lsr #10
    906c:	64656c62 	strbtvs	r6, [r5], #-3170	; 0xfffff39e
    9070:	0a212121 	beq	8514fc <__bss_end__+0x847ffc>
    9074:	00000000 	andeq	r0, r0, r0
    9078:	6e697270 	mcrvs	2, 3, r7, cr9, cr0, {3}
    907c:	203a6b74 	eorscs	r6, sl, r4, ror fp
    9080:	20746f6e 	rsbscs	r6, r4, lr, ror #30
    9084:	646e6168 	strbtvs	r6, [lr], #-360	; 0xfffffe98
    9088:	676e696c 	strbvs	r6, [lr, -ip, ror #18]!
    908c:	65707320 	ldrbvs	r7, [r0, #-800]!	; 0xfffffce0
    9090:	69666963 	stmdbvs	r6!, {r0, r1, r5, r6, r8, fp, sp, lr}^
    9094:	27207265 	strcs	r7, [r0, -r5, ror #4]!
    9098:	20276325 	eorcs	r6, r7, r5, lsr #6
    909c:	63736128 	cmnvs	r3, #40, 2
    90a0:	253d6969 	ldrcs	r6, [sp, #-2409]!	; 0xfffff697
    90a4:	000a2964 	andeq	r2, sl, r4, ror #18
    90a8:	494e4150 	stmdbmi	lr, {r4, r6, r8, lr}^
    90ac:	73253a43 			; <UNDEFINED> instruction: 0x73253a43
    90b0:	3a73253a 	bcc	1cd25a0 <__bss_end__+0x1cc90a0>
    90b4:	703a6425 	eorsvc	r6, sl, r5, lsr #8
    90b8:	746e6972 	strbtvc	r6, [lr], #-2418	; 0xfffff68e
    90bc:	7265206b 	rsbvc	r2, r5, #107	; 0x6b
    90c0:	0a726f72 	beq	1ca4e90 <__bss_end__+0x1c9b990>
    90c4:	0000000a 	andeq	r0, r0, sl

000090c8 <__FUNCTION__.0>:
    90c8:	74696d65 	strbtvc	r6, [r9], #-3429	; 0xfffff29b
    90cc:	00000000 	andeq	r0, r0, r0

000090d0 <__FUNCTION__.2>:
    90d0:	5f697072 	svcpl	0x00697072
    90d4:	5f746573 	svcpl	0x00746573
    90d8:	7074756f 	rsbsvc	r7, r4, pc, ror #10
    90dc:	00007475 	andeq	r7, r0, r5, ror r4

000090e0 <__FUNCTION__.1>:
    90e0:	705f6176 	subsvc	r6, pc, r6, ror r1	; <UNPREDICTABLE>
    90e4:	746e6972 	strbtvc	r6, [lr], #-2418	; 0xfffff68e
    90e8:	0000006b 	andeq	r0, r0, fp, rrx
    90ec:	454e4f44 	strbmi	r4, [lr, #-3908]	; 0xfffff0bc
    90f0:	0a212121 	beq	85157c <__bss_end__+0x84807c>
	...

Disassembly of section .data:

000090f8 <putk>:
    90f8:	00008320 	andeq	r8, r0, r0, lsr #6

000090fc <rpi_putchar>:
    90fc:	00008354 	andeq	r8, r0, r4, asr r3

Disassembly of section .bss:

00009100 <buf.0>:
	...

Disassembly of section .ARM.attributes:

00000000 <.ARM.attributes>:
   0:	00002a41 	andeq	r2, r0, r1, asr #20
   4:	61656100 	cmnvs	r5, r0, lsl #2
   8:	01006962 	tsteq	r0, r2, ror #18
   c:	00000020 	andeq	r0, r0, r0, lsr #32
  10:	4b5a3605 	blmi	168d82c <__bss_end__+0x168432c>
  14:	08070600 	stmdaeq	r7, {r9, sl}
  18:	12010901 	andne	r0, r1, #16384	; 0x4000
  1c:	15011404 	strne	r1, [r1, #-1028]	; 0xfffffbfc
  20:	18031701 	stmdane	r3, {r0, r8, r9, sl, ip}
  24:	22011a01 	andcs	r1, r1, #4096	; 0x1000
  28:	Address 0x0000000000000028 is out of bounds.


Disassembly of section .comment:

00000000 <.comment>:
   0:	3a434347 	bcc	10d0d24 <__bss_end__+0x10c7824>
   4:	4e472820 	cdpmi	8, 4, cr2, cr7, cr0, {1}
   8:	72412055 	subvc	r2, r1, #85	; 0x55
   c:	6d45206d 	stclvs	0, cr2, [r5, #-436]	; 0xfffffe4c
  10:	64646562 	strbtvs	r6, [r4], #-1378	; 0xfffffa9e
  14:	54206465 	strtpl	r6, [r0], #-1125	; 0xfffffb9b
  18:	636c6f6f 	cmnvs	ip, #444	; 0x1bc
  1c:	6e696168 	powvsez	f6, f1, #0.0
  20:	2e303120 	rsfcssp	f3, f0, f0
  24:	30322d33 	eorscc	r2, r2, r3, lsr sp
  28:	312e3132 			; <UNDEFINED> instruction: 0x312e3132
  2c:	31202930 			; <UNDEFINED> instruction: 0x31202930
  30:	2e332e30 	mrccs	14, 1, r2, cr3, cr0, {1}
  34:	30322031 	eorscc	r2, r2, r1, lsr r0
  38:	38303132 	ldmdacc	r0!, {r1, r4, r5, r8, ip, sp}
  3c:	28203432 	stmdacs	r0!, {r1, r4, r5, sl, ip, sp}
  40:	656c6572 	strbvs	r6, [ip, #-1394]!	; 0xfffffa8e
  44:	29657361 	stmdbcs	r5!, {r0, r5, r6, r8, r9, ip, sp, lr}^
	...

Disassembly of section .debug_info:

00000000 <.debug_info>:
       0:	00000510 	andeq	r0, r0, r0, lsl r5
       4:	00000004 	andeq	r0, r0, r4
       8:	01040000 	mrseq	r0, (UNDEF: 4)
       c:	000000db 	ldrdeq	r0, [r0], -fp
      10:	0000d30c 	andeq	sp, r0, ip, lsl #6
      14:	00000b00 	andeq	r0, r0, r0, lsl #22
      18:	00803800 	addeq	r3, r0, r0, lsl #16
      1c:	00017400 	andeq	r7, r1, r0, lsl #8
      20:	00000000 	andeq	r0, r0, r0
      24:	05040200 	streq	r0, [r4, #-512]	; 0xfffffe00
      28:	00746e69 	rsbseq	r6, r4, r9, ror #28
      2c:	86070403 	strhi	r0, [r7], -r3, lsl #8
      30:	03000001 	movweq	r0, #1
      34:	00700601 	rsbseq	r0, r0, r1, lsl #12
      38:	02030000 	andeq	r0, r3, #0
      3c:	0001ad05 	andeq	sl, r1, r5, lsl #26
      40:	05040300 	streq	r0, [r4, #-768]	; 0xfffffd00
      44:	0000019f 	muleq	r0, pc, r1	; <UNPREDICTABLE>
      48:	9a050803 	bls	14205c <__bss_end__+0x138b5c>
      4c:	03000001 	movweq	r0, #1
      50:	006e0801 	rsbeq	r0, lr, r1, lsl #16
      54:	02030000 	andeq	r0, r3, #0
      58:	00009f07 	andeq	r9, r0, r7, lsl #30
      5c:	07040300 	streq	r0, [r4, -r0, lsl #6]
      60:	00000181 	andeq	r0, r0, r1, lsl #3
      64:	7c070803 	stcvc	8, cr0, [r7], {3}
      68:	03000001 	movweq	r0, #1
      6c:	00770801 	rsbseq	r0, r7, r1, lsl #16
      70:	08040000 	stmdaeq	r4, {}	; <UNPREDICTABLE>
      74:	94090602 	strls	r0, [r9], #-1538	; 0xfffff9fe
      78:	05000000 	streq	r0, [r0, #-0]
      7c:	07020076 	smlsdxeq	r2, r6, r0, r0
      80:	00002c0e 	andeq	r2, r0, lr, lsl #24
      84:	7c060000 	stcvc	0, cr0, [r6], {-0}
      88:	02000000 	andeq	r0, r0, #0
      8c:	002c1007 	eoreq	r1, ip, r7
      90:	00040000 	andeq	r0, r4, r0
      94:	0001bc07 	andeq	fp, r1, r7, lsl #24
      98:	03080200 	movweq	r0, #33280	; 0x8200
      9c:	00000072 	andeq	r0, r0, r2, ror r0
      a0:	00005c08 	andeq	r5, r0, r8, lsl #24
      a4:	063d0100 	ldrteq	r0, [sp], -r0, lsl #2
      a8:	000080d0 	ldrdeq	r8, [r0], -r0
      ac:	000000dc 	ldrdeq	r0, [r0], -ip
      b0:	02749c01 	rsbseq	r9, r4, #256	; 0x100
      b4:	70090000 	andvc	r0, r9, r0
      b8:	01006e69 	tsteq	r0, r9, ror #28
      bc:	0025093f 	eoreq	r0, r5, pc, lsr r9
      c0:	0a150000 	beq	5400c8 <__bss_end__+0x536bc8>
      c4:	00676f6c 	rsbeq	r6, r7, ip, ror #30
      c8:	740f4601 	strvc	r4, [pc], #-1537	; d0 <__code_start__-0x7f30>
      cc:	03000002 	movweq	r0, #2
      d0:	0b7de891 	bleq	1f7a31c <__bss_end__+0x1f70e1c>
      d4:	000080e0 	andeq	r8, r0, r0, ror #1
      d8:	00000008 	andeq	r0, r0, r8
      dc:	000000ed 	andeq	r0, r0, sp, ror #1
      e0:	006e6909 	rsbeq	r6, lr, r9, lsl #18
      e4:	2c054301 	stccs	3, cr4, [r5], {1}
      e8:	01000000 	mrseq	r0, (UNDEF: 0)
      ec:	00000c00 	andeq	r0, r0, r0, lsl #24
      f0:	02570000 	subseq	r0, r7, #0
      f4:	690d0000 	stmdbvs	sp, {}	; <UNPREDICTABLE>
      f8:	0d4d0100 	stfeqe	f0, [sp, #-0]
      fc:	00000025 	andeq	r0, r0, r5, lsr #32
     100:	00000004 	andeq	r0, r0, r4
     104:	00000000 	andeq	r0, r0, r0
     108:	0000180e 	andeq	r1, r0, lr, lsl #16
     10c:	006e0d00 	rsbeq	r0, lr, r0, lsl #26
     110:	2c124e01 	ldccs	14, cr4, [r2], {1}
     114:	29000000 	stmdbcs	r0, {}	; <UNPREDICTABLE>
     118:	23000000 	movwcs	r0, #0
     11c:	0f000000 	svceq	0x00000000
     120:	00000451 	andeq	r0, r0, r1, asr r4
     124:	0000818c 	andeq	r8, r0, ip, lsl #3
     128:	00003801 	andeq	r3, r0, r1, lsl #16
     12c:	09500100 	ldmdbeq	r0, {r8}^
     130:	00000219 	andeq	r0, r0, r9, lsl r2
     134:	00047610 	andeq	r7, r4, r0, lsl r6
     138:	00005600 	andeq	r5, r0, r0, lsl #12
     13c:	00005200 	andeq	r5, r0, r0, lsl #4
     140:	046c1000 	strbteq	r1, [ip], #-0
     144:	007e0000 	rsbseq	r0, lr, r0
     148:	007a0000 	rsbseq	r0, sl, r0
     14c:	62100000 	andsvs	r0, r0, #0
     150:	a0000004 	andge	r0, r0, r4
     154:	9c000000 	stcls	0, cr0, [r0], {-0}
     158:	0e000000 	cdpeq	0, 0, cr0, cr0, cr0, {0}
     15c:	00000038 	andeq	r0, r0, r8, lsr r0
     160:	00048211 	andeq	r8, r4, r1, lsl r2
     164:	0000ca00 	andeq	ip, r0, r0, lsl #20
     168:	0000c400 	andeq	ip, r0, r0, lsl #8
     16c:	048e1100 	streq	r1, [lr], #256	; 0x100
     170:	00f80000 	rscseq	r0, r8, r0
     174:	00f40000 	rscseq	r0, r4, r0
     178:	9a110000 	bls	440180 <__bss_end__+0x436c80>
     17c:	21000004 	tstcs	r0, r4
     180:	17000001 	strne	r0, [r0, -r1]
     184:	12000001 	andne	r0, r0, #1
     188:	000004a6 	andeq	r0, r0, r6, lsr #9
     18c:	00000050 	andeq	r0, r0, r0, asr r0
     190:	0004a711 	andeq	sl, r4, r1, lsl r7
     194:	00016b00 	andeq	r6, r1, r0, lsl #22
     198:	00016100 	andeq	r6, r1, r0, lsl #2
     19c:	04b11200 	ldrteq	r1, [r1], #512	; 0x200
     1a0:	00700000 	rsbseq	r0, r0, r0
     1a4:	b2110000 	andslt	r0, r1, #0
     1a8:	b5000004 	strlt	r0, [r0, #-4]
     1ac:	ad000001 	stcge	0, cr0, [r0, #-4]
     1b0:	11000001 	tstne	r0, r1
     1b4:	000004bc 			; <UNDEFINED> instruction: 0x000004bc
     1b8:	00000210 	andeq	r0, r0, r0, lsl r2
     1bc:	0000020a 	andeq	r0, r0, sl, lsl #4
     1c0:	0004c811 	andeq	ip, r4, r1, lsl r8
     1c4:	00023f00 	andeq	r3, r2, r0, lsl #30
     1c8:	00023900 	andeq	r3, r2, r0, lsl #18
     1cc:	04d41100 	ldrbeq	r1, [r4], #256	; 0x100
     1d0:	02810000 	addeq	r0, r1, #0
     1d4:	027d0000 	rsbseq	r0, sp, #0
     1d8:	14130000 	ldrne	r0, [r3], #-0
     1dc:	e3000081 	movw	r0, #129	; 0x81
     1e0:	14000004 	strne	r0, [r0], #-4
     1e4:	03055001 	movweq	r5, #20481	; 0x5001
     1e8:	00008f34 	andeq	r8, r0, r4, lsr pc
     1ec:	007d0214 	rsbseq	r0, sp, r4, lsl r2
     1f0:	14007402 	strne	r7, [r0], #-1026	; 0xfffffbfe
     1f4:	15047d02 	strne	r7, [r4, #-3330]	; 0xfffff2fe
     1f8:	24320075 	ldrtcs	r0, [r2], #-117	; 0xffffff8b
     1fc:	75220075 	strvc	r0, [r2, #-117]!	; 0xffffff8b
     200:	75243200 	strvc	r3, [r4, #-512]!	; 0xfffffe00
     204:	24322200 	ldrtcs	r2, [r2], #-512	; 0xfffffe00
     208:	341e3f22 	ldrcc	r3, [lr], #-3874	; 0xfffff0de
     20c:	7d021424 	cfstrsvc	mvf1, [r2, #-144]	; 0xffffff70
     210:	0076020c 	rsbseq	r0, r6, ip, lsl #4
     214:	00000000 	andeq	r0, r0, r0
     218:	81801500 	orrhi	r1, r0, r0, lsl #10
     21c:	02840000 	addeq	r0, r4, #0
     220:	02420000 	subeq	r0, r2, #0
     224:	01140000 	tsteq	r4, r0
     228:	14450150 	strbne	r0, [r5], #-336	; 0xfffffeb0
     22c:	91035101 	tstls	r3, r1, lsl #2
     230:	01147de0 	tsteq	r4, r0, ror #27
     234:	20080252 	andcs	r0, r8, r2, asr r2
     238:	05530114 	ldrbeq	r0, [r3, #-276]	; 0xfffffeec
     23c:	6e49c00c 	cdpvs	0, 4, cr12, cr9, cr12, {0}
     240:	8c13000a 	ldchi	0, cr0, [r3], {10}
     244:	e3000081 	movw	r0, #129	; 0x81
     248:	14000004 	strne	r0, [r0], #-4
     24c:	03055001 	movweq	r5, #20481	; 0x5001
     250:	00008f2c 	andeq	r8, r0, ip, lsr #30
     254:	15000000 	strne	r0, [r0, #-0]
     258:	000080e0 	andeq	r8, r0, r0, ror #1
     25c:	000004ef 	andeq	r0, r0, pc, ror #9
     260:	0000026a 	andeq	r0, r0, sl, ror #4
     264:	01500114 	cmpeq	r0, r4, lsl r1
     268:	a0160045 	andsge	r0, r6, r5, asr #32
     26c:	fb000081 	blx	47a <__code_start__-0x7b86>
     270:	00000004 	andeq	r0, r0, r4
     274:	00009417 	andeq	r9, r0, r7, lsl r4
     278:	00028400 	andeq	r8, r2, r0, lsl #8
     27c:	002c1800 	eoreq	r1, ip, r0, lsl #16
     280:	001f0000 	andseq	r0, pc, r0
     284:	00005019 	andeq	r5, r0, r9, lsl r0
     288:	01170100 	tsteq	r7, r0, lsl #2
     28c:	0000002c 	andeq	r0, r0, ip, lsr #32
     290:	00008038 	andeq	r8, r0, r8, lsr r0
     294:	00000098 	muleq	r0, r8, r0
     298:	04119c01 	ldreq	r9, [r1], #-3073	; 0xfffff3ff
     29c:	701a0000 	andsvc	r0, sl, r0
     2a0:	01006e69 	tsteq	r0, r9, ror #28
     2a4:	002c1017 	eoreq	r1, ip, r7, lsl r0
     2a8:	02a50000 	adceq	r0, r5, #0
     2ac:	02a10000 	adceq	r0, r1, #0
     2b0:	6c1a0000 	ldcvs	0, cr0, [sl], {-0}
     2b4:	20170100 	andscs	r0, r7, r0, lsl #2
     2b8:	00000411 	andeq	r0, r0, r1, lsl r4
     2bc:	000002c7 	andeq	r0, r0, r7, asr #5
     2c0:	000002c3 	andeq	r0, r0, r3, asr #5
     2c4:	0000561b 	andeq	r5, r0, fp, lsl r6
     2c8:	2c170100 	ldfcss	f0, [r7], {-0}
     2cc:	0000002c 	andeq	r0, r0, ip, lsr #32
     2d0:	000002e9 	andeq	r0, r0, r9, ror #5
     2d4:	000002e5 	andeq	r0, r0, r5, ror #5
     2d8:	0000001b 	andeq	r0, r0, fp, lsl r0
     2dc:	3c170100 	ldfccs	f0, [r7], {-0}
     2e0:	0000002c 	andeq	r0, r0, ip, lsr #32
     2e4:	0000030b 	andeq	r0, r0, fp, lsl #6
     2e8:	00000307 	andeq	r0, r0, r7, lsl #6
     2ec:	0031760d 	eorseq	r7, r1, sp, lsl #12
     2f0:	2c0e1801 	stccs	8, cr1, [lr], {1}
     2f4:	2f000000 	svccs	0x00000000
     2f8:	29000003 	stmdbcs	r0, {r0, r1}
     2fc:	0d000003 	stceq	0, cr0, [r0, #-12]
     300:	01003076 	tsteq	r0, r6, ror r0
     304:	002c1218 	eoreq	r1, ip, r8, lsl r2
     308:	03620000 	cmneq	r2, #0
     30c:	035e0000 	cmpeq	lr, #0
     310:	1c1c0000 	ldcne	0, cr0, [ip], {-0}
     314:	01000004 	tsteq	r0, r4
     318:	002c0e20 	eoreq	r0, ip, r0, lsr #28
     31c:	03820000 	orreq	r0, r2, #0
     320:	03800000 	orreq	r0, r0, #0
     324:	740d0000 	strvc	r0, [sp], #-0
     328:	28200100 	stmdacs	r0!, {r8}
     32c:	0000002c 	andeq	r0, r0, ip, lsr #32
     330:	00000382 	andeq	r0, r0, r2, lsl #7
     334:	00000380 	andeq	r0, r0, r0, lsl #7
     338:	01006e0d 	tsteq	r0, sp, lsl #28
     33c:	002c0e23 	eoreq	r0, ip, r3, lsr #28
     340:	03990000 	orrseq	r0, r9, #0
     344:	03950000 	orrseq	r0, r5, #0
     348:	640b0000 	strvs	r0, [fp], #-0
     34c:	04000080 	streq	r0, [r0], #-128	; 0xffffff80
     350:	6c000000 	stcvs	0, cr0, [r0], {-0}
     354:	1c000003 	stcne	0, cr0, [r0], {3}
     358:	000000c1 	andeq	r0, r0, r1, asr #1
     35c:	2c162001 	ldccs	0, cr2, [r6], {1}
     360:	ba000000 	blt	368 <__code_start__-0x7c98>
     364:	b8000003 	stmdalt	r0, {r0, r1}
     368:	00000003 	andeq	r0, r0, r3
     36c:	0080880b 	addeq	r8, r0, fp, lsl #16
     370:	00000400 	andeq	r0, r0, r0, lsl #8
     374:	00038e00 	andeq	r8, r3, r0, lsl #28
     378:	00c11c00 	sbceq	r1, r1, r0, lsl #24
     37c:	2e010000 	cdpcs	0, 0, cr0, cr1, cr0, {0}
     380:	00002c18 	andeq	r2, r0, r8, lsl ip
     384:	0003cf00 	andeq	ip, r3, r0, lsl #30
     388:	0003cd00 	andeq	ip, r3, r0, lsl #26
     38c:	9c0b0000 	stcls	0, cr0, [fp], {-0}
     390:	04000080 	streq	r0, [r0], #-128	; 0xffffff80
     394:	b0000000 	andlt	r0, r0, r0
     398:	1c000003 	stcne	0, cr0, [r0], {3}
     39c:	000000c1 	andeq	r0, r0, r1, asr #1
     3a0:	2c0d3401 	cfstrscs	mvf3, [sp], {1}
     3a4:	e4000000 	str	r0, [r0], #-0
     3a8:	e2000003 	and	r0, r0, #3
     3ac:	00000003 	andeq	r0, r0, r3
     3b0:	00805015 	addeq	r5, r0, r5, lsl r0
     3b4:	00050700 	andeq	r0, r5, r0, lsl #14
     3b8:	0003c400 	andeq	ip, r3, r0, lsl #8
     3bc:	50011400 	andpl	r1, r1, r0, lsl #8
     3c0:	00007502 	andeq	r7, r0, r2, lsl #10
     3c4:	00805c15 	addeq	r5, r0, r5, lsl ip
     3c8:	00050700 	andeq	r0, r5, r0, lsl #14
     3cc:	0003d800 	andeq	sp, r3, r0, lsl #16
     3d0:	50011400 	andpl	r1, r1, r0, lsl #8
     3d4:	00007502 	andeq	r7, r0, r2, lsl #10
     3d8:	00808015 	addeq	r8, r0, r5, lsl r0
     3dc:	00050700 	andeq	r0, r5, r0, lsl #14
     3e0:	0003ec00 	andeq	lr, r3, r0, lsl #24
     3e4:	50011400 	andpl	r1, r1, r0, lsl #8
     3e8:	00007502 	andeq	r7, r0, r2, lsl #10
     3ec:	0080c413 	addeq	ip, r0, r3, lsl r4
     3f0:	0004e300 	andeq	lr, r4, r0, lsl #6
     3f4:	50011400 	andpl	r1, r1, r0, lsl #8
     3f8:	8f080305 	svchi	0x00080305
     3fc:	01140000 	tsteq	r4, r0
     400:	00780251 	rsbseq	r0, r8, r1, asr r2
     404:	02520114 	subseq	r0, r2, #20, 2
     408:	01140078 	tsteq	r4, r8, ror r0
     40c:	00300153 	eorseq	r0, r0, r3, asr r1
     410:	94041d00 	strls	r1, [r4], #-3328	; 0xfffff300
     414:	1e000000 	cdpne	0, 0, cr0, cr0, cr0, {0}
     418:	00000091 	muleq	r0, r1, r0
     41c:	2c180803 	ldccs	8, cr0, [r8], {3}
     420:	03000000 	movweq	r0, #0
     424:	00000434 	andeq	r0, r0, r4, lsr r4
     428:	00736d1f 	rsbseq	r6, r3, pc, lsl sp
     42c:	2c2f0803 	stccs	8, cr0, [pc], #-12	; 428 <__code_start__-0x7bd8>
     430:	00000000 	andeq	r0, r0, r0
     434:	00016e1e 	andeq	r6, r1, lr, lsl lr
     438:	18050300 	stmdane	r5, {r8, r9}
     43c:	0000002c 	andeq	r0, r0, ip, lsr #32
     440:	00045103 	andeq	r5, r4, r3, lsl #2
     444:	73751f00 	cmnvc	r5, #0, 30
     448:	2f050300 	svccs	0x00050300
     44c:	0000002c 	andeq	r0, r0, ip, lsr #32
     450:	00c61e00 	sbceq	r1, r6, r0, lsl #28
     454:	0d020000 	stceq	0, cr0, [r2, #-0]
     458:	00002c01 	andeq	r2, r0, r1, lsl #24
     45c:	04e30300 	strbteq	r0, [r3], #768	; 0x300
     460:	6c1f0000 	ldcvs	0, cr0, [pc], {-0}
     464:	190d0200 	stmdbne	sp, {r9}
     468:	00000411 	andeq	r0, r0, r1, lsl r4
     46c:	02006e1f 	andeq	r6, r0, #496	; 0x1f0
     470:	002c250d 	eoreq	r2, ip, sp, lsl #10
     474:	93200000 	nopls	{0}	; <UNPREDICTABLE>
     478:	02000001 	andeq	r0, r0, #1
     47c:	002c310d 	eoreq	r3, ip, sp, lsl #2
     480:	74210000 	strtvc	r0, [r1], #-0
     484:	0200746f 	andeq	r7, r0, #1862270976	; 0x6f000000
     488:	002c0e0e 	eoreq	r0, ip, lr, lsl #28
     48c:	c6220000 	strtgt	r0, [r2], -r0
     490:	02000001 	andeq	r0, r0, #1
     494:	002c170e 	eoreq	r1, ip, lr, lsl #14
     498:	b7220000 	strlt	r0, [r2, -r0]!
     49c:	02000001 	andeq	r0, r0, #1
     4a0:	002c0e10 	eoreq	r0, ip, r0, lsl lr
     4a4:	21230000 			; <UNDEFINED> instruction: 0x21230000
     4a8:	11020069 	tstne	r2, r9, rrx
     4ac:	0000250d 	andeq	r2, r0, sp, lsl #10
     4b0:	65212300 	strvs	r2, [r1, #-768]!	; 0xfffffd00
     4b4:	14120200 	ldrne	r0, [r2], #-512	; 0xfffffe00
     4b8:	00000411 	andeq	r0, r0, r1, lsl r4
     4bc:	0001a822 	andeq	sl, r1, r2, lsr #16
     4c0:	12140200 	andsne	r0, r4, #0, 4
     4c4:	0000002c 	andeq	r0, r0, ip, lsr #32
     4c8:	70786521 	rsbsvc	r6, r8, r1, lsr #10
     4cc:	12180200 	andsne	r0, r8, #0, 4
     4d0:	0000002c 	andeq	r0, r0, ip, lsr #32
     4d4:	72726521 	rsbsvc	r6, r2, #138412032	; 0x8400000
     4d8:	12190200 	andsne	r0, r9, #0, 4
     4dc:	0000002c 	andeq	r0, r0, ip, lsr #32
     4e0:	24000000 	strcs	r0, [r0], #-0
     4e4:	00000325 	andeq	r0, r0, r5, lsr #6
     4e8:	00000325 	andeq	r0, r0, r5, lsr #6
     4ec:	24062804 	strcs	r2, [r6], #-2052	; 0xfffff7fc
     4f0:	000000b2 	strheq	r0, [r0], -r2
     4f4:	000000b2 	strheq	r0, [r0], -r2
     4f8:	24061c05 	strcs	r1, [r6], #-3077	; 0xfffff3fb
     4fc:	00000084 	andeq	r0, r0, r4, lsl #1
     500:	00000084 	andeq	r0, r0, r4, lsl #1
     504:	24066e04 	strcs	r6, [r6], #-3588	; 0xfffff1fc
     508:	00000064 	andeq	r0, r0, r4, rrx
     50c:	00000064 	andeq	r0, r0, r4, rrx
     510:	00052405 	andeq	r2, r5, r5, lsl #8
     514:	000003a5 	andeq	r0, r0, r5, lsr #7
     518:	021b0004 	andseq	r0, fp, #4
     51c:	01040000 	mrseq	r0, (UNDEF: 4)
     520:	000000db 	ldrdeq	r0, [r0], -fp
     524:	0002820c 	andeq	r8, r2, ip, lsl #4
     528:	0001e200 	andeq	lr, r1, r0, lsl #4
     52c:	0081ac00 	addeq	sl, r1, r0, lsl #24
     530:	00011c00 	andeq	r1, r1, r0, lsl #24
     534:	00029400 	andeq	r9, r2, r0, lsl #8
     538:	05040200 	streq	r0, [r4, #-512]	; 0xfffffe00
     53c:	00746e69 	rsbseq	r6, r4, r9, ror #28
     540:	86070403 	strhi	r0, [r7], -r3, lsl #8
     544:	04000001 	streq	r0, [r0], #-1
     548:	0000002c 	andeq	r0, r0, ip, lsr #32
     54c:	70060103 	andvc	r0, r6, r3, lsl #2
     550:	03000000 	movweq	r0, #0
     554:	01ad0502 			; <UNDEFINED> instruction: 0x01ad0502
     558:	04030000 	streq	r0, [r3], #-0
     55c:	00019f05 	andeq	r9, r1, r5, lsl #30
     560:	05080300 	streq	r0, [r8, #-768]	; 0xfffffd00
     564:	0000019a 	muleq	r0, sl, r1
     568:	6e080103 	adfvse	f0, f0, f3
     56c:	03000000 	movweq	r0, #0
     570:	009f0702 	addseq	r0, pc, r2, lsl #14
     574:	e6050000 	str	r0, [r5], -r0
     578:	03000002 	movweq	r0, #2
     57c:	006e1934 	rsbeq	r1, lr, r4, lsr r9
     580:	04030000 	streq	r0, [r3], #-0
     584:	00018107 	andeq	r8, r1, r7, lsl #2
     588:	07080300 	streq	r0, [r8, -r0, lsl #6]
     58c:	0000017c 	andeq	r0, r0, ip, ror r1
     590:	77080103 	strvc	r0, [r8, -r3, lsl #2]
     594:	06000000 	streq	r0, [r0], -r0
     598:	00540107 	subseq	r0, r4, r7, lsl #2
     59c:	0c040000 	stceq	0, cr0, [r4], {-0}
     5a0:	0000c20e 	andeq	ip, r0, lr, lsl #4
     5a4:	02ef0700 	rsceq	r0, pc, #0, 14
     5a8:	07000000 	streq	r0, [r0, -r0]
     5ac:	00000210 	andeq	r0, r0, r0, lsl r2
     5b0:	02370701 	eorseq	r0, r7, #262144	; 0x40000
     5b4:	07040000 	streq	r0, [r4, -r0]
     5b8:	00000246 	andeq	r0, r0, r6, asr #4
     5bc:	02550705 	subseq	r0, r5, #1310720	; 0x140000
     5c0:	07060000 	streq	r0, [r6, -r0]
     5c4:	00000264 	andeq	r0, r0, r4, ror #4
     5c8:	02d20707 	sbcseq	r0, r2, #1835008	; 0x1c0000
     5cc:	07030000 	streq	r0, [r3, -r0]
     5d0:	00000273 	andeq	r0, r0, r3, ror r2
     5d4:	b1050002 	tstlt	r5, r2
     5d8:	04000002 	streq	r0, [r0], #-2
     5dc:	00830315 	addeq	r0, r3, r5, lsl r3
     5e0:	d8080000 	stmdale	r8, {}	; <UNPREDICTABLE>
     5e4:	01000001 	tsteq	r0, r1
     5e8:	0033171d 	eorseq	r1, r3, sp, lsl r7
     5ec:	001c0000 	andseq	r0, ip, r0
     5f0:	ce082020 	cdpgt	0, 0, cr2, cr8, cr0, {1}
     5f4:	01000001 	tsteq	r0, r1
     5f8:	0033171e 	eorseq	r1, r3, lr, lsl r7
     5fc:	00280000 	eoreq	r0, r8, r0
     600:	bd082020 	stclt	0, cr2, [r8, #-128]	; 0xffffff80
     604:	01000002 	tsteq	r0, r2
     608:	0033171f 	eorseq	r1, r3, pc, lsl r7
     60c:	00340000 	eorseq	r0, r4, r0
     610:	64092020 	strvs	r2, [r9], #-32	; 0xffffffe0
     614:	01000000 	mrseq	r0, (UNDEF: 0)
     618:	00250555 	eoreq	r0, r5, r5, asr r5
     61c:	82940000 	addshi	r0, r4, #0
     620:	00340000 	eorseq	r0, r4, r0
     624:	9c010000 	stcls	0, cr0, [r1], {-0}
     628:	0000016e 	andeq	r0, r0, lr, ror #2
     62c:	6e69700a 	cdpvs	0, 6, cr7, cr9, cr10, {0}
     630:	18550100 	ldmdane	r5, {r8}^
     634:	0000002c 	andeq	r0, r0, ip, lsr #32
     638:	000003ff 	strdeq	r0, [r0], -pc	; <UNPREDICTABLE>
     63c:	000003f7 	strdeq	r0, [r0], -r7
     640:	0002e10b 	andeq	lr, r2, fp, lsl #2
     644:	0e580100 	rdfeqe	f0, f0, f0
     648:	0000002c 	andeq	r0, r0, ip, lsr #32
     64c:	0000043f 	andeq	r0, r0, pc, lsr r4
     650:	00000439 	andeq	r0, r0, r9, lsr r4
     654:	66666f0c 	strbtvs	r6, [r6], -ip, lsl #30
     658:	0e590100 	rdfeqe	f0, f1, f0
     65c:	0000002c 	andeq	r0, r0, ip, lsr #32
     660:	0000047f 	andeq	r0, r0, pc, ror r4
     664:	0000047d 	andeq	r0, r0, sp, ror r4
     668:	0082b00d 	addeq	fp, r2, sp
     66c:	00039000 	andeq	r9, r3, r0
     670:	50010e00 	andpl	r0, r1, r0, lsl #28
     674:	5001f30b 	andpl	pc, r1, fp, lsl #6
     678:	b4232535 	strtlt	r2, [r3], #-1333	; 0xfffffacb
     67c:	02818080 	addeq	r8, r1, #128	; 0x80
     680:	c70f0000 	strgt	r0, [pc, -r0]
     684:	01000002 	tsteq	r0, r2
     688:	8278064e 	rsbshi	r0, r8, #81788928	; 0x4e00000
     68c:	001c0000 	andseq	r0, ip, r0
     690:	9c010000 	stcls	0, cr0, [r1], {-0}
     694:	000001c9 	andeq	r0, r0, r9, asr #3
     698:	6e69700a 	cdpvs	0, 6, cr7, cr9, cr10, {0}
     69c:	1a4e0100 	bne	1380aa4 <__bss_end__+0x13775a4>
     6a0:	0000002c 	andeq	r0, r0, ip, lsr #32
     6a4:	0000049a 	muleq	r0, sl, r4
     6a8:	00000492 	muleq	r0, r2, r4
     6ac:	0100760a 	tsteq	r0, sl, lsl #12
     6b0:	002c284e 	eoreq	r2, ip, lr, asr #16
     6b4:	04dc0000 	ldrbeq	r0, [ip], #0
     6b8:	04d40000 	ldrbeq	r0, [r4], #0
     6bc:	88100000 	ldmdahi	r0, {}	; <UNPREDICTABLE>
     6c0:	51000082 	smlabbpl	r0, r2, r0, r0
     6c4:	bf000002 	svclt	0x00000002
     6c8:	0e000001 	cdpeq	0, 0, cr0, cr0, cr1, {0}
     6cc:	f3035001 	vhadd.u8	d5, d3, d1
     6d0:	11005001 	tstne	r0, r1
     6d4:	00008290 	muleq	r0, r0, r2
     6d8:	0000020a 	andeq	r0, r0, sl, lsl #4
     6dc:	00b20f00 	adcseq	r0, r2, r0, lsl #30
     6e0:	49010000 	stmdbmi	r1, {}	; <UNPREDICTABLE>
     6e4:	00826806 	addeq	r6, r2, r6, lsl #16
     6e8:	00001000 	andeq	r1, r0, r0
     6ec:	0a9c0100 	beq	fe700af4 <__bss_end__+0xfe6f75f4>
     6f0:	0a000002 	beq	700 <__code_start__-0x7900>
     6f4:	006e6970 	rsbeq	r6, lr, r0, ror r9
     6f8:	2c1e4901 			; <UNDEFINED> instruction: 0x2c1e4901
     6fc:	1a000000 	bne	704 <__code_start__-0x78fc>
     700:	16000005 	strne	r0, [r0], -r5
     704:	0d000005 	stceq	0, cr0, [r0, #-20]	; 0xffffffec
     708:	00008274 	andeq	r8, r0, r4, ror r2
     70c:	000002d9 	ldrdeq	r0, [r0], -r9
     710:	0350010e 	cmpeq	r0, #-2147483645	; 0x80000003
     714:	0e5001f3 	mrceq	1, 2, r0, cr0, cr3, {7}
     718:	30015101 	andcc	r5, r1, r1, lsl #2
     71c:	8f0f0000 	svchi	0x000f0000
     720:	01000002 	tsteq	r0, r2
     724:	82440642 	subhi	r0, r4, #69206016	; 0x4200000
     728:	00240000 	eoreq	r0, r4, r0
     72c:	9c010000 	stcls	0, cr0, [r1], {-0}
     730:	00000251 	andeq	r0, r0, r1, asr r2
     734:	6e69700a 	cdpvs	0, 6, cr7, cr9, cr10, {0}
     738:	1c420100 	stfnee	f0, [r2], {-0}
     73c:	0000002c 	andeq	r0, r0, ip, lsr #32
     740:	0000053f 	andeq	r0, r0, pc, lsr r5
     744:	0000053b 	andeq	r0, r0, fp, lsr r5
     748:	0082600d 	addeq	r6, r2, sp
     74c:	00039c00 	andeq	r9, r3, r0, lsl #24
     750:	50010e00 	andpl	r0, r1, r0, lsl #28
     754:	00280c05 	eoreq	r0, r8, r5, lsl #24
     758:	010e2020 	tsteq	lr, r0, lsr #32
     75c:	f3310551 	vqrshl.u64	q0, <illegal reg q0.5>, <illegal reg q0.5>
     760:	00245001 	eoreq	r5, r4, r1
     764:	03110f00 	tsteq	r1, #0, 30
     768:	3b010000 	blcc	40770 <__bss_end__+0x37270>
     76c:	00822006 	addeq	r2, r2, r6
     770:	00002400 	andeq	r2, r0, r0, lsl #8
     774:	989c0100 	ldmls	ip, {r8}
     778:	0a000002 	beq	788 <__code_start__-0x7878>
     77c:	006e6970 	rsbeq	r6, lr, r0, ror r9
     780:	2c1b3b01 			; <UNDEFINED> instruction: 0x2c1b3b01
     784:	64000000 	strvs	r0, [r0], #-0
     788:	60000005 	andvs	r0, r0, r5
     78c:	0d000005 	stceq	0, cr0, [r0, #-20]	; 0xffffffec
     790:	0000823c 	andeq	r8, r0, ip, lsr r2
     794:	0000039c 	muleq	r0, ip, r3
     798:	0550010e 	ldrbeq	r0, [r0, #-270]	; 0xfffffef2
     79c:	20001c0c 	andcs	r1, r0, ip, lsl #24
     7a0:	51010e20 	tstpl	r1, r0, lsr #28
     7a4:	01f33105 	mvnseq	r3, r5, lsl #2
     7a8:	00002450 	andeq	r2, r0, r0, asr r4
     7ac:	00029c0f 	andeq	r9, r2, pc, lsl #24
     7b0:	06360100 	ldrteq	r0, [r6], -r0, lsl #2
     7b4:	00008210 	andeq	r8, r0, r0, lsl r2
     7b8:	00000010 	andeq	r0, r0, r0, lsl r0
     7bc:	02d99c01 	sbcseq	r9, r9, #256	; 0x100
     7c0:	700a0000 	andvc	r0, sl, r0
     7c4:	01006e69 	tsteq	r0, r9, ror #28
     7c8:	002c1f36 	eoreq	r1, ip, r6, lsr pc
     7cc:	05890000 	streq	r0, [r9]
     7d0:	05850000 	streq	r0, [r5]
     7d4:	1c0d0000 	stcne	0, cr0, [sp], {-0}
     7d8:	d9000082 	stmdble	r0, {r1, r7}
     7dc:	0e000002 	cdpeq	0, 0, cr0, cr0, cr2, {0}
     7e0:	f3035001 	vhadd.u8	d5, d3, d1
     7e4:	010e5001 	tsteq	lr, r1
     7e8:	00310151 	eorseq	r0, r1, r1, asr r1
     7ec:	02ff0f00 	rscseq	r0, pc, #0, 30
     7f0:	28010000 	stmdacs	r1, {}	; <UNPREDICTABLE>
     7f4:	0081ac06 	addeq	sl, r1, r6, lsl #24
     7f8:	00006400 	andeq	r6, r0, r0, lsl #8
     7fc:	749c0100 	ldrvc	r0, [ip], #256	; 0x100
     800:	0a000003 	beq	814 <__code_start__-0x77ec>
     804:	006e6970 	rsbeq	r6, lr, r0, ror r9
     808:	2c212801 	stccs	8, cr2, [r1], #-4
     80c:	ae000000 	cdpge	0, 0, cr0, cr0, cr0, {0}
     810:	aa000005 	bge	82c <__code_start__-0x77d4>
     814:	12000005 	andne	r0, r0, #5
     818:	000002ac 	andeq	r0, r0, ip, lsr #5
     81c:	c2322801 	eorsgt	r2, r2, #65536	; 0x10000
     820:	d3000000 	movwle	r0, #0
     824:	cf000005 	svcgt	0x00000005
     828:	0c000005 	stceq	0, cr0, [r0], {5}
     82c:	0066666f 	rsbeq	r6, r6, pc, ror #12
     830:	2c0e2d01 	stccs	13, cr2, [lr], {1}
     834:	f6000000 			; <UNDEFINED> instruction: 0xf6000000
     838:	f4000005 	vst4.8	{d0-d3}, [r0], r5
     83c:	0c000005 	stceq	0, cr0, [r0], {5}
     840:	2e010067 	cdpcs	0, 0, cr0, cr1, cr7, {3}
     844:	00002c0e 	andeq	r2, r0, lr, lsl #24
     848:	00060b00 	andeq	r0, r6, r0, lsl #22
     84c:	00060900 	andeq	r0, r6, r0, lsl #18
     850:	00760c00 	rsbseq	r0, r6, r0, lsl #24
     854:	2c0e3001 	stccs	0, cr3, [lr], {1}
     858:	26000000 	strcs	r0, [r0], -r0
     85c:	1e000006 	cdpne	0, 0, cr0, cr0, cr6, {0}
     860:	10000006 	andne	r0, r0, r6
     864:	000081f4 	strdeq	r8, [r0], -r4
     868:	00000390 	muleq	r0, r0, r3
     86c:	00000363 	andeq	r0, r0, r3, ror #6
     870:	0250010e 	subseq	r0, r0, #-2147483645	; 0x80000003
     874:	0d000076 	stceq	0, cr0, [r0, #-472]	; 0xfffffe28
     878:	00008208 	andeq	r8, r0, r8, lsl #4
     87c:	0000039c 	muleq	r0, ip, r3
     880:	0250010e 	subseq	r0, r0, #-2147483645	; 0x80000003
     884:	00000076 	andeq	r0, r0, r6, ror r0
     888:	00022113 	andeq	r2, r2, r3, lsl r1
     88c:	18b10200 	ldmne	r1!, {r9}
     890:	00000062 	andeq	r0, r0, r2, rrx
     894:	00039003 	andeq	r9, r3, r3
     898:	00781400 	rsbseq	r1, r8, r0, lsl #8
     89c:	622bb102 	eorvs	fp, fp, #-2147483648	; 0x80000000
     8a0:	00000000 	andeq	r0, r0, r0
     8a4:	00023115 	andeq	r3, r2, r5, lsl r1
     8a8:	00023100 	andeq	r3, r2, r0, lsl #2
     8ac:	0ac20200 	beq	ff0810b4 <__bss_end__+0xff077bb4>
     8b0:	00022b15 	andeq	r2, r2, r5, lsl fp
     8b4:	00022b00 	andeq	r2, r2, r0, lsl #22
     8b8:	06ad0200 	strteq	r0, [sp], r0, lsl #4
     8bc:	00017c00 	andeq	r7, r1, r0, lsl #24
     8c0:	78000400 	stmdavc	r0, {sl}
     8c4:	04000003 	streq	r0, [r0], #-3
     8c8:	0000db01 	andeq	sp, r0, r1, lsl #22
     8cc:	03400c00 	movteq	r0, #3072	; 0xc00
     8d0:	01e20000 	mvneq	r0, r0
     8d4:	82c80000 	sbchi	r0, r8, #0
     8d8:	00580000 	subseq	r0, r8, r0
     8dc:	045d0000 	ldrbeq	r0, [sp], #-0
     8e0:	2c020000 	stccs	0, cr0, [r2], {-0}
     8e4:	02000003 	andeq	r0, r0, #3
     8e8:	00311b28 	eorseq	r1, r1, r8, lsr #22
     8ec:	50030000 	andpl	r0, r3, r0
     8f0:	04000003 	streq	r0, [r0], #-3
     8f4:	00480003 	subeq	r0, r8, r3
     8f8:	3b040000 	blcc	100900 <__bss_end__+0xf7400>
     8fc:	48000003 	stmdami	r0, {r0, r1}
     900:	00000000 	andeq	r0, r0, r0
     904:	02040500 	andeq	r0, r4, #0, 10
     908:	00000352 	andeq	r0, r0, r2, asr r3
     90c:	25186302 	ldrcs	r6, [r8, #-770]	; 0xfffffcfe
     910:	06000000 	streq	r0, [r0], -r0
     914:	6e690504 	cdpvs	5, 6, cr0, cr9, cr4, {0}
     918:	04070074 	streq	r0, [r7], #-116	; 0xffffff8c
     91c:	00018607 	andeq	r8, r1, r7, lsl #12
     920:	06010700 	streq	r0, [r1], -r0, lsl #14
     924:	00000070 	andeq	r0, r0, r0, ror r0
     928:	ad050207 	sfmge	f0, 4, [r5, #-28]	; 0xffffffe4
     92c:	07000001 	streq	r0, [r0, -r1]
     930:	019f0504 	orrseq	r0, pc, r4, lsl #10
     934:	08070000 	stmdaeq	r7, {}	; <UNPREDICTABLE>
     938:	00019a05 	andeq	r9, r1, r5, lsl #20
     93c:	08010700 	stmdaeq	r1, {r8, r9, sl}
     940:	0000006e 	andeq	r0, r0, lr, rrx
     944:	9f070207 	svcls	0x00070207
     948:	07000000 	streq	r0, [r0, -r0]
     94c:	01810704 	orreq	r0, r1, r4, lsl #14
     950:	08070000 	stmdaeq	r7, {}	; <UNPREDICTABLE>
     954:	00017c07 	andeq	r7, r1, r7, lsl #24
     958:	00560800 	subseq	r0, r6, r0, lsl #16
     95c:	00ab0000 	adceq	r0, fp, r0
     960:	ab090000 	blge	240968 <__bss_end__+0x237468>
     964:	00000000 	andeq	r0, r0, r0
     968:	00b8040a 	adcseq	r0, r8, sl, lsl #8
     96c:	01070000 	mrseq	r0, (UNDEF: 7)
     970:	00007708 	andeq	r7, r0, r8, lsl #14
     974:	00b10b00 	adcseq	r0, r1, r0, lsl #22
     978:	630c0000 	movwvs	r0, #49152	; 0xc000
     97c:	04000003 	streq	r0, [r0], #-3
     980:	00c90e21 	sbceq	r0, r9, r1, lsr #28
     984:	040a0000 	streq	r0, [sl], #-0
     988:	0000009c 	muleq	r0, ip, r0
     98c:	0003250d 	andeq	r2, r3, sp, lsl #10
     990:	05060100 	streq	r0, [r6, #-256]	; 0xffffff00
     994:	00000056 	andeq	r0, r0, r6, asr r0
     998:	000082c8 	andeq	r8, r0, r8, asr #5
     99c:	00000058 	andeq	r0, r0, r8, asr r0
     9a0:	01629c01 	cmneq	r2, r1, lsl #24
     9a4:	660e0000 	strvs	r0, [lr], -r0
     9a8:	0100746d 	tsteq	r0, sp, ror #8
     9ac:	00ab1806 	adceq	r1, fp, r6, lsl #16
     9b0:	91020000 	mrsls	r0, (UNDEF: 2)
     9b4:	62100f70 	andsvs	r0, r0, #112, 30	; 0x1c0
     9b8:	01006675 	tsteq	r0, r5, ror r6
     9bc:	01621108 	cmneq	r2, r8, lsl #2
     9c0:	03050000 	movweq	r0, #20480	; 0x5000
     9c4:	00009100 	andeq	r9, r0, r0, lsl #2
     9c8:	00031d11 	andeq	r1, r3, r1, lsl sp
     9cc:	0d090100 	stfeqs	f0, [r9, #-0]
     9d0:	0000004a 	andeq	r0, r0, sl, asr #32
     9d4:	125c9102 	subsne	r9, ip, #-2147483648	; 0x80000000
     9d8:	01007a73 	tsteq	r0, r3, ror sl
     9dc:	00560d0c 	subseq	r0, r6, ip, lsl #26
     9e0:	06680000 	strbteq	r0, [r8], -r0
     9e4:	06620000 	strbteq	r0, [r2], -r0
     9e8:	f0130000 			; <UNDEFINED> instruction: 0xf0130000
     9ec:	73000082 	movwvc	r0, #130	; 0x82
     9f0:	55000001 	strpl	r0, [r0, #-1]
     9f4:	14000001 	strne	r0, [r0], #-1
     9f8:	75025001 	strvc	r5, [r2, #-1]
     9fc:	51011400 	tstpl	r1, r0, lsl #8
     a00:	04000a03 	streq	r0, [r0], #-2563	; 0xfffff5fd
     a04:	03520114 	cmpeq	r2, #20, 2
     a08:	14064891 	strne	r4, [r6], #-2193	; 0xfffff76f
     a0c:	91025301 	tstls	r2, r1, lsl #6
     a10:	0415004c 	ldreq	r0, [r5], #-76	; 0xffffffb4
     a14:	14000083 	strne	r0, [r0], #-131	; 0xffffff7d
     a18:	75025001 	strvc	r5, [r2, #-1]
     a1c:	16000000 	strne	r0, [r0], -r0
     a20:	000000b1 	strheq	r0, [r0], -r1
     a24:	00000173 	andeq	r0, r0, r3, ror r1
     a28:	00005d17 	andeq	r5, r0, r7, lsl sp
     a2c:	0003ff00 	andeq	pc, r3, r0, lsl #30
     a30:	00032218 	andeq	r2, r3, r8, lsl r2
     a34:	00032200 	andeq	r2, r3, r0, lsl #4
     a38:	05020500 	streq	r0, [r2, #-1280]	; 0xfffffb00
     a3c:	0000f300 	andeq	pc, r0, r0, lsl #6
     a40:	ba000400 	blt	1a48 <__code_start__-0x65b8>
     a44:	04000004 	streq	r0, [r0], #-4
     a48:	0000db01 	andeq	sp, r0, r1, lsl #22
     a4c:	03740c00 	cmneq	r4, #0, 24
     a50:	01e20000 	mvneq	r0, r0
     a54:	83200000 	nophi	{0}	; <UNPREDICTABLE>
     a58:	00340000 	eorseq	r0, r4, r0
     a5c:	056e0000 	strbeq	r0, [lr, #-0]!
     a60:	04020000 	streq	r0, [r2], #-0
     a64:	746e6905 	strbtvc	r6, [lr], #-2309	; 0xfffff6fb
     a68:	07040300 	streq	r0, [r4, -r0, lsl #6]
     a6c:	00000186 	andeq	r0, r0, r6, lsl #3
     a70:	70060103 	andvc	r0, r6, r3, lsl #2
     a74:	03000000 	movweq	r0, #0
     a78:	01ad0502 			; <UNDEFINED> instruction: 0x01ad0502
     a7c:	04030000 	streq	r0, [r3], #-0
     a80:	00019f05 	andeq	r9, r1, r5, lsl #30
     a84:	05080300 	streq	r0, [r8, #-768]	; 0xfffffd00
     a88:	0000019a 	muleq	r0, sl, r1
     a8c:	6e080103 	adfvse	f0, f0, f3
     a90:	03000000 	movweq	r0, #0
     a94:	009f0702 	addseq	r0, pc, r2, lsl #14
     a98:	04030000 	streq	r0, [r3], #-0
     a9c:	00018107 	andeq	r8, r1, r7, lsl #2
     aa0:	07080300 	streq	r0, [r8, -r0, lsl #6]
     aa4:	0000017c 	andeq	r0, r0, ip, ror r1
     aa8:	00002504 	andeq	r2, r0, r4, lsl #10
     aac:	00007a00 	andeq	r7, r0, r0, lsl #20
     ab0:	00250500 	eoreq	r0, r5, r0, lsl #10
     ab4:	06000000 	streq	r0, [r0], -r0
     ab8:	00000368 	andeq	r0, r0, r8, ror #6
     abc:	860e1c02 	strhi	r1, [lr], -r2, lsl #24
     ac0:	07000000 	streq	r0, [r0, -r0]
     ac4:	00006b04 	andeq	r6, r0, r4, lsl #22
     ac8:	00250400 	eoreq	r0, r5, r0, lsl #8
     acc:	009b0000 	addseq	r0, fp, r0
     ad0:	9b050000 	blls	140ad8 <__bss_end__+0x1375d8>
     ad4:	00000000 	andeq	r0, r0, r0
     ad8:	00a80407 	adceq	r0, r8, r7, lsl #8
     adc:	01030000 	mrseq	r0, (UNDEF: 3)
     ae0:	00007708 	andeq	r7, r0, r8, lsl #14
     ae4:	00a10800 	adceq	r0, r1, r0, lsl #16
     ae8:	63060000 	movwvs	r0, #24576	; 0x6000
     aec:	02000003 	andeq	r0, r0, #3
     af0:	00b90e21 	adcseq	r0, r9, r1, lsr #28
     af4:	04070000 	streq	r0, [r7], #-0
     af8:	0000008c 	andeq	r0, r0, ip, lsl #1
     afc:	0000ad09 	andeq	sl, r0, r9, lsl #26
     b00:	070c0100 	streq	r0, [ip, -r0, lsl #2]
     b04:	90f80305 	rscsls	r0, r8, r5, lsl #6
     b08:	5a0a0000 	bpl	280b10 <__bss_end__+0x277610>
     b0c:	01000003 	tsteq	r0, r3
     b10:	00250504 	eoreq	r0, r5, r4, lsl #10
     b14:	83200000 	nophi	{0}	; <UNPREDICTABLE>
     b18:	00340000 	eorseq	r0, r4, r0
     b1c:	9c010000 	stcls	0, cr0, [r1], {-0}
     b20:	0100700b 	tsteq	r0, fp
     b24:	009b1f04 	addseq	r1, fp, r4, lsl #30
     b28:	06950000 	ldreq	r0, [r5], r0
     b2c:	06910000 	ldreq	r0, [r1], r0
     b30:	00000000 	andeq	r0, r0, r0
     b34:	0000011d 	andeq	r0, r0, sp, lsl r1
     b38:	05580004 	ldrbeq	r0, [r8, #-4]
     b3c:	01040000 	mrseq	r0, (UNDEF: 4)
     b40:	000000db 	ldrdeq	r0, [r0], -fp
     b44:	0003a00c 	andeq	sl, r3, ip
     b48:	0001e200 	andeq	lr, r1, r0, lsl #4
     b4c:	00835400 	addeq	r5, r3, r0, lsl #8
     b50:	00003c00 	andeq	r3, r0, r0, lsl #24
     b54:	00061c00 	andeq	r1, r6, r0, lsl #24
     b58:	05040200 	streq	r0, [r4, #-512]	; 0xfffffe00
     b5c:	00746e69 	rsbseq	r6, r4, r9, ror #28
     b60:	86070403 	strhi	r0, [r7], -r3, lsl #8
     b64:	03000001 	movweq	r0, #1
     b68:	00700601 	rsbseq	r0, r0, r1, lsl #12
     b6c:	02030000 	andeq	r0, r3, #0
     b70:	0001ad05 	andeq	sl, r1, r5, lsl #26
     b74:	05040300 	streq	r0, [r4, #-768]	; 0xfffffd00
     b78:	0000019f 	muleq	r0, pc, r1	; <UNPREDICTABLE>
     b7c:	9a050803 	bls	142b90 <__bss_end__+0x139690>
     b80:	03000001 	movweq	r0, #1
     b84:	006e0801 	rsbeq	r0, lr, r1, lsl #16
     b88:	02030000 	andeq	r0, r3, #0
     b8c:	00009f07 	andeq	r9, r0, r7, lsl #30
     b90:	07040300 	streq	r0, [r4, -r0, lsl #6]
     b94:	00000181 	andeq	r0, r0, r1, lsl #3
     b98:	7c070803 	stcvc	8, cr0, [r7], {3}
     b9c:	04000001 	streq	r0, [r0], #-1
     ba0:	00000025 	andeq	r0, r0, r5, lsr #32
     ba4:	0000007a 	andeq	r0, r0, sl, ror r0
     ba8:	00002505 	andeq	r2, r0, r5, lsl #10
     bac:	68060000 	stmdavs	r6, {}	; <UNPREDICTABLE>
     bb0:	02000003 	andeq	r0, r0, #3
     bb4:	00860e1c 	addeq	r0, r6, ip, lsl lr
     bb8:	04070000 	streq	r0, [r7], #-0
     bbc:	0000006b 	andeq	r0, r0, fp, rrx
     bc0:	77080103 	strvc	r0, [r8, -r3, lsl #2]
     bc4:	08000000 	stmdaeq	r0, {}	; <UNPREDICTABLE>
     bc8:	0000007a 	andeq	r0, r0, sl, ror r0
     bcc:	05070601 	streq	r0, [r7, #-1537]	; 0xfffff9ff
     bd0:	0090fc03 	addseq	pc, r0, r3, lsl #24
     bd4:	03930900 	orrseq	r0, r3, #0, 18
     bd8:	0b010000 	bleq	40be0 <__bss_end__+0x376e0>
     bdc:	00838006 	addeq	r8, r3, r6
     be0:	00001000 	andeq	r1, r0, r0
     be4:	c59c0100 	ldrgt	r0, [ip, #256]	; 0x100
     be8:	0a000000 	beq	bf0 <__code_start__-0x7410>
     bec:	01007066 	tsteq	r0, r6, rrx
     bf0:	0086190b 	addeq	r1, r6, fp, lsl #18
     bf4:	50010000 	andpl	r0, r1, r0
     bf8:	03bb0b00 			; <UNDEFINED> instruction: 0x03bb0b00
     bfc:	08010000 	stmdaeq	r1, {}	; <UNPREDICTABLE>
     c00:	00836806 	addeq	r6, r3, r6, lsl #16
     c04:	00001800 	andeq	r1, r0, r0, lsl #16
     c08:	0c9c0100 	ldfeqs	f0, [ip], {0}
     c0c:	00000382 	andeq	r0, r0, r2, lsl #7
     c10:	250c0301 	strcs	r0, [ip, #-769]	; 0xfffffcff
     c14:	54000000 	strpl	r0, [r0], #-0
     c18:	14000083 	strne	r0, [r0], #-131	; 0xffffff7d
     c1c:	01000000 	mrseq	r0, (UNDEF: 0)
     c20:	0001149c 	muleq	r1, ip, r4
     c24:	00630d00 	rsbeq	r0, r3, r0, lsl #26
     c28:	25210301 	strcs	r0, [r1, #-769]!	; 0xfffffcff
     c2c:	b7000000 	strlt	r0, [r0, -r0]
     c30:	b3000006 	movwlt	r0, #6
     c34:	0e000006 	cdpeq	0, 0, cr0, cr0, cr6, {0}
     c38:	00008360 	andeq	r8, r0, r0, ror #6
     c3c:	00000114 	andeq	r0, r0, r4, lsl r1
     c40:	0250010f 	subseq	r0, r0, #-1073741821	; 0xc0000003
     c44:	00000074 	andeq	r0, r0, r4, ror r0
     c48:	0003b110 	andeq	fp, r3, r0, lsl r1
     c4c:	0003b100 	andeq	fp, r3, r0, lsl #2
     c50:	06420200 	strbeq	r0, [r2], -r0, lsl #4
     c54:	000a7700 	andeq	r7, sl, r0, lsl #14
     c58:	60000400 	andvs	r0, r0, r0, lsl #8
     c5c:	04000006 	streq	r0, [r0], #-6
     c60:	0000db01 	andeq	sp, r0, r1, lsl #22
     c64:	03db0c00 	bicseq	r0, fp, #0, 24
     c68:	01e20000 	mvneq	r0, r0
     c6c:	83900000 	orrshi	r0, r0, #0
     c70:	07480000 	strbeq	r0, [r8, -r0]
     c74:	06c40000 	strbeq	r0, [r4], r0
     c78:	04020000 	streq	r0, [r2], #-0
     c7c:	746e6905 	strbtvc	r6, [lr], #-2309	; 0xfffff6fb
     c80:	07040300 	streq	r0, [r4, -r0, lsl #6]
     c84:	00000186 	andeq	r0, r0, r6, lsl #3
     c88:	70060103 	andvc	r0, r6, r3, lsl #2
     c8c:	03000000 	movweq	r0, #0
     c90:	01ad0502 			; <UNDEFINED> instruction: 0x01ad0502
     c94:	04030000 	streq	r0, [r3], #-0
     c98:	00019f05 	andeq	r9, r1, r5, lsl #30
     c9c:	05080300 	streq	r0, [r8, #-768]	; 0xfffffd00
     ca0:	0000019a 	muleq	r0, sl, r1
     ca4:	6e080103 	adfvse	f0, f0, f3
     ca8:	03000000 	movweq	r0, #0
     cac:	009f0702 	addseq	r0, pc, r2, lsl #14
     cb0:	e6040000 	str	r0, [r4], -r0
     cb4:	02000002 	andeq	r0, r0, #2
     cb8:	00691934 	rsbeq	r1, r9, r4, lsr r9
     cbc:	04030000 	streq	r0, [r3], #-0
     cc0:	00018107 	andeq	r8, r1, r7, lsl #2
     cc4:	03d20400 	bicseq	r0, r2, #0, 8
     cc8:	37020000 	strcc	r0, [r2, -r0]
     ccc:	00007c19 	andeq	r7, r0, r9, lsl ip
     cd0:	07080300 	streq	r0, [r8, -r0, lsl #6]
     cd4:	0000017c 	andeq	r0, r0, ip, ror r1
     cd8:	00002505 	andeq	r2, r0, r5, lsl #10
     cdc:	00009200 	andeq	r9, r0, r0, lsl #4
     ce0:	00250600 	eoreq	r0, r5, r0, lsl #12
     ce4:	07000000 	streq	r0, [r0, -r0]
     ce8:	00000368 	andeq	r0, r0, r8, ror #6
     cec:	9e0e1c03 	cdpls	12, 0, cr1, cr14, cr3, {0}
     cf0:	08000000 	stmdaeq	r0, {}	; <UNPREDICTABLE>
     cf4:	00008304 	andeq	r8, r0, r4, lsl #6
     cf8:	00250500 	eoreq	r0, r5, r0, lsl #10
     cfc:	00b30000 	adcseq	r0, r3, r0
     d00:	b3060000 	movwlt	r0, #24576	; 0x6000
     d04:	00000000 	andeq	r0, r0, r0
     d08:	00c00408 	sbceq	r0, r0, r8, lsl #8
     d0c:	01030000 	mrseq	r0, (UNDEF: 3)
     d10:	00007708 	andeq	r7, r0, r8, lsl #14
     d14:	00b90900 	adcseq	r0, r9, r0, lsl #18
     d18:	63070000 	movwvs	r0, #28672	; 0x7000
     d1c:	03000003 	movweq	r0, #3
     d20:	00d10e21 	sbcseq	r0, r1, r1, lsr #28
     d24:	04080000 	streq	r0, [r8], #-0
     d28:	000000a4 	andeq	r0, r0, r4, lsr #1
     d2c:	00032c04 	andeq	r2, r3, r4, lsl #24
     d30:	1b280400 	blne	a01d38 <__bss_end__+0x9f8838>
     d34:	000000e3 	andeq	r0, r0, r3, ror #1
     d38:	0003500a 	andeq	r5, r3, sl
     d3c:	00050400 	andeq	r0, r5, r0, lsl #8
     d40:	000000fa 	strdeq	r0, [r0], -sl
     d44:	00033b0b 	andeq	r3, r3, fp, lsl #22
     d48:	0000fa00 	andeq	pc, r0, r0, lsl #20
     d4c:	0c000000 	stceq	0, cr0, [r0], {-0}
     d50:	03520404 	cmpeq	r2, #4, 8	; 0x4000000
     d54:	63040000 	movwvs	r0, #16384	; 0x4000
     d58:	0000d718 	andeq	sp, r0, r8, lsl r7
     d5c:	03220d00 			; <UNDEFINED> instruction: 0x03220d00
     d60:	81010000 	mrshi	r0, (UNDEF: 1)
     d64:	00002505 	andeq	r2, r0, r5, lsl #10
     d68:	00862000 	addeq	r2, r6, r0
     d6c:	0004b800 	andeq	fp, r4, r0, lsl #16
     d70:	b79c0100 	ldrlt	r0, [ip, r0, lsl #2]
     d74:	0e000006 	cdpeq	0, 0, cr0, cr0, cr6, {0}
     d78:	00667562 	rsbeq	r7, r6, r2, ror #10
     d7c:	b7158101 	ldrlt	r8, [r5, -r1, lsl #2]
     d80:	db000006 	blle	da0 <__code_start__-0x7260>
     d84:	d5000006 	strle	r0, [r0, #-6]
     d88:	0e000006 	cdpeq	0, 0, cr0, cr0, cr6, {0}
     d8c:	8101006e 	tsthi	r1, lr, rrx
     d90:	0000251e 	andeq	r2, r0, lr, lsl r5
     d94:	00070d00 	andeq	r0, r7, r0, lsl #26
     d98:	00070700 	andeq	r0, r7, r0, lsl #14
     d9c:	6d660e00 	stclvs	14, cr0, [r6, #-0]
     da0:	81010074 	tsthi	r1, r4, ror r0
     da4:	0000b32d 	andeq	fp, r0, sp, lsr #6
     da8:	00074700 	andeq	r4, r7, r0, lsl #14
     dac:	00073b00 	andeq	r3, r7, r0, lsl #22
     db0:	031d0f00 	tsteq	sp, #0, 30
     db4:	81010000 	mrshi	r0, (UNDEF: 1)
     db8:	0000fc3a 	andeq	pc, r0, sl, lsr ip	; <UNPREDICTABLE>
     dbc:	d4910300 	ldrle	r0, [r1], #768	; 0x300
     dc0:	0070107d 	rsbseq	r1, r0, sp, ror r0
     dc4:	b7088201 	strlt	r8, [r8, -r1, lsl #4]
     dc8:	a5000006 	strge	r0, [r0, #-6]
     dcc:	91000007 	tstls	r0, r7
     dd0:	10000007 	andne	r0, r0, r7
     dd4:	82010065 	andhi	r0, r1, #101	; 0x65
     dd8:	0006b712 	andeq	fp, r6, r2, lsl r7
     ddc:	00082700 	andeq	r2, r8, r0, lsl #14
     de0:	00082300 	andeq	r2, r8, r0, lsl #6
     de4:	30781000 	rsbscc	r1, r8, r0
     de8:	0e830100 	rmfeqs	f0, f3, f0
     dec:	0000005d 	andeq	r0, r0, sp, asr r0
     df0:	00000854 	andeq	r0, r0, r4, asr r8
     df4:	0000084e 	andeq	r0, r0, lr, asr #16
     df8:	00317810 	eorseq	r7, r1, r0, lsl r8
     dfc:	5d118301 	ldcpl	3, cr8, [r1, #-4]
     e00:	81000000 	mrshi	r0, (UNDEF: 0)
     e04:	7d000008 	stcvc	0, cr0, [r0, #-32]	; 0xffffffe0
     e08:	11000008 	tstne	r0, r8
     e0c:	00000418 	andeq	r0, r0, r8, lsl r4
     e10:	b3118601 	tstlt	r1, #1048576	; 0x100000
     e14:	a3000000 	movwge	r0, #0
     e18:	9f000008 	svcls	0x00000008
     e1c:	12000008 	andne	r0, r0, #8
     e20:	000003f4 	strdeq	r0, [r0], -r4
     e24:	000006cd 	andeq	r0, r0, sp, asr #13
     e28:	90e00305 	rscls	r0, r0, r5, lsl #6
     e2c:	8c130000 	ldchi	0, cr0, [r3], {-0}
     e30:	fc000086 	stc2	0, cr0, [r0], {134}	; 0x86
     e34:	10000003 	andne	r0, r0, r3
     e38:	91010073 	tstls	r1, r3, ror r0
     e3c:	0006b70a 	andeq	fp, r6, sl, lsl #14
     e40:	0008d900 	andeq	sp, r8, r0, lsl #18
     e44:	0008c300 	andeq	ip, r8, r0, lsl #6
     e48:	756e1400 	strbvc	r1, [lr, #-1024]!	; 0xfffffc00
     e4c:	9101006d 	tstls	r1, sp, rrx
     e50:	0006d20d 	andeq	sp, r6, sp, lsl #4
     e54:	d8910300 	ldmle	r1, {r8, r9}
     e58:	0452157d 	ldrbeq	r1, [r2], #-1405	; 0xfffffa83
     e5c:	91010000 	mrsls	r0, (UNDEF: 1)
     e60:	0006d217 	andeq	sp, r6, r7, lsl r2
     e64:	d8910300 	ldmle	r1, {r8, r9}
     e68:	03ee117e 	mvneq	r1, #-2147483617	; 0x8000001f
     e6c:	92010000 	andls	r0, r1, #0
     e70:	00002c0d 	andeq	r2, r0, sp, lsl #24
     e74:	00096000 	andeq	r6, r9, r0
     e78:	00095a00 	andeq	r5, r9, r0, lsl #20
     e7c:	87501600 	ldrbhi	r1, [r0, -r0, lsl #12]
     e80:	01a40000 			; <UNDEFINED> instruction: 0x01a40000
     e84:	04d90000 	ldrbeq	r0, [r9], #0
     e88:	74100000 	ldrvc	r0, [r0], #-0
     e8c:	9e010079 	mcrls	0, 0, r0, cr1, cr9, {3}
     e90:	0000b31d 	andeq	fp, r0, sp, lsl r3
     e94:	00099400 	andeq	r9, r9, r0, lsl #8
     e98:	00098a00 	andeq	r8, r9, r0, lsl #20
     e9c:	78781700 	ldmdavc	r8!, {r8, r9, sl, ip}^
     ea0:	1aa20100 	bne	fe8812a8 <__bss_end__+0xfe877da8>
     ea4:	00000070 	andeq	r0, r0, r0, ror r0
     ea8:	00876018 	addeq	r6, r7, r8, lsl r0
     eac:	000a3200 	andeq	r3, sl, r0, lsl #4
     eb0:	00027500 	andeq	r7, r2, r0, lsl #10
     eb4:	50011900 	andpl	r1, r1, r0, lsl #18
     eb8:	19007602 	stmdbne	r0, {r1, r9, sl, ip, sp, lr}
     ebc:	03055101 	movweq	r5, #20737	; 0x5101
     ec0:	00008fd4 	ldrdeq	r8, [r0], -r4
     ec4:	01520119 	cmpeq	r2, r9, lsl r1
     ec8:	78180033 	ldmdavc	r8, {r0, r1, r4, r5}
     ecc:	32000087 	andcc	r0, r0, #135	; 0x87
     ed0:	9700000a 	strls	r0, [r0, -sl]
     ed4:	19000002 	stmdbne	r0, {r1}
     ed8:	76025001 	strvc	r5, [r2], -r1
     edc:	51011900 	tstpl	r1, r0, lsl #18
     ee0:	8fd80305 	svchi	0x00d80305
     ee4:	01190000 	tsteq	r9, r0
     ee8:	00330152 	eorseq	r0, r3, r2, asr r1
     eec:	0087ac18 	addeq	sl, r7, r8, lsl ip
     ef0:	000a3e00 	andeq	r3, sl, r0, lsl #28
     ef4:	0002b400 	andeq	fp, r2, r0, lsl #8
     ef8:	50011900 	andpl	r1, r1, r0, lsl #18
     efc:	8fdc0305 	svchi	0x00dc0305
     f00:	01190000 	tsteq	r9, r0
     f04:	00770251 	rsbseq	r0, r7, r1, asr r2
     f08:	87b81800 	ldrhi	r1, [r8, r0, lsl #16]!
     f0c:	0a3e0000 	beq	f80f14 <__bss_end__+0xf77a14>
     f10:	02d10000 	sbcseq	r0, r1, #0
     f14:	01190000 	tsteq	r9, r0
     f18:	e4030550 	str	r0, [r3], #-1360	; 0xfffffab0
     f1c:	1900008f 	stmdbne	r0, {r0, r1, r2, r3, r7}
     f20:	7a025101 	bvc	9532c <__bss_end__+0x8be2c>
     f24:	c8180000 	ldmdagt	r8, {}	; <UNPREDICTABLE>
     f28:	32000087 	andcc	r0, r0, #135	; 0x87
     f2c:	f300000a 	vhadd.u8	d0, d0, d10
     f30:	19000002 	stmdbne	r0, {r1}
     f34:	76025001 	strvc	r5, [r2], -r1
     f38:	51011900 	tstpl	r1, r0, lsl #18
     f3c:	8fd40305 	svchi	0x00d40305
     f40:	01190000 	tsteq	r9, r0
     f44:	00330152 	eorseq	r0, r3, r2, asr r1
     f48:	0087e018 	addeq	lr, r7, r8, lsl r0
     f4c:	000a3200 	andeq	r3, sl, r0, lsl #4
     f50:	00031500 	andeq	r1, r3, r0, lsl #10
     f54:	50011900 	andpl	r1, r1, r0, lsl #18
     f58:	19007602 	stmdbne	r0, {r1, r9, sl, ip, sp, lr}
     f5c:	03055101 	movweq	r5, #20737	; 0x5101
     f60:	00008fd8 	ldrdeq	r8, [r0], -r8	; <UNPREDICTABLE>
     f64:	01520119 	cmpeq	r2, r9, lsl r1
     f68:	08180033 	ldmdaeq	r8, {r0, r1, r4, r5}
     f6c:	e2000088 	and	r0, r0, #136	; 0x88
     f70:	49000006 	stmdbmi	r0, {r1, r2}
     f74:	19000003 	stmdbne	r0, {r0, r1}
     f78:	3a015001 	bcc	54f84 <__bss_end__+0x4ba84>
     f7c:	03510119 	cmpeq	r1, #1073741830	; 0x40000006
     f80:	197dd091 	ldmdbne	sp!, {r0, r4, r7, ip, lr, pc}^
     f84:	08025201 	stmdaeq	r2, {r0, r9, ip, lr}
     f88:	53011980 	movwpl	r1, #6528	; 0x1980
     f8c:	19007702 	stmdbne	r0, {r1, r8, r9, sl, ip, sp, lr}
     f90:	02007d02 	andeq	r7, r0, #2, 26	; 0x80
     f94:	02190075 	andseq	r0, r9, #117	; 0x75
     f98:	7602047d 			; <UNDEFINED> instruction: 0x7602047d
     f9c:	28180000 	ldmdacs	r8, {}	; <UNPREDICTABLE>
     fa0:	e2000088 	and	r0, r0, #136	; 0x88
     fa4:	7d000006 	stcvc	0, cr0, [r0, #-24]	; 0xffffffe8
     fa8:	19000003 	stmdbne	r0, {r0, r1}
     fac:	3a015001 	bcc	54fb8 <__bss_end__+0x4bab8>
     fb0:	03510119 	cmpeq	r1, #1073741830	; 0x40000006
     fb4:	197ed091 	ldmdbne	lr!, {r0, r4, r7, ip, lr, pc}^
     fb8:	08025201 	stmdaeq	r2, {r0, r9, ip, lr}
     fbc:	53011980 	movwpl	r1, #6528	; 0x1980
     fc0:	19007a02 	stmdbne	r0, {r1, r9, fp, ip, sp, lr}
     fc4:	02007d02 	andeq	r7, r0, #2, 26	; 0x80
     fc8:	02190075 	andseq	r0, r9, #117	; 0x75
     fcc:	7602047d 			; <UNDEFINED> instruction: 0x7602047d
     fd0:	34180000 	ldrcc	r0, [r8], #-0
     fd4:	4a000088 	bmi	11fc <__code_start__-0x6e04>
     fd8:	9b00000a 	blls	1008 <__code_start__-0x6ff8>
     fdc:	19000003 	stmdbne	r0, {r0, r1}
     fe0:	91035001 	tstls	r3, r1
     fe4:	01197dd0 			; <UNDEFINED> instruction: 0x01197dd0
     fe8:	98030551 	stmdals	r3, {r0, r4, r6, r8, sl}
     fec:	0000008f 	andeq	r0, r0, pc, lsl #1
     ff0:	00884818 	addeq	r4, r8, r8, lsl r8
     ff4:	000a5600 	andeq	r5, sl, r0, lsl #12
     ff8:	0003b700 	andeq	fp, r3, r0, lsl #14
     ffc:	50011900 	andpl	r1, r1, r0, lsl #18
    1000:	7dd09103 	ldfvcp	f1, [r0, #12]
    1004:	03510119 	cmpeq	r1, #1073741830	; 0x40000006
    1008:	007ed091 			; <UNDEFINED> instruction: 0x007ed091
    100c:	00886c18 	addeq	r6, r8, r8, lsl ip
    1010:	000a3e00 	andeq	r3, sl, r0, lsl #28
    1014:	0003f000 	andeq	pc, r3, r0
    1018:	50011900 	andpl	r1, r1, r0, lsl #18
    101c:	8f840305 	svchi	0x00840305
    1020:	01190000 	tsteq	r9, r0
    1024:	70030551 	andvc	r0, r3, r1, asr r5
    1028:	1900008f 	stmdbne	r0, {r0, r1, r2, r3, r7}
    102c:	03055201 	movweq	r5, #20993	; 0x5201
    1030:	000090e0 	andeq	r9, r0, r0, ror #1
    1034:	02530119 	subseq	r0, r3, #1073741830	; 0x40000006
    1038:	02199f08 	andseq	r9, r9, #8, 30
    103c:	0305007d 	movweq	r0, #20605	; 0x507d
    1040:	00008fec 	andeq	r8, r0, ip, ror #31
    1044:	88701a00 	ldmdahi	r0!, {r9, fp, ip}^
    1048:	0a620000 	beq	1881050 <__bss_end__+0x1877b50>
    104c:	90180000 	andsls	r0, r8, r0
    1050:	e2000088 	and	r0, r0, #136	; 0x88
    1054:	2d000006 	stccs	0, cr0, [r0, #-24]	; 0xffffffe8
    1058:	19000004 	stmdbne	r0, {r2}
    105c:	40015001 	andmi	r5, r1, r1
    1060:	03510119 	cmpeq	r1, #1073741830	; 0x40000006
    1064:	197dd091 	ldmdbne	sp!, {r0, r4, r7, ip, lr, pc}^
    1068:	08025201 	stmdaeq	r2, {r0, r9, ip, lr}
    106c:	53011980 	movwpl	r1, #6528	; 0x1980
    1070:	19007702 	stmdbne	r0, {r1, r8, r9, sl, ip, sp, lr}
    1074:	02007d02 	andeq	r7, r0, #2, 26	; 0x80
    1078:	02190075 	andseq	r0, r9, #117	; 0x75
    107c:	7602047d 			; <UNDEFINED> instruction: 0x7602047d
    1080:	b0180000 	andslt	r0, r8, r0
    1084:	e2000088 	and	r0, r0, #136	; 0x88
    1088:	61000006 	tstvs	r0, r6
    108c:	19000004 	stmdbne	r0, {r2}
    1090:	40015001 	andmi	r5, r1, r1
    1094:	03510119 	cmpeq	r1, #1073741830	; 0x40000006
    1098:	197ed091 	ldmdbne	lr!, {r0, r4, r7, ip, lr, pc}^
    109c:	08025201 	stmdaeq	r2, {r0, r9, ip, lr}
    10a0:	53011980 	movwpl	r1, #6528	; 0x1980
    10a4:	19007a02 	stmdbne	r0, {r1, r9, fp, ip, sp, lr}
    10a8:	02007d02 	andeq	r7, r0, #2, 26	; 0x80
    10ac:	02190075 	andseq	r0, r9, #117	; 0x75
    10b0:	7602047d 			; <UNDEFINED> instruction: 0x7602047d
    10b4:	bc180000 	ldclt	0, cr0, [r8], {-0}
    10b8:	6e000088 	cdpvs	0, 0, cr0, cr0, cr8, {4}
    10bc:	7d00000a 	stcvc	0, cr0, [r0, #-40]	; 0xffffffd8
    10c0:	19000004 	stmdbne	r0, {r2}
    10c4:	91035001 	tstls	r3, r1
    10c8:	01197dd0 			; <UNDEFINED> instruction: 0x01197dd0
    10cc:	d2910351 	addsle	r0, r1, #1140850689	; 0x44000001
    10d0:	d018007e 	andsle	r0, r8, lr, ror r0
    10d4:	6e000088 	cdpvs	0, 0, cr0, cr0, cr8, {4}
    10d8:	9900000a 	stmdbls	r0, {r1, r3}
    10dc:	19000004 	stmdbne	r0, {r2}
    10e0:	91035001 	tstls	r3, r1
    10e4:	01197dd0 			; <UNDEFINED> instruction: 0x01197dd0
    10e8:	d0910351 	addsle	r0, r1, r1, asr r3
    10ec:	f018007e 			; <UNDEFINED> instruction: 0xf018007e
    10f0:	3e000088 	cdpcc	0, 0, cr0, cr0, cr8, {4}
    10f4:	cf00000a 	svcgt	0x0000000a
    10f8:	19000004 	stmdbne	r0, {r2}
    10fc:	03055001 	movweq	r5, #20481	; 0x5001
    1100:	00009028 	andeq	r9, r0, r8, lsr #32
    1104:	05510119 	ldrbeq	r0, [r1, #-281]	; 0xfffffee7
    1108:	008f7003 	addeq	r7, pc, r3
    110c:	52011900 	andpl	r1, r1, #0, 18
    1110:	90e00305 	rscls	r0, r0, r5, lsl #6
    1114:	01190000 	tsteq	r9, r0
    1118:	b6080253 			; <UNDEFINED> instruction: 0xb6080253
    111c:	007d0219 	rsbseq	r0, sp, r9, lsl r2
    1120:	00007602 	andeq	r7, r0, r2, lsl #12
    1124:	0088f41a 	addeq	pc, r8, sl, lsl r4	; <UNPREDICTABLE>
    1128:	000a6200 	andeq	r6, sl, r0, lsl #4
    112c:	b4180000 	ldrlt	r0, [r8], #-0
    1130:	60000086 	andvs	r0, r0, r6, lsl #1
    1134:	ed000009 	stc	0, cr0, [r0, #-36]	; 0xffffffdc
    1138:	19000004 	stmdbne	r0, {r2}
    113c:	77025001 	strvc	r5, [r2, -r1]
    1140:	4c180000 	ldcmi	0, cr0, [r8], {-0}
    1144:	3e000087 	cdpcc	0, 0, cr0, cr0, cr7, {4}
    1148:	2600000a 	strcs	r0, [r0], -sl
    114c:	19000005 	stmdbne	r0, {r0, r2}
    1150:	03055001 	movweq	r5, #20481	; 0x5001
    1154:	00008f84 	andeq	r8, r0, r4, lsl #31
    1158:	05510119 	ldrbeq	r0, [r1, #-281]	; 0xfffffee7
    115c:	008f7003 	addeq	r7, pc, r3
    1160:	52011900 	andpl	r1, r1, #0, 18
    1164:	90e00305 	rscls	r0, r0, r5, lsl #6
    1168:	01190000 	tsteq	r9, r0
    116c:	98080253 	stmdals	r8, {r0, r1, r4, r6, r9}
    1170:	007d0219 	rsbseq	r0, sp, r9, lsl r2
    1174:	8fc80305 	svchi	0x00c80305
    1178:	1a000000 	bne	1180 <__code_start__-0x6e80>
    117c:	00008750 	andeq	r8, r0, r0, asr r7
    1180:	00000a62 	andeq	r0, r0, r2, ror #20
    1184:	00890818 	addeq	r0, r9, r8, lsl r8
    1188:	000a3e00 	andeq	r3, sl, r0, lsl #28
    118c:	00055e00 	andeq	r5, r5, r0, lsl #28
    1190:	50011900 	andpl	r1, r1, r0, lsl #18
    1194:	90500305 	subsls	r0, r0, r5, lsl #6
    1198:	01190000 	tsteq	r9, r0
    119c:	70030551 	andvc	r0, r3, r1, asr r5
    11a0:	1900008f 	stmdbne	r0, {r0, r1, r2, r3, r7}
    11a4:	03055201 	movweq	r5, #20993	; 0x5201
    11a8:	000090e0 	andeq	r9, r0, r0, ror #1
    11ac:	02530119 	subseq	r0, r3, #1073741830	; 0x40000006
    11b0:	1a00be08 	bne	309d8 <__bss_end__+0x274d8>
    11b4:	0000890c 	andeq	r8, r0, ip, lsl #18
    11b8:	00000a62 	andeq	r0, r0, r2, ror #20
    11bc:	00893818 	addeq	r3, r9, r8, lsl r8
    11c0:	0006e200 	andeq	lr, r6, r0, lsl #4
    11c4:	00059400 	andeq	r9, r5, r0, lsl #8
    11c8:	50011900 	andpl	r1, r1, r0, lsl #18
    11cc:	01193a01 	tsteq	r9, r1, lsl #20
    11d0:	d0910351 	addsle	r0, r1, r1, asr r3
    11d4:	5201197d 	andpl	r1, r1, #2048000	; 0x1f4000
    11d8:	19800802 	stmibne	r0, {r1, fp}
    11dc:	02007d02 	andeq	r7, r0, #2, 26	; 0x80
    11e0:	02190075 	andseq	r0, r9, #117	; 0x75
    11e4:	3101047d 	tstcc	r1, sp, ror r4
    11e8:	89701800 	ldmdbhi	r0!, {fp, ip}^
    11ec:	06e20000 	strbteq	r0, [r2], r0
    11f0:	05c10000 	strbeq	r0, [r1]
    11f4:	01190000 	tsteq	r9, r0
    11f8:	193a0150 	ldmdbne	sl!, {r4, r6, r8}
    11fc:	91035101 	tstls	r3, r1, lsl #2
    1200:	01197dd0 			; <UNDEFINED> instruction: 0x01197dd0
    1204:	80080252 	andhi	r0, r8, r2, asr r2
    1208:	007d0219 	rsbseq	r0, sp, r9, lsl r2
    120c:	19007502 	stmdbne	r0, {r1, r8, sl, ip, sp, lr}
    1210:	01047d02 	tsteq	r4, r2, lsl #26
    1214:	a4180030 	ldrge	r0, [r8], #-48	; 0xffffffd0
    1218:	e2000089 	and	r0, r0, #137	; 0x89
    121c:	ee000006 	cdp	0, 0, cr0, cr0, cr6, {0}
    1220:	19000005 	stmdbne	r0, {r0, r2}
    1224:	40015001 	andmi	r5, r1, r1
    1228:	03510119 	cmpeq	r1, #1073741830	; 0x40000006
    122c:	197dd091 	ldmdbne	sp!, {r0, r4, r7, ip, lr, pc}^
    1230:	08025201 	stmdaeq	r2, {r0, r9, ip, lr}
    1234:	7d021980 	vstrvc.16	s2, [r2, #-256]	; 0xffffff00	; <UNPREDICTABLE>
    1238:	00750200 	rsbseq	r0, r5, r0, lsl #4
    123c:	047d0219 	ldrbteq	r0, [sp], #-537	; 0xfffffde7
    1240:	18003001 	stmdane	r0, {r0, ip, sp}
    1244:	000089d8 	ldrdeq	r8, [r0], -r8	; <UNPREDICTABLE>
    1248:	000006e2 	andeq	r0, r0, r2, ror #13
    124c:	0000061b 	andeq	r0, r0, fp, lsl r6
    1250:	01500119 	cmpeq	r0, r9, lsl r1
    1254:	51011932 	tstpl	r1, r2, lsr r9
    1258:	7dd09103 	ldfvcp	f1, [r0, #12]
    125c:	02520119 	subseq	r0, r2, #1073741830	; 0x40000006
    1260:	02198008 	andseq	r8, r9, #8
    1264:	7502007d 	strvc	r0, [r2, #-125]	; 0xffffff83
    1268:	7d021900 	vstrvc.16	s2, [r2, #-0]	; <UNPREDICTABLE>
    126c:	00300104 	eorseq	r0, r0, r4, lsl #2
    1270:	008a2018 	addeq	r2, sl, r8, lsl r0
    1274:	0006e200 	andeq	lr, r6, r0, lsl #4
    1278:	00064800 	andeq	r4, r6, r0, lsl #16
    127c:	50011900 	andpl	r1, r1, r0, lsl #18
    1280:	01193801 	tsteq	r9, r1, lsl #16
    1284:	d0910351 	addsle	r0, r1, r1, asr r3
    1288:	5201197d 	andpl	r1, r1, #2048000	; 0x1f4000
    128c:	19800802 	stmibne	r0, {r1, fp}
    1290:	02007d02 	andeq	r7, r0, #2, 26	; 0x80
    1294:	02190075 	andseq	r0, r9, #117	; 0x75
    1298:	3001047d 	andcc	r0, r1, sp, ror r4
    129c:	8a401800 	bhi	10072a4 <__bss_end__+0xffdda4>
    12a0:	0a3e0000 	beq	f812a8 <__bss_end__+0xf77da8>
    12a4:	066b0000 	strbteq	r0, [fp], -r0
    12a8:	01190000 	tsteq	r9, r0
    12ac:	78030550 	stmdavc	r3, {r4, r6, r8, sl}
    12b0:	19000090 	stmdbne	r0, {r4, r7}
    12b4:	77025101 	strvc	r5, [r2, -r1, lsl #2]
    12b8:	52011900 	andpl	r1, r1, #0, 18
    12bc:	00007702 	andeq	r7, r0, r2, lsl #14
    12c0:	008a501b 	addeq	r5, sl, fp, lsl r0
    12c4:	00067d00 	andeq	r7, r6, r0, lsl #26
    12c8:	50011900 	andpl	r1, r1, r0, lsl #18
    12cc:	7dc89104 	stfvcp	f1, [r8, #16]
    12d0:	64180006 	ldrvs	r0, [r8], #-6
    12d4:	3e00008a 	cdpcc	0, 0, cr0, cr0, cr10, {4}
    12d8:	ac00000a 	stcge	0, cr0, [r0], {10}
    12dc:	19000006 	stmdbne	r0, {r1, r2}
    12e0:	03055001 	movweq	r5, #20481	; 0x5001
    12e4:	000090a8 	andeq	r9, r0, r8, lsr #1
    12e8:	05510119 	ldrbeq	r0, [r1, #-281]	; 0xfffffee7
    12ec:	008f7003 	addeq	r7, pc, r3
    12f0:	52011900 	andpl	r1, r1, #0, 18
    12f4:	90e00305 	rscls	r0, r0, r5, lsl #6
    12f8:	01190000 	tsteq	r9, r0
    12fc:	e2080253 	and	r0, r8, #805306373	; 0x30000005
    1300:	8a681a00 	bhi	1a07b08 <__bss_end__+0x19fe608>
    1304:	0a620000 	beq	188130c <__bss_end__+0x1877e0c>
    1308:	00000000 	andeq	r0, r0, r0
    130c:	00b90408 	adcseq	r0, r9, r8, lsl #8
    1310:	c01c0000 	andsgt	r0, ip, r0
    1314:	cd000000 	stcgt	0, cr0, [r0, #-0]
    1318:	1d000006 	stcne	0, cr0, [r0, #-24]	; 0xffffffe8
    131c:	0000002c 	andeq	r0, r0, ip, lsr #32
    1320:	bd090009 	stclt	0, cr0, [r9, #-36]	; 0xffffffdc
    1324:	1c000006 	stcne	0, cr0, [r0], {6}
    1328:	000000b9 	strheq	r0, [r0], -r9
    132c:	000006e2 	andeq	r0, r0, r2, ror #13
    1330:	00002c1d 	andeq	r2, r0, sp, lsl ip
    1334:	1e007f00 	cdpne	15, 0, cr7, cr0, cr0, {0}
    1338:	00000436 	andeq	r0, r0, r6, lsr r4
    133c:	b7014901 	strlt	r4, [r1, -r1, lsl #18]
    1340:	08000006 	stmdaeq	r0, {r1, r2}
    1344:	b4000084 	strlt	r0, [r0], #-132	; 0xffffff7c
    1348:	01000001 	tsteq	r0, r1
    134c:	00084b9c 	muleq	r8, ip, fp
    1350:	045f1f00 	ldrbeq	r1, [pc], #-3840	; 1358 <__code_start__-0x6ca8>
    1354:	49010000 	stmdbmi	r1, {}	; <UNPREDICTABLE>
    1358:	00002c0f 	andeq	r2, r0, pc, lsl #24
    135c:	0009dd00 	andeq	sp, r9, r0, lsl #26
    1360:	0009d700 	andeq	sp, r9, r0, lsl #14
    1364:	73640e00 	cmnvc	r4, #0, 28
    1368:	49010074 	stmdbmi	r1, {r2, r4, r5, r6}
    136c:	0006b71b 	andeq	fp, r6, fp, lsl r7
    1370:	000a1b00 	andeq	r1, sl, r0, lsl #22
    1374:	000a0b00 	andeq	r0, sl, r0, lsl #22
    1378:	006e0e00 	rsbeq	r0, lr, r0, lsl #28
    137c:	25244901 	strcs	r4, [r4, #-2305]!	; 0xfffff6ff
    1380:	7f000000 	svcvc	0x00000000
    1384:	7b00000a 	blvc	13b4 <__code_start__-0x6c4c>
    1388:	0e00000a 	cdpeq	0, 0, cr0, cr0, cr10, {0}
    138c:	006c6176 	rsbeq	r6, ip, r6, ror r1
    1390:	252b4901 	strcs	r4, [fp, #-2305]!	; 0xfffff6ff
    1394:	a9000000 	stmdbge	r0, {}	; <UNPREDICTABLE>
    1398:	9d00000a 	stcls	0, cr0, [r0, #-40]	; 0xffffffd8
    139c:	1f00000a 	svcne	0x0000000a
    13a0:	000003ee 	andeq	r0, r0, lr, ror #7
    13a4:	25344901 	ldrcs	r4, [r4, #-2305]!	; 0xfffff6ff
    13a8:	ff000000 			; <UNDEFINED> instruction: 0xff000000
    13ac:	f900000a 			; <UNDEFINED> instruction: 0xf900000a
    13b0:	0f00000a 	svceq	0x0000000a
    13b4:	00000464 	andeq	r0, r0, r4, ror #8
    13b8:	253f4901 	ldrcs	r4, [pc, #-2305]!	; abf <__code_start__-0x7541>
    13bc:	02000000 	andeq	r0, r0, #0
    13c0:	62140491 	andsvs	r0, r4, #-1862270976	; 0x91000000
    13c4:	01006675 	tsteq	r0, r5, ror r6
    13c8:	084b074e 	stmdaeq	fp, {r1, r2, r3, r6, r8, r9, sl}^
    13cc:	91030000 	mrsls	r0, (UNDEF: 3)
    13d0:	70107fa8 	andsvc	r7, r0, r8, lsr #31
    13d4:	114e0100 	mrsne	r0, (UNDEF: 94)
    13d8:	000006b7 			; <UNDEFINED> instruction: 0x000006b7
    13dc:	00000b47 	andeq	r0, r0, r7, asr #22
    13e0:	00000b29 	andeq	r0, r0, r9, lsr #22
    13e4:	01007510 	tsteq	r0, r0, lsl r5
    13e8:	002c0b4f 	eoreq	r0, ip, pc, asr #22
    13ec:	0c220000 	stceq	0, cr0, [r2], #-0
    13f0:	0c0e0000 	stceq	0, cr0, [lr], {-0}
    13f4:	f4120000 			; <UNDEFINED> instruction: 0xf4120000
    13f8:	6b000003 	blvs	140c <__code_start__-0x6bf4>
    13fc:	05000008 	streq	r0, [r0, #-8]
    1400:	0090c803 	addseq	ip, r0, r3, lsl #16
    1404:	84741600 	ldrbthi	r1, [r4], #-1536	; 0xfffffa00
    1408:	00780000 	rsbseq	r0, r8, r0
    140c:	07d20000 	ldrbeq	r0, [r2, r0]
    1410:	30110000 	andscc	r0, r1, r0
    1414:	01000004 	tsteq	r0, r4
    1418:	002c0d54 	eoreq	r0, ip, r4, asr sp
    141c:	0ca30000 	stceq	0, cr0, [r3]
    1420:	0c9b0000 	ldceq	0, cr0, [fp], {0}
    1424:	18000000 	stmdane	r0, {}	; <UNPREDICTABLE>
    1428:	0000852c 	andeq	r8, r0, ip, lsr #10
    142c:	000008fd 	strdeq	r0, [r0], -sp
    1430:	000007e7 	andeq	r0, r0, r7, ror #15
    1434:	03510119 	cmpeq	r1, #1073741830	; 0x40000006
    1438:	007fa091 			; <UNDEFINED> instruction: 0x007fa091
    143c:	00854018 	addeq	r4, r5, r8, lsl r0
    1440:	00087000 	andeq	r7, r8, r0
    1444:	00080800 	andeq	r0, r8, r0, lsl #16
    1448:	50011900 	andpl	r1, r1, r0, lsl #18
    144c:	19007502 	stmdbne	r0, {r1, r8, sl, ip, sp, lr}
    1450:	74025101 	strvc	r5, [r2], #-257	; 0xfffffeff
    1454:	53011900 	movwpl	r1, #6400	; 0x1900
    1458:	7fa09103 	svcvc	0x00a09103
    145c:	85981800 	ldrhi	r1, [r8, #2048]	; 0x800
    1460:	0a3e0000 	beq	f81468 <__bss_end__+0xf77f68>
    1464:	08410000 	stmdaeq	r1, {}^	; <UNPREDICTABLE>
    1468:	01190000 	tsteq	r9, r0
    146c:	84030550 	strhi	r0, [r3], #-1360	; 0xfffffab0
    1470:	1900008f 	stmdbne	r0, {r0, r1, r2, r3, r7}
    1474:	03055101 	movweq	r5, #20737	; 0x5101
    1478:	00008f70 	andeq	r8, r0, r0, ror pc
    147c:	05520119 	ldrbeq	r0, [r2, #-281]	; 0xfffffee7
    1480:	0090c803 	addseq	ip, r0, r3, lsl #16
    1484:	53011900 	movwpl	r1, #6400	; 0x1900
    1488:	19790802 	ldmdbne	r9!, {r1, fp}^
    148c:	05007d02 	streq	r7, [r0, #-3330]	; 0xfffff2fe
    1490:	008f9803 	addeq	r9, pc, r3, lsl #16
    1494:	9c1a0000 	ldcls	0, cr0, [sl], {-0}
    1498:	62000085 	andvs	r0, r0, #133	; 0x85
    149c:	0000000a 	andeq	r0, r0, sl
    14a0:	0000b91c 	andeq	fp, r0, ip, lsl r9
    14a4:	00085b00 	andeq	r5, r8, r0, lsl #22
    14a8:	002c1d00 	eoreq	r1, ip, r0, lsl #26
    14ac:	003f0000 	eorseq	r0, pc, r0
    14b0:	0000c01c 	andeq	ip, r0, ip, lsl r0
    14b4:	00086b00 	andeq	r6, r8, r0, lsl #22
    14b8:	002c1d00 	eoreq	r1, ip, r0, lsl #26
    14bc:	00040000 	andeq	r0, r4, r0
    14c0:	00085b09 	andeq	r5, r8, r9, lsl #22
    14c4:	04431e00 	strbeq	r1, [r3], #-3584	; 0xfffff200
    14c8:	38010000 	stmdacc	r1, {}	; <UNPREDICTABLE>
    14cc:	0006b70e 	andeq	fp, r6, lr, lsl #14
    14d0:	0083cc00 	addeq	ip, r3, r0, lsl #24
    14d4:	00003c00 	andeq	r3, r0, r0, lsl #24
    14d8:	fd9c0100 	ldc2	1, cr0, [ip]
    14dc:	0e000008 	cdpeq	0, 0, cr0, cr0, cr8, {0}
    14e0:	00747364 	rsbseq	r7, r4, r4, ror #6
    14e4:	b71c3801 	ldrlt	r3, [ip, -r1, lsl #16]
    14e8:	e4000006 	str	r0, [r0], #-6
    14ec:	da00000c 	ble	1524 <__code_start__-0x6adc>
    14f0:	0e00000c 	cdpeq	0, 0, cr0, cr0, cr12, {0}
    14f4:	3801006e 	stmdacc	r1, {r1, r2, r3, r5, r6}
    14f8:	00002525 	andeq	r2, r0, r5, lsr #10
    14fc:	000d2b00 	andeq	r2, sp, r0, lsl #22
    1500:	000d2700 	andeq	r2, sp, r0, lsl #14
    1504:	00700e00 	rsbseq	r0, r0, r0, lsl #28
    1508:	b72e3801 	strlt	r3, [lr, -r1, lsl #16]!
    150c:	54000006 	strpl	r0, [r0], #-6
    1510:	4c00000d 	stcmi	0, cr0, [r0], {13}
    1514:	1f00000d 	svcne	0x0000000d
    1518:	0000041c 	andeq	r0, r0, ip, lsl r4
    151c:	b7373801 	ldrlt	r3, [r7, -r1, lsl #16]!
    1520:	8e000006 	cdphi	0, 0, cr0, cr0, cr6, {0}
    1524:	8a00000d 	bhi	1560 <__code_start__-0x6aa0>
    1528:	1000000d 	andne	r0, r0, sp
    152c:	006e656c 	rsbeq	r6, lr, ip, ror #10
    1530:	25063a01 	strcs	r3, [r6, #-2561]	; 0xfffff5ff
    1534:	b6000000 	strlt	r0, [r0], -r0
    1538:	ac00000d 	stcge	0, cr0, [r0], {13}
    153c:	1000000d 	andne	r0, r0, sp
    1540:	3e010073 	mcrcc	0, 0, r0, cr1, cr3, {3}
    1544:	0006b708 	andeq	fp, r6, r8, lsl #14
    1548:	000e1700 	andeq	r1, lr, r0, lsl #14
    154c:	000e1500 	andeq	r1, lr, r0, lsl #10
    1550:	70200000 	eorvc	r0, r0, r0
    1554:	01006461 	tsteq	r0, r1, ror #8
    1558:	06b70e2e 	ldrteq	r0, [r7], lr, lsr #28
    155c:	83a40000 			; <UNDEFINED> instruction: 0x83a40000
    1560:	00280000 	eoreq	r0, r8, r0
    1564:	9c010000 	stcls	0, cr0, [r1], {-0}
    1568:	00000960 	andeq	r0, r0, r0, ror #18
    156c:	0100700e 	tsteq	r0, lr
    1570:	06b7182e 	ldrteq	r1, [r7], lr, lsr #16
    1574:	0e300000 	cdpeq	0, 3, cr0, cr0, cr0, {0}
    1578:	0e2a0000 	cdpeq	0, 2, cr0, cr10, cr0, {0}
    157c:	5f1f0000 	svcpl	0x001f0000
    1580:	01000004 	tsteq	r0, r4
    1584:	06b7222e 	ldrteq	r2, [r7], lr, lsr #4
    1588:	0e5f0000 	cdpeq	0, 5, cr0, cr15, cr0, {0}
    158c:	0e5b0000 	cdpeq	0, 5, cr0, cr11, cr0, {0}
    1590:	ee0f0000 	cdp	0, 0, cr0, cr15, cr0, {0}
    1594:	01000003 	tsteq	r0, r3
    1598:	00252c2e 	eoreq	r2, r5, lr, lsr #24
    159c:	52010000 	andpl	r0, r1, #0
    15a0:	6e656c10 	mcrvs	12, 3, r6, cr5, cr0, {0}
    15a4:	062f0100 	strteq	r0, [pc], -r0, lsl #2
    15a8:	00000025 	andeq	r0, r0, r5, lsr #32
    15ac:	00000e82 	andeq	r0, r0, r2, lsl #29
    15b0:	00000e80 	andeq	r0, r0, r0, lsl #29
    15b4:	03ca1e00 	biceq	r1, sl, #0, 28
    15b8:	27010000 	strcs	r0, [r1, -r0]
    15bc:	0000250c 	andeq	r2, r0, ip, lsl #10
    15c0:	00839000 	addeq	r9, r3, r0
    15c4:	00001400 	andeq	r1, r0, r0, lsl #8
    15c8:	8d9c0100 	ldfhis	f0, [ip]
    15cc:	0e000009 	cdpeq	0, 0, cr0, cr0, cr9, {0}
    15d0:	27010063 	strcs	r0, [r1, -r3, rrx]
    15d4:	00002518 	andeq	r2, r0, r8, lsl r5
    15d8:	000e9b00 	andeq	r9, lr, r0, lsl #22
    15dc:	000e9500 	andeq	r9, lr, r0, lsl #10
    15e0:	09210000 	stmdbeq	r1!, {}	; <UNPREDICTABLE>
    15e4:	01000004 	tsteq	r0, r4
    15e8:	85bc061f 	ldrhi	r0, [ip, #1567]!	; 0x61f
    15ec:	00640000 	rsbeq	r0, r4, r0
    15f0:	9c010000 	stcls	0, cr0, [r1], {-0}
    15f4:	00000a1d 	andeq	r0, r0, sp, lsl sl
    15f8:	0004011f 	andeq	r0, r4, pc, lsl r1
    15fc:	1b1f0100 	blne	7c1a04 <__bss_end__+0x7b8504>
    1600:	0000009e 	muleq	r0, lr, r0
    1604:	00000ecd 	andeq	r0, r0, sp, asr #29
    1608:	00000ec9 	andeq	r0, r0, r9, asr #29
    160c:	00043b1f 	andeq	r3, r4, pc, lsl fp
    1610:	301f0100 	andscc	r0, pc, r0, lsl #2
    1614:	000000d1 	ldrdeq	r0, [r0], -r1
    1618:	00000ef2 	strdeq	r0, [r0], -r2
    161c:	00000eee 	andeq	r0, r0, lr, ror #29
    1620:	0003f412 	andeq	pc, r3, r2, lsl r4	; <UNPREDICTABLE>
    1624:	000a2d00 	andeq	r2, sl, r0, lsl #26
    1628:	d0030500 	andle	r0, r3, r0, lsl #10
    162c:	18000090 	stmdane	r0, {r4, r7}
    1630:	00008604 	andeq	r8, r0, r4, lsl #12
    1634:	00000a3e 	andeq	r0, r0, lr, lsr sl
    1638:	00000a13 	andeq	r0, r0, r3, lsl sl
    163c:	05500119 	ldrbeq	r0, [r0, #-281]	; 0xfffffee7
    1640:	008f8403 	addeq	r8, pc, r3, lsl #8
    1644:	51011900 	tstpl	r1, r0, lsl #18
    1648:	8f700305 	svchi	0x00700305
    164c:	01190000 	tsteq	r9, r0
    1650:	d0030552 	andle	r0, r3, r2, asr r5
    1654:	19000090 	stmdbne	r0, {r4, r7}
    1658:	08025301 	stmdaeq	r2, {r0, r8, r9, ip, lr}
    165c:	7d021920 	vstrvc.16	s2, [r2, #-64]	; 0xffffffc0	; <UNPREDICTABLE>
    1660:	c0030500 	andgt	r0, r3, r0, lsl #10
    1664:	0000008f 	andeq	r0, r0, pc, lsl #1
    1668:	0086081a 	addeq	r0, r6, sl, lsl r8
    166c:	000a6200 	andeq	r6, sl, r0, lsl #4
    1670:	c01c0000 	andsgt	r0, ip, r0
    1674:	2d000000 	stccs	0, cr0, [r0, #-0]
    1678:	1d00000a 	stcne	0, cr0, [r0, #-40]	; 0xffffffd8
    167c:	0000002c 	andeq	r0, r0, ip, lsr #32
    1680:	1d09000e 	stcne	0, cr0, [r9, #-56]	; 0xffffffc8
    1684:	2200000a 	andcs	r0, r0, #10
    1688:	00000457 	andeq	r0, r0, r7, asr r4
    168c:	00000457 	andeq	r0, r0, r7, asr r4
    1690:	2205eb03 	andcs	lr, r5, #3072	; 0xc00
    1694:	00000325 	andeq	r0, r0, r5, lsr #6
    1698:	00000325 	andeq	r0, r0, r5, lsr #6
    169c:	22062803 	andcs	r2, r6, #196608	; 0x30000
    16a0:	0000044b 	andeq	r0, r0, fp, asr #8
    16a4:	0000044b 	andeq	r0, r0, fp, asr #8
    16a8:	2205ea03 	andcs	lr, r5, #12288	; 0x3000
    16ac:	00000429 	andeq	r0, r0, r9, lsr #8
    16b0:	00000429 	andeq	r0, r0, r9, lsr #8
    16b4:	2207ed03 	andcs	lr, r7, #3, 26	; 0xc0
    16b8:	00000084 	andeq	r0, r0, r4, lsl #1
    16bc:	00000084 	andeq	r0, r0, r4, lsl #1
    16c0:	22066e03 	andcs	r6, r6, #3, 28	; 0x30
    16c4:	00000422 	andeq	r0, r0, r2, lsr #8
    16c8:	00000422 	andeq	r0, r0, r2, lsr #8
    16cc:	0007ee03 	andeq	lr, r7, r3, lsl #28
    16d0:	0000010e 	andeq	r0, r0, lr, lsl #2
    16d4:	086a0004 	stmdaeq	sl!, {r2}^
    16d8:	01040000 	mrseq	r0, (UNDEF: 4)
    16dc:	000000db 	ldrdeq	r0, [r0], -fp
    16e0:	0004810c 	andeq	r8, r4, ip, lsl #2
    16e4:	0001e200 	andeq	lr, r1, r0, lsl #4
    16e8:	008ad800 	addeq	sp, sl, r0, lsl #16
    16ec:	00002c00 	andeq	r2, r0, r0, lsl #24
    16f0:	000ca200 	andeq	sl, ip, r0, lsl #4
    16f4:	05040200 	streq	r0, [r4, #-512]	; 0xfffffe00
    16f8:	00746e69 	rsbseq	r6, r4, r9, ror #28
    16fc:	86070403 	strhi	r0, [r7], -r3, lsl #8
    1700:	03000001 	movweq	r0, #1
    1704:	00700601 	rsbseq	r0, r0, r1, lsl #12
    1708:	02030000 	andeq	r0, r3, #0
    170c:	0001ad05 	andeq	sl, r1, r5, lsl #26
    1710:	05040300 	streq	r0, [r4, #-768]	; 0xfffffd00
    1714:	0000019f 	muleq	r0, pc, r1	; <UNPREDICTABLE>
    1718:	9a050803 	bls	14372c <__bss_end__+0x13a22c>
    171c:	03000001 	movweq	r0, #1
    1720:	006e0801 	rsbeq	r0, lr, r1, lsl #16
    1724:	02030000 	andeq	r0, r3, #0
    1728:	00009f07 	andeq	r9, r0, r7, lsl #30
    172c:	07040300 	streq	r0, [r4, -r0, lsl #6]
    1730:	00000181 	andeq	r0, r0, r1, lsl #3
    1734:	7c070803 	stcvc	8, cr0, [r7], {3}
    1738:	04000001 	streq	r0, [r0], #-1
    173c:	00000025 	andeq	r0, r0, r5, lsr #32
    1740:	0000007a 	andeq	r0, r0, sl, ror r0
    1744:	00007a05 	andeq	r7, r0, r5, lsl #20
    1748:	04060000 	streq	r0, [r6], #-0
    174c:	00000087 	andeq	r0, r0, r7, lsl #1
    1750:	77080103 	strvc	r0, [r8, -r3, lsl #2]
    1754:	07000000 	streq	r0, [r0, -r0]
    1758:	00000080 	andeq	r0, r0, r0, lsl #1
    175c:	00036308 	andeq	r6, r3, r8, lsl #6
    1760:	0e210200 	cdpeq	2, 2, cr0, cr1, cr0, {0}
    1764:	00000098 	muleq	r0, r8, r0
    1768:	006b0406 	rsbeq	r0, fp, r6, lsl #8
    176c:	84090000 	strhi	r0, [r9], #-0
    1770:	01000000 	mrseq	r0, (UNDEF: 0)
    1774:	8ad80604 	bhi	ff602f8c <__bss_end__+0xff5f9a8c>
    1778:	002c0000 	eoreq	r0, ip, r0
    177c:	9c010000 	stcls	0, cr0, [r1], {-0}
    1780:	000000ed 	andeq	r0, r0, sp, ror #1
    1784:	008aec0a 	addeq	lr, sl, sl, lsl #24
    1788:	0000c700 	andeq	ip, r0, r0, lsl #14
    178c:	50010b00 	andpl	r0, r1, r0, lsl #22
    1790:	90ec0305 	rscls	r0, ip, r5, lsl #6
    1794:	0c000000 	stceq	0, cr0, [r0], {-0}
    1798:	00008af0 	strdeq	r8, [r0], -r0
    179c:	000000ed 	andeq	r0, r0, sp, ror #1
    17a0:	008af80d 	addeq	pc, sl, sp, lsl #16
    17a4:	0000f900 	andeq	pc, r0, r0, lsl #18
    17a8:	0000e300 	andeq	lr, r0, r0, lsl #6
    17ac:	50010b00 	andpl	r0, r1, r0, lsl #22
    17b0:	0c003a01 			; <UNDEFINED> instruction: 0x0c003a01
    17b4:	00008afc 	strdeq	r8, [r0], -ip
    17b8:	00000105 	andeq	r0, r0, r5, lsl #2
    17bc:	049c0e00 	ldreq	r0, [ip], #3584	; 0xe00
    17c0:	049c0000 	ldreq	r0, [ip], #0
    17c4:	4d020000 	stcmi	0, cr0, [r2, #-0]
    17c8:	04780e06 	ldrbteq	r0, [r8], #-3590	; 0xfffff1fa
    17cc:	04780000 	ldrbteq	r0, [r8], #-0
    17d0:	58020000 	stmdapl	r2, {}	; <UNPREDICTABLE>
    17d4:	046d0e06 	strbteq	r0, [sp], #-3590	; 0xfffff1fa
    17d8:	046d0000 	strbteq	r0, [sp], #-0
    17dc:	6b020000 	blvs	817e4 <__bss_end__+0x782e4>
    17e0:	013c0006 	teqeq	ip, r6
    17e4:	00040000 	andeq	r0, r4, r0
    17e8:	0000092a 	andeq	r0, r0, sl, lsr #18
    17ec:	00db0104 	sbcseq	r0, fp, r4, lsl #2
    17f0:	e00c0000 	and	r0, ip, r0
    17f4:	e2000004 	and	r0, r0, #4
    17f8:	04000001 	streq	r0, [r0], #-1
    17fc:	4000008b 	andmi	r0, r0, fp, lsl #1
    1800:	31000000 	mrscc	r0, (UNDEF: 0)
    1804:	0200000d 	andeq	r0, r0, #13
    1808:	6e690504 	cdpvs	5, 6, cr0, cr9, cr4, {0}
    180c:	04030074 	streq	r0, [r3], #-116	; 0xffffff8c
    1810:	00018607 	andeq	r8, r1, r7, lsl #12
    1814:	06010300 	streq	r0, [r1], -r0, lsl #6
    1818:	00000070 	andeq	r0, r0, r0, ror r0
    181c:	ad050203 	sfmge	f0, 4, [r5, #-12]
    1820:	03000001 	movweq	r0, #1
    1824:	019f0504 	orrseq	r0, pc, r4, lsl #10
    1828:	08030000 	stmdaeq	r3, {}	; <UNPREDICTABLE>
    182c:	00019a05 	andeq	r9, r1, r5, lsl #20
    1830:	08010300 	stmdaeq	r1, {r8, r9}
    1834:	0000006e 	andeq	r0, r0, lr, rrx
    1838:	9f070203 	svcls	0x00070203
    183c:	03000000 	movweq	r0, #0
    1840:	01810704 	orreq	r0, r1, r4, lsl #14
    1844:	08030000 	stmdaeq	r3, {}	; <UNPREDICTABLE>
    1848:	00017c07 	andeq	r7, r1, r7, lsl #24
    184c:	08010300 	stmdaeq	r1, {r8, r9}
    1850:	00000077 	andeq	r0, r0, r7, ror r0
    1854:	0004b804 	andeq	fp, r4, r4, lsl #16
    1858:	06040100 	streq	r0, [r4], -r0, lsl #2
    185c:	00008b04 	andeq	r8, r0, r4, lsl #22
    1860:	00000040 	andeq	r0, r0, r0, asr #32
    1864:	01079c01 	tsteq	r7, r1, lsl #24
    1868:	aa050000 	bge	141870 <__bss_end__+0x138370>
    186c:	01000004 	tsteq	r0, r4
    1870:	00251005 	eoreq	r1, r5, r5
    1874:	f5050000 			; <UNDEFINED> instruction: 0xf5050000
    1878:	01000004 	tsteq	r0, r4
    187c:	00251f05 	eoreq	r1, r5, r5, lsl #30
    1880:	5c060000 	stcpl	0, cr0, [r6], {-0}
    1884:	01000000 	mrseq	r0, (UNDEF: 0)
    1888:	62070706 	andvs	r0, r7, #1572864	; 0x180000
    188c:	01007373 	tsteq	r0, r3, ror r3
    1890:	01070a0a 	tsteq	r7, sl, lsl #20
    1894:	0f190000 	svceq	0x00190000
    1898:	0f130000 	svceq	0x00130000
    189c:	c0080000 	andgt	r0, r8, r0
    18a0:	01000004 	tsteq	r0, r4
    18a4:	01070a0b 	tsteq	r7, fp, lsl #20
    18a8:	2c090000 	stccs	0, cr0, [r9], {-0}
    18ac:	0800008b 	stmdaeq	r0, {r0, r1, r3, r7}
    18b0:	e2000000 	and	r0, r0, #0
    18b4:	0a000000 	beq	18bc <__code_start__-0x6744>
    18b8:	01006e69 	tsteq	r0, r9, ror #28
    18bc:	002c0514 	eoreq	r0, ip, r4, lsl r5
    18c0:	00010000 	andeq	r0, r1, r0
    18c4:	008b0c0b 	addeq	r0, fp, fp, lsl #24
    18c8:	00010d00 	andeq	r0, r1, r0, lsl #26
    18cc:	8b2c0b00 	blhi	b044d4 <__bss_end__+0xafafd4>
    18d0:	011a0000 	tsteq	sl, r0
    18d4:	380b0000 	stmdacc	fp, {}	; <UNPREDICTABLE>
    18d8:	2600008b 	strcs	r0, [r0], -fp, lsl #1
    18dc:	0b000001 	bleq	18e8 <__code_start__-0x6718>
    18e0:	00008b3c 	andeq	r8, r0, ip, lsr fp
    18e4:	00000133 	andeq	r0, r0, r3, lsr r1
    18e8:	25040c00 	strcs	r0, [r4, #-3072]	; 0xfffff400
    18ec:	0d000000 	stceq	0, cr0, [r0, #-0]
    18f0:	000004d2 	ldrdeq	r0, [r0], -r2
    18f4:	000004d2 	ldrdeq	r0, [r0], -r2
    18f8:	06013102 	streq	r3, [r1], -r2, lsl #2
    18fc:	0004c80e 	andeq	ip, r4, lr, lsl #16
    1900:	0004c800 	andeq	ip, r4, r0, lsl #16
    1904:	063b0200 	ldrteq	r0, [fp], -r0, lsl #4
    1908:	00005c0d 	andeq	r5, r0, sp, lsl #24
    190c:	00005c00 	andeq	r5, r0, r0, lsl #24
    1910:	01050200 	mrseq	r0, SP_usr
    1914:	00840e06 	addeq	r0, r4, r6, lsl #28
    1918:	00840000 	addeq	r0, r4, r0
    191c:	6e020000 	cdpvs	0, 0, cr0, cr2, cr0, {0}
    1920:	01e90006 	mvneq	r0, r6
    1924:	00040000 	andeq	r0, r4, r0
    1928:	00000a0d 	andeq	r0, r0, sp, lsl #20
    192c:	00db0104 	sbcseq	r0, fp, r4, lsl #2
    1930:	270c0000 	strcs	r0, [ip, -r0]
    1934:	e2000005 	and	r0, r0, #5
    1938:	90000001 	andls	r0, r0, r1
    193c:	00000000 	andeq	r0, r0, r0
    1940:	dc000000 	stcle	0, cr0, [r0], {-0}
    1944:	0200000d 	andeq	r0, r0, #13
    1948:	6e690504 	cdpvs	5, 6, cr0, cr9, cr4, {0}
    194c:	25030074 	strcs	r0, [r3, #-116]	; 0xffffff8c
    1950:	04000000 	streq	r0, [r0], #-0
    1954:	01860704 	orreq	r0, r6, r4, lsl #14
    1958:	01040000 	mrseq	r0, (UNDEF: 4)
    195c:	00007006 	andeq	r7, r0, r6
    1960:	05020400 	streq	r0, [r2, #-1024]	; 0xfffffc00
    1964:	000001ad 	andeq	r0, r0, sp, lsr #3
    1968:	9f050404 	svcls	0x00050404
    196c:	04000001 	streq	r0, [r0], #-1
    1970:	019a0508 	orrseq	r0, sl, r8, lsl #10
    1974:	01040000 	mrseq	r0, (UNDEF: 4)
    1978:	00006e08 	andeq	r6, r0, r8, lsl #28
    197c:	07020400 	streq	r0, [r2, -r0, lsl #8]
    1980:	0000009f 	muleq	r0, pc, r0	; <UNPREDICTABLE>
    1984:	81070404 	tsthi	r7, r4, lsl #8
    1988:	04000001 	streq	r0, [r0], #-1
    198c:	017c0708 	cmneq	ip, r8, lsl #14
    1990:	01040000 	mrseq	r0, (UNDEF: 4)
    1994:	00007708 	andeq	r7, r0, r8, lsl #14
    1998:	054b0500 	strbeq	r0, [fp, #-1280]	; 0xfffffb00
    199c:	0d010000 	stceq	0, cr0, [r1, #-0]
    19a0:	00003111 	andeq	r3, r0, r1, lsl r1
    19a4:	046d0600 	strbteq	r0, [sp], #-1536	; 0xfffffa00
    19a8:	1f010000 	svcne	0x00010000
    19ac:	008b7006 	addeq	r7, fp, r6
    19b0:	00005400 	andeq	r5, r0, r0, lsl #8
    19b4:	619c0100 	orrsvs	r0, ip, r0, lsl #2
    19b8:	07000001 	streq	r0, [r0, -r1]
    19bc:	0000056f 	andeq	r0, r0, pc, ror #10
    19c0:	2c0f2c01 	stccs	12, cr2, [pc], {1}
    19c4:	46000000 	strmi	r0, [r0], -r0
    19c8:	4400000f 	strmi	r0, [r0], #-15
    19cc:	0700000f 	streq	r0, [r0, -pc]
    19d0:	00000510 	andeq	r0, r0, r0, lsl r5
    19d4:	2c0f2d01 	stccs	13, cr2, [pc], {1}
    19d8:	60000000 	andvs	r0, r0, r0
    19dc:	5e00000f 	cdppl	0, 0, cr0, cr0, cr15, {0}
    19e0:	0700000f 	streq	r0, [r0, -pc]
    19e4:	0000053c 	andeq	r0, r0, ip, lsr r5
    19e8:	2c0f2e01 	stccs	14, cr2, [pc], {1}
    19ec:	7a000000 	bvc	19f4 <__code_start__-0x660c>
    19f0:	7800000f 	stmdavc	r0, {r0, r1, r2, r3}
    19f4:	0700000f 	streq	r0, [r0, -pc]
    19f8:	00000556 	andeq	r0, r0, r6, asr r5
    19fc:	2c0f2f01 	stccs	15, cr2, [pc], {1}
    1a00:	93000000 	movwls	r0, #0
    1a04:	9100000f 	tstls	r0, pc
    1a08:	0800000f 	stmdaeq	r0, {r0, r1, r2, r3}
    1a0c:	00008b78 	andeq	r8, r0, r8, ror fp
    1a10:	0000018c 	andeq	r0, r0, ip, lsl #3
    1a14:	008b8408 	addeq	r8, fp, r8, lsl #8
    1a18:	0001bb00 	andeq	fp, r1, r0, lsl #22
    1a1c:	8b880800 	blhi	fe203a24 <__bss_end__+0xfe1fa524>
    1a20:	01c80000 	biceq	r0, r8, r0
    1a24:	90090000 	andls	r0, r9, r0
    1a28:	d400008b 	strle	r0, [r0], #-139	; 0xffffff75
    1a2c:	17000001 	strne	r0, [r0, -r1]
    1a30:	0a000001 	beq	1a3c <__code_start__-0x65c4>
    1a34:	3a015001 	bcc	55a40 <__bss_end__+0x4c540>
    1a38:	8b9c0900 	blhi	fe703e40 <__bss_end__+0xfe6fa940>
    1a3c:	01e00000 	mvneq	r0, r0
    1a40:	01370000 	teqeq	r7, r0
    1a44:	010a0000 	mrseq	r0, (UNDEF: 10)
    1a48:	240c0550 	strcs	r0, [ip], #-1360	; 0xfffffab0
    1a4c:	0a201000 	beq	805a54 <__bss_end__+0x7fc554>
    1a50:	0c055101 	stfeqs	f5, [r5], {1}
    1a54:	5a000001 	bpl	1a60 <__code_start__-0x65a0>
    1a58:	8ba80900 	blhi	fea03e60 <__bss_end__+0xfe9fa960>
    1a5c:	01e00000 	mvneq	r0, r0
    1a60:	01570000 	cmpeq	r7, r0
    1a64:	010a0000 	mrseq	r0, (UNDEF: 10)
    1a68:	1c0c0550 	cfstr32ne	mvfx0, [ip], {80}	; 0x50
    1a6c:	0a201000 	beq	805a74 <__bss_end__+0x7fc574>
    1a70:	0c055101 	stfeqs	f5, [r5], {1}
    1a74:	5a000020 	bpl	1afc <__code_start__-0x6504>
    1a78:	8bb00800 	blhi	fec03a80 <__bss_end__+0xfebfa580>
    1a7c:	01610000 	cmneq	r1, r0
    1a80:	0b000000 	bleq	1a88 <__code_start__-0x6578>
    1a84:	00000518 	andeq	r0, r0, r8, lsl r5
    1a88:	5c061701 	stcpl	7, cr1, [r6], {1}
    1a8c:	1400008b 	strne	r0, [r0], #-139	; 0xffffff75
    1a90:	01000000 	mrseq	r0, (UNDEF: 0)
    1a94:	00018c9c 	muleq	r1, ip, ip
    1a98:	05770700 	ldrbeq	r0, [r7, #-1792]!	; 0xfffff900
    1a9c:	18010000 	stmdane	r1, {}	; <UNPREDICTABLE>
    1aa0:	0000310e 	andeq	r3, r0, lr, lsl #2
    1aa4:	000fae00 	andeq	sl, pc, r0, lsl #28
    1aa8:	000fa800 	andeq	sl, pc, r0, lsl #16
    1aac:	480c0000 	stmdami	ip, {}	; <UNPREDICTABLE>
    1ab0:	01000005 	tsteq	r0, r5
    1ab4:	0025050e 	eoreq	r0, r5, lr, lsl #10
    1ab8:	8b440000 	blhi	1101ac0 <__bss_end__+0x10f85c0>
    1abc:	00180000 	andseq	r0, r8, r0
    1ac0:	9c010000 	stcls	0, cr0, [r1], {-0}
    1ac4:	000001bb 			; <UNDEFINED> instruction: 0x000001bb
    1ac8:	00057707 	andeq	r7, r5, r7, lsl #14
    1acc:	0e0f0100 	adfeqe	f0, f7, f0
    1ad0:	00000031 	andeq	r0, r0, r1, lsr r0
    1ad4:	00000fdc 	ldrdeq	r0, [r0], -ip
    1ad8:	00000fd8 	ldrdeq	r0, [r0], -r8
    1adc:	05010d00 	streq	r0, [r1, #-3328]	; 0xfffff300
    1ae0:	05010000 	streq	r0, [r1, #-0]
    1ae4:	36020000 	strcc	r0, [r2], -r0
    1ae8:	9c0e0601 	stcls	6, cr0, [lr], {1}
    1aec:	9c000004 	stcls	0, cr0, [r0], {4}
    1af0:	02000004 	andeq	r0, r0, #4
    1af4:	780e064d 	stmdavc	lr, {r0, r2, r3, r6, r9, sl}
    1af8:	78000004 	stmdavc	r0, {r2}
    1afc:	02000004 	andeq	r0, r0, #4
    1b00:	2b0e0658 	blcs	383468 <__bss_end__+0x379f68>
    1b04:	2b000002 	blcs	1b14 <__code_start__-0x64ec>
    1b08:	02000002 	andeq	r0, r0, #2
    1b0c:	810006ad 	smlatbhi	r0, sp, r6, r0
    1b10:	04000000 	streq	r0, [r0], #-0
    1b14:	000b0400 	andeq	r0, fp, r0, lsl #8
    1b18:	db010400 	blle	42b20 <__bss_end__+0x39620>
    1b1c:	0c000000 	stceq	0, cr0, [r0], {-0}
    1b20:	0000057c 	andeq	r0, r0, ip, ror r5
    1b24:	000001e2 	andeq	r0, r0, r2, ror #3
    1b28:	00008bc4 	andeq	r8, r0, r4, asr #23
    1b2c:	00000004 	andeq	r0, r0, r4
    1b30:	00000eb9 			; <UNDEFINED> instruction: 0x00000eb9
    1b34:	69050402 	stmdbvs	r5, {r1, sl}
    1b38:	0300746e 	movweq	r7, #1134	; 0x46e
    1b3c:	01860704 	orreq	r0, r6, r4, lsl #14
    1b40:	01030000 	mrseq	r0, (UNDEF: 3)
    1b44:	00007006 	andeq	r7, r0, r6
    1b48:	05020300 	streq	r0, [r2, #-768]	; 0xfffffd00
    1b4c:	000001ad 	andeq	r0, r0, sp, lsr #3
    1b50:	9f050403 	svcls	0x00050403
    1b54:	03000001 	movweq	r0, #1
    1b58:	019a0508 	orrseq	r0, sl, r8, lsl #10
    1b5c:	01030000 	mrseq	r0, (UNDEF: 3)
    1b60:	00006e08 	andeq	r6, r0, r8, lsl #28
    1b64:	07020300 	streq	r0, [r2, -r0, lsl #6]
    1b68:	0000009f 	muleq	r0, pc, r0	; <UNPREDICTABLE>
    1b6c:	81070403 	tsthi	r7, r3, lsl #8
    1b70:	03000001 	movweq	r0, #1
    1b74:	017c0708 	cmneq	ip, r8, lsl #14
    1b78:	01030000 	mrseq	r0, (UNDEF: 3)
    1b7c:	00007708 	andeq	r7, r0, r8, lsl #14
    1b80:	05010400 	streq	r0, [r1, #-1024]	; 0xfffffc00
    1b84:	03010000 	movweq	r0, #4096	; 0x1000
    1b88:	008bc406 	addeq	ip, fp, r6, lsl #8
    1b8c:	00000400 	andeq	r0, r0, r0, lsl #8
    1b90:	009c0100 	addseq	r0, ip, r0, lsl #2
    1b94:	00000081 	andeq	r0, r0, r1, lsl #1
    1b98:	0b480004 	bleq	1201bb0 <__bss_end__+0x11f86b0>
    1b9c:	01040000 	mrseq	r0, (UNDEF: 4)
    1ba0:	000000db 	ldrdeq	r0, [r0], -fp
    1ba4:	0005a10c 	andeq	sl, r5, ip, lsl #2
    1ba8:	0001e200 	andeq	lr, r1, r0, lsl #4
    1bac:	008bc800 	addeq	ip, fp, r0, lsl #16
    1bb0:	00000400 	andeq	r0, r0, r0, lsl #8
    1bb4:	000f1000 	andeq	r1, pc, r0
    1bb8:	05040200 	streq	r0, [r4, #-512]	; 0xfffffe00
    1bbc:	00746e69 	rsbseq	r6, r4, r9, ror #28
    1bc0:	86070403 	strhi	r0, [r7], -r3, lsl #8
    1bc4:	03000001 	movweq	r0, #1
    1bc8:	00700601 	rsbseq	r0, r0, r1, lsl #12
    1bcc:	02030000 	andeq	r0, r3, #0
    1bd0:	0001ad05 	andeq	sl, r1, r5, lsl #26
    1bd4:	05040300 	streq	r0, [r4, #-768]	; 0xfffffd00
    1bd8:	0000019f 	muleq	r0, pc, r1	; <UNPREDICTABLE>
    1bdc:	9a050803 	bls	143bf0 <__bss_end__+0x13a6f0>
    1be0:	03000001 	movweq	r0, #1
    1be4:	006e0801 	rsbeq	r0, lr, r1, lsl #16
    1be8:	02030000 	andeq	r0, r3, #0
    1bec:	00009f07 	andeq	r9, r0, r7, lsl #30
    1bf0:	07040300 	streq	r0, [r4, -r0, lsl #6]
    1bf4:	00000181 	andeq	r0, r0, r1, lsl #3
    1bf8:	7c070803 	stcvc	8, cr0, [r7], {3}
    1bfc:	03000001 	movweq	r0, #1
    1c00:	00770801 	rsbseq	r0, r7, r1, lsl #16
    1c04:	d2040000 	andle	r0, r4, #0
    1c08:	01000004 	tsteq	r0, r4
    1c0c:	8bc80604 	blhi	ff203424 <__bss_end__+0xff1f9f24>
    1c10:	00040000 	andeq	r0, r4, r0
    1c14:	9c010000 	stcls	0, cr0, [r1], {-0}
    1c18:	00020000 	andeq	r0, r2, r0
    1c1c:	8c000400 	cfstrshi	mvf0, [r0], {-0}
    1c20:	0400000b 	streq	r0, [r0], #-11
    1c24:	0000db01 	andeq	sp, r0, r1, lsl #22
    1c28:	05d30c00 	ldrbeq	r0, [r3, #3072]	; 0xc00
    1c2c:	01e20000 	mvneq	r0, r0
    1c30:	8bcc0000 	blhi	ff301c38 <__bss_end__+0xff2f8738>
    1c34:	00840000 	addeq	r0, r4, r0
    1c38:	0f5e0000 	svceq	0x005e0000
    1c3c:	04020000 	streq	r0, [r2], #-0
    1c40:	746e6905 	strbtvc	r6, [lr], #-2309	; 0xfffff6fb
    1c44:	07040300 	streq	r0, [r4, -r0, lsl #6]
    1c48:	00000186 	andeq	r0, r0, r6, lsl #3
    1c4c:	70060103 	andvc	r0, r6, r3, lsl #2
    1c50:	03000000 	movweq	r0, #0
    1c54:	01ad0502 			; <UNDEFINED> instruction: 0x01ad0502
    1c58:	04030000 	streq	r0, [r3], #-0
    1c5c:	00019f05 	andeq	r9, r1, r5, lsl #30
    1c60:	05080300 	streq	r0, [r8, #-768]	; 0xfffffd00
    1c64:	0000019a 	muleq	r0, sl, r1
    1c68:	6e080103 	adfvse	f0, f0, f3
    1c6c:	03000000 	movweq	r0, #0
    1c70:	009f0702 	addseq	r0, pc, r2, lsl #14
    1c74:	04030000 	streq	r0, [r3], #-0
    1c78:	00018107 	andeq	r8, r1, r7, lsl #2
    1c7c:	07080300 	streq	r0, [r8, -r0, lsl #6]
    1c80:	0000017c 	andeq	r0, r0, ip, ror r1
    1c84:	77080103 	strvc	r0, [r8, -r3, lsl #2]
    1c88:	04000000 	streq	r0, [r0], #-0
    1c8c:	000005c9 	andeq	r0, r0, r9, asr #11
    1c90:	38061e01 	stmdacc	r6, {r0, r9, sl, fp, ip}
    1c94:	1800008c 	stmdane	r0, {r2, r3, r7}
    1c98:	01000000 	mrseq	r0, (UNDEF: 0)
    1c9c:	0000bc9c 	muleq	r0, ip, ip
    1ca0:	65730500 	ldrbvs	r0, [r3, #-1280]!	; 0xfffffb00
    1ca4:	1e010063 	cdpne	0, 0, cr0, cr1, cr3, {3}
    1ca8:	00002c19 	andeq	r2, r0, r9, lsl ip
    1cac:	000fff00 	andeq	pc, pc, r0, lsl #30
    1cb0:	000ffb00 	andeq	pc, pc, r0, lsl #22
    1cb4:	8c4c0600 	mcrrhi	6, 0, r0, ip, cr0
    1cb8:	00bc0000 	adcseq	r0, ip, r0
    1cbc:	01070000 	mrseq	r0, (UNDEF: 7)
    1cc0:	01f31150 	mvnseq	r1, r0, asr r1
    1cc4:	f3243550 	vqrshl.u32	<illegal reg q1.5>, q0, q2
    1cc8:	321c5001 	andscc	r5, ip, #1
    1ccc:	5001f324 	andpl	pc, r1, r4, lsr #6
    1cd0:	00243322 	eoreq	r3, r4, r2, lsr #6
    1cd4:	04780400 	ldrbteq	r0, [r8], #-1024	; 0xfffffc00
    1cd8:	1b010000 	blne	41ce0 <__bss_end__+0x387e0>
    1cdc:	008c2006 	addeq	r2, ip, r6
    1ce0:	00001800 	andeq	r1, r0, r0, lsl #16
    1ce4:	059c0100 	ldreq	r0, [ip, #256]	; 0x100
    1ce8:	05000001 	streq	r0, [r0, #-1]
    1cec:	0100736d 	tsteq	r0, sp, ror #6
    1cf0:	002c181b 	eoreq	r1, ip, fp, lsl r8
    1cf4:	10240000 	eorne	r0, r4, r0
    1cf8:	10200000 	eorne	r0, r0, r0
    1cfc:	34060000 	strcc	r0, [r6], #-0
    1d00:	0500008c 	streq	r0, [r0, #-140]	; 0xffffff74
    1d04:	07000001 	streq	r0, [r0, -r1]
    1d08:	f3115001 	vhadd.u16	d5, d1, d1
    1d0c:	24355001 	ldrtcs	r5, [r5], #-1
    1d10:	1c5001f3 	ldfnee	f0, [r0], {243}	; 0xf3
    1d14:	01f32432 	mvnseq	r2, r2, lsr r4
    1d18:	24332250 	ldrtcs	r2, [r3], #-592	; 0xfffffdb0
    1d1c:	f6040000 			; <UNDEFINED> instruction: 0xf6040000
    1d20:	01000005 	tsteq	r0, r5
    1d24:	8bfc0612 	blhi	fff03574 <__bss_end__+0xffefa074>
    1d28:	00240000 	eoreq	r0, r4, r0
    1d2c:	9c010000 	stcls	0, cr0, [r1], {-0}
    1d30:	00000175 	andeq	r0, r0, r5, ror r1
    1d34:	00737505 	rsbseq	r7, r3, r5, lsl #10
    1d38:	2c181201 	lfmcs	f1, 4, [r8], {1}
    1d3c:	49000000 	stmdbmi	r0, {}	; <UNPREDICTABLE>
    1d40:	45000010 	strmi	r0, [r0, #-16]
    1d44:	08000010 	stmdaeq	r0, {r4}
    1d48:	01006272 	tsteq	r0, r2, ror r2
    1d4c:	002c0e13 	eoreq	r0, ip, r3, lsl lr
    1d50:	10690000 	rsbne	r0, r9, r0
    1d54:	10670000 	rsbne	r0, r7, r0
    1d58:	0c090000 	stceq	0, cr0, [r9], {-0}
    1d5c:	1400008c 	strne	r0, [r0], #-140	; 0xffffff74
    1d60:	6b000000 	blvs	1d68 <__code_start__-0x6298>
    1d64:	08000001 	stmdaeq	r0, {r0}
    1d68:	01006172 	tsteq	r0, r2, ror r1
    1d6c:	002c1215 	eoreq	r1, ip, r5, lsl r2
    1d70:	107e0000 	rsbsne	r0, lr, r0
    1d74:	107c0000 	rsbsne	r0, ip, r0
    1d78:	100a0000 	andne	r0, sl, r0
    1d7c:	7500008c 	strvc	r0, [r0, #-140]	; 0xffffff74
    1d80:	00000001 	andeq	r0, r0, r1
    1d84:	008c080a 	addeq	r0, ip, sl, lsl #16
    1d88:	00017500 	andeq	r7, r1, r0, lsl #10
    1d8c:	e70b0000 	str	r0, [fp, -r0]
    1d90:	01000005 	tsteq	r0, r5
    1d94:	002c0a09 	eoreq	r0, ip, r9, lsl #20
    1d98:	8be00000 	blhi	ff801da0 <__bss_end__+0xff7f88a0>
    1d9c:	001c0000 	andseq	r0, ip, r0
    1da0:	9c010000 	stcls	0, cr0, [r1], {-0}
    1da4:	000001bd 			; <UNDEFINED> instruction: 0x000001bd
    1da8:	01007508 	tsteq	r0, r8, lsl #10
    1dac:	002c0e0d 	eoreq	r0, ip, sp, lsl #28
    1db0:	10950000 	addsne	r0, r5, r0
    1db4:	10910000 	addsne	r0, r1, r0
    1db8:	e80a0000 	stmda	sl, {}	; <UNPREDICTABLE>
    1dbc:	eb00008b 	bl	1ff0 <__code_start__-0x6010>
    1dc0:	0a000001 	beq	1dcc <__code_start__-0x6234>
    1dc4:	00008bec 	andeq	r8, r0, ip, ror #23
    1dc8:	000001bd 			; <UNDEFINED> instruction: 0x000001bd
    1dcc:	008bf40a 	addeq	pc, fp, sl, lsl #8
    1dd0:	0001eb00 	andeq	lr, r1, r0, lsl #22
    1dd4:	ff0b0000 			; <UNDEFINED> instruction: 0xff0b0000
    1dd8:	01000005 	tsteq	r0, r5
    1ddc:	002c0a04 	eoreq	r0, ip, r4, lsl #20
    1de0:	8bcc0000 	blhi	ff301de8 <__bss_end__+0xff2f88e8>
    1de4:	00140000 	andseq	r0, r4, r0
    1de8:	9c010000 	stcls	0, cr0, [r1], {-0}
    1dec:	000001eb 	andeq	r0, r0, fp, ror #3
    1df0:	008bd806 	addeq	sp, fp, r6, lsl #16
    1df4:	0001f700 	andeq	pc, r1, r0, lsl #14
    1df8:	50010700 	andpl	r0, r1, r0, lsl #14
    1dfc:	30040c05 	andcc	r0, r4, r5, lsl #24
    1e00:	00002000 	andeq	r2, r0, r0
    1e04:	0005bd0c 	andeq	fp, r5, ip, lsl #26
    1e08:	0005bd00 	andeq	fp, r5, r0, lsl #26
    1e0c:	069c0200 	ldreq	r0, [ip], r0, lsl #4
    1e10:	0002310c 	andeq	r3, r2, ip, lsl #2
    1e14:	00023100 	andeq	r3, r2, r0, lsl #2
    1e18:	0ac20200 	beq	ff082620 <__bss_end__+0xff079120>
    1e1c:	0005cd00 	andeq	ip, r5, r0, lsl #26
    1e20:	58000400 	stmdapl	r0, {sl}
    1e24:	0400000c 	streq	r0, [r0], #-12
    1e28:	0000db01 	andeq	sp, r0, r1, lsl #22
    1e2c:	062e0c00 	strteq	r0, [lr], -r0, lsl #24
    1e30:	06bb0000 	ldrteq	r0, [fp], r0
    1e34:	8c500000 	mrahi	r0, r0, acc0
    1e38:	01f00000 	mvnseq	r0, r0
    1e3c:	10420000 	subne	r0, r2, r0
    1e40:	04020000 	streq	r0, [r2], #-0
    1e44:	746e6905 	strbtvc	r6, [lr], #-2309	; 0xfffff6fb
    1e48:	07040300 	streq	r0, [r4, -r0, lsl #6]
    1e4c:	00000186 	andeq	r0, r0, r6, lsl #3
    1e50:	00002c04 	andeq	r2, r0, r4, lsl #24
    1e54:	06010300 	streq	r0, [r1], -r0, lsl #6
    1e58:	00000070 	andeq	r0, r0, r0, ror r0
    1e5c:	ad050203 	sfmge	f0, 4, [r5, #-12]
    1e60:	03000001 	movweq	r0, #1
    1e64:	019f0504 	orrseq	r0, pc, r4, lsl #10
    1e68:	08030000 	stmdaeq	r3, {}	; <UNPREDICTABLE>
    1e6c:	00019a05 	andeq	r9, r1, r5, lsl #20
    1e70:	08010300 	stmdaeq	r1, {r8, r9}
    1e74:	0000006e 	andeq	r0, r0, lr, rrx
    1e78:	9f070203 	svcls	0x00070203
    1e7c:	05000000 	streq	r0, [r0, #-0]
    1e80:	000002e6 	andeq	r0, r0, r6, ror #5
    1e84:	6e193405 	cfmulsvs	mvf3, mvf9, mvf5
    1e88:	03000000 	movweq	r0, #0
    1e8c:	01810704 	orreq	r0, r1, r4, lsl #14
    1e90:	08030000 	stmdaeq	r3, {}	; <UNPREDICTABLE>
    1e94:	00017c07 	andeq	r7, r1, r7, lsl #24
    1e98:	08010300 	stmdaeq	r1, {r8, r9}
    1e9c:	00000077 	andeq	r0, r0, r7, ror r0
    1ea0:	54010706 	strpl	r0, [r1], #-1798	; 0xfffff8fa
    1ea4:	04000000 	streq	r0, [r0], #-0
    1ea8:	00c20e0c 	sbceq	r0, r2, ip, lsl #28
    1eac:	ef070000 	svc	0x00070000
    1eb0:	00000002 	andeq	r0, r0, r2
    1eb4:	00021007 	andeq	r1, r2, r7
    1eb8:	37070100 	strcc	r0, [r7, -r0, lsl #2]
    1ebc:	04000002 	streq	r0, [r0], #-2
    1ec0:	00024607 	andeq	r4, r2, r7, lsl #12
    1ec4:	55070500 	strpl	r0, [r7, #-1280]	; 0xfffffb00
    1ec8:	06000002 	streq	r0, [r0], -r2
    1ecc:	00026407 	andeq	r6, r2, r7, lsl #8
    1ed0:	d2070700 	andle	r0, r7, #0, 14
    1ed4:	03000002 	movweq	r0, #2
    1ed8:	00027307 	andeq	r7, r2, r7, lsl #6
    1edc:	08000200 	stmdaeq	r0, {r9}
    1ee0:	000006af 	andeq	r0, r0, pc, lsr #13
    1ee4:	0806022c 	stmdaeq	r6, {r2, r3, r5, r9}
    1ee8:	0000015e 	andeq	r0, r0, lr, asr r1
    1eec:	006f6909 	rsbeq	r6, pc, r9, lsl #18
    1ef0:	33090902 	movwcc	r0, #39170	; 0x9902
    1ef4:	00000000 	andeq	r0, r0, r0
    1ef8:	72656909 	rsbvc	r6, r5, #147456	; 0x24000
    1efc:	090a0200 	stmdbeq	sl, {r9}
    1f00:	00000033 	andeq	r0, r0, r3, lsr r0
    1f04:	69690904 	stmdbvs	r9!, {r2, r8, fp}^
    1f08:	11020072 	tstne	r2, r2, ror r0
    1f0c:	00003309 	andeq	r3, r0, r9, lsl #6
    1f10:	6c090800 	stcvs	8, cr0, [r9], {-0}
    1f14:	02007263 	andeq	r7, r0, #805306374	; 0x30000006
    1f18:	00330913 	eorseq	r0, r3, r3, lsl r9
    1f1c:	090c0000 	stmdbeq	ip, {}	; <UNPREDICTABLE>
    1f20:	0072636d 	rsbseq	r6, r2, sp, ror #6
    1f24:	33091402 	movwcc	r1, #37890	; 0x9402
    1f28:	10000000 	andne	r0, r0, r0
    1f2c:	72736c09 	rsbsvc	r6, r3, #2304	; 0x900
    1f30:	09150200 	ldmdbeq	r5, {r9}
    1f34:	00000033 	andeq	r0, r0, r3, lsr r0
    1f38:	736d0914 	cmnvc	sp, #20, 18	; 0x50000
    1f3c:	16020072 			; <UNDEFINED> instruction: 0x16020072
    1f40:	00003309 	andeq	r3, r0, r9, lsl #6
    1f44:	a70a1800 	strge	r1, [sl, -r0, lsl #16]
    1f48:	02000006 	andeq	r0, r0, #6
    1f4c:	00330917 	eorseq	r0, r3, r7, lsl r9
    1f50:	0a1c0000 	beq	701f58 <__bss_end__+0x6f8a58>
    1f54:	0000067f 	andeq	r0, r0, pc, ror r6
    1f58:	33091b02 	movwcc	r1, #39682	; 0x9b02
    1f5c:	20000000 	andcs	r0, r0, r0
    1f60:	00061b0a 	andeq	r1, r6, sl, lsl #22
    1f64:	091d0200 	ldmdbeq	sp, {r9}
    1f68:	00000033 	andeq	r0, r0, r3, lsr r0
    1f6c:	06640a24 	strbteq	r0, [r4], -r4, lsr #20
    1f70:	1e020000 	cdpne	0, 0, cr0, cr2, cr0, {0}
    1f74:	00003309 	andeq	r3, r0, r9, lsl #6
    1f78:	0b002800 	bleq	bf80 <__bss_end__+0x2a80>
    1f7c:	00000669 	andeq	r0, r0, r9, ror #12
    1f80:	74090801 	strvc	r0, [r9], #-2049	; 0xfffff7ff
    1f84:	04000001 	streq	r0, [r0], #-1
    1f88:	0c202150 	stfeqs	f2, [r0], #-320	; 0xfffffec0
    1f8c:	00003304 	andeq	r3, r0, r4, lsl #6
    1f90:	016e0d00 	cmneq	lr, r0, lsl #26
    1f94:	430b0000 	movwmi	r0, #45056	; 0xb000
    1f98:	01000006 	tsteq	r0, r6
    1f9c:	018f2329 	orreq	r2, pc, r9, lsr #6
    1fa0:	50400000 	subpl	r0, r0, r0
    1fa4:	040c2021 	streq	r2, [ip], #-33	; 0xffffffdf
    1fa8:	000000c2 	andeq	r0, r0, r2, asr #1
    1fac:	0001890d 	andeq	r8, r1, sp, lsl #18
    1fb0:	049c0e00 	ldreq	r0, [ip], #3584	; 0xe00
    1fb4:	cc010000 	stcgt	0, cr0, [r1], {-0}
    1fb8:	008e0806 	addeq	r0, lr, r6, lsl #16
    1fbc:	00001400 	andeq	r1, r0, r0, lsl #8
    1fc0:	b49c0100 	ldrlt	r0, [ip], #256	; 0x100
    1fc4:	0f000001 	svceq	0x00000001
    1fc8:	00008e10 	andeq	r8, r0, r0, lsl lr
    1fcc:	000001b4 			; <UNDEFINED> instruction: 0x000001b4
    1fd0:	064d1000 	strbeq	r1, [sp], -r0
    1fd4:	b6010000 	strlt	r0, [r1], -r0
    1fd8:	00002505 	andeq	r2, r0, r5, lsl #10
    1fdc:	008de800 	addeq	lr, sp, r0, lsl #16
    1fe0:	00002000 	andeq	r2, r0, r0
    1fe4:	eb9c0100 	bl	fe7023ec <__bss_end__+0xfe6f8eec>
    1fe8:	0f000001 	svceq	0x00000001
    1fec:	00008df0 	strdeq	r8, [r0], -r0
    1ff0:	000005a0 	andeq	r0, r0, r0, lsr #11
    1ff4:	008df811 	addeq	pc, sp, r1, lsl r8	; <UNPREDICTABLE>
    1ff8:	0005ac00 	andeq	sl, r5, r0, lsl #24
    1ffc:	50011200 	andpl	r1, r1, r0, lsl #4
    2000:	50640c05 	rsbpl	r0, r4, r5, lsl #24
    2004:	00002021 	andeq	r2, r0, r1, lsr #32
    2008:	00069110 	andeq	r9, r6, r0, lsl r1
    200c:	05b30100 	ldreq	r0, [r3, #256]!	; 0x100
    2010:	00000025 	andeq	r0, r0, r5, lsr #32
    2014:	00008dd8 	ldrdeq	r8, [r0], -r8	; <UNPREDICTABLE>
    2018:	00000010 	andeq	r0, r0, r0, lsl r0
    201c:	02189c01 	andseq	r9, r8, #256	; 0x100
    2020:	e00f0000 	and	r0, pc, r0
    2024:	a000008d 	andge	r0, r0, sp, lsl #1
    2028:	0f000005 	svceq	0x00000005
    202c:	00008de4 	andeq	r8, r0, r4, ror #27
    2030:	00000309 	andeq	r0, r0, r9, lsl #6
    2034:	03b10e00 			; <UNDEFINED> instruction: 0x03b10e00
    2038:	ab010000 	blge	42040 <__bss_end__+0x38b40>
    203c:	008da806 	addeq	sl, sp, r6, lsl #16
    2040:	00003000 	andeq	r3, r0, r0
    2044:	7c9c0100 	ldfvcs	f0, [ip], {0}
    2048:	13000002 	movwne	r0, #2
    204c:	ab010063 	blge	421e0 <__bss_end__+0x38ce0>
    2050:	00002c19 	andeq	r2, r0, r9, lsl ip
    2054:	0010b700 	andseq	fp, r0, r0, lsl #14
    2058:	0010b300 	andseq	fp, r0, r0, lsl #6
    205c:	8db40f00 	ldchi	15, cr0, [r4]
    2060:	05a00000 	streq	r0, [r0, #0]!
    2064:	b80f0000 	stmdalt	pc, {}	; <UNPREDICTABLE>
    2068:	db00008d 	blle	22a4 <__code_start__-0x5d5c>
    206c:	14000002 	strne	r0, [r0], #-2
    2070:	00008dcc 	andeq	r8, r0, ip, asr #27
    2074:	000005b8 			; <UNDEFINED> instruction: 0x000005b8
    2078:	00000272 	andeq	r0, r0, r2, ror r2
    207c:	05500112 	ldrbeq	r0, [r0, #-274]	; 0xfffffeee
    2080:	2150400c 	cmpcs	r0, ip
    2084:	51011220 	tstpl	r1, r0, lsr #4
    2088:	08007405 	stmdaeq	r0, {r0, r2, sl, ip, sp, lr}
    208c:	0f001aff 	svceq	0x00001aff
    2090:	00008dd0 	ldrdeq	r8, [r0], -r0
    2094:	000005a0 	andeq	r0, r0, r0, lsr #11
    2098:	06751000 	ldrbteq	r1, [r5], -r0
    209c:	a3010000 	movwge	r0, #4096	; 0x1000
    20a0:	00002505 	andeq	r2, r0, r5, lsl #10
    20a4:	008d7800 	addeq	r7, sp, r0, lsl #16
    20a8:	00003000 	andeq	r3, r0, r0
    20ac:	db9c0100 	blle	fe7024b4 <__bss_end__+0xfe6f8fb4>
    20b0:	15000002 	strne	r0, [r0, #-2]
    20b4:	a7010063 	strge	r0, [r1, -r3, rrx]
    20b8:	00002509 	andeq	r2, r0, r9, lsl #10
    20bc:	0010d700 	andseq	sp, r0, r0, lsl #14
    20c0:	0010d500 	andseq	sp, r0, r0, lsl #10
    20c4:	8d800f00 	stchi	15, cr0, [r0]
    20c8:	05a00000 	streq	r0, [r0, #0]!
    20cc:	840f0000 	strhi	r0, [pc], #-0	; 20d4 <__code_start__-0x5f2c>
    20d0:	0900008d 	stmdbeq	r0, {r0, r2, r3, r7}
    20d4:	14000003 	strne	r0, [r0], #-3
    20d8:	00008d94 	muleq	r0, r4, sp
    20dc:	000005ac 	andeq	r0, r0, ip, lsr #11
    20e0:	000002d1 	ldrdeq	r0, [r0], -r1
    20e4:	05500112 	ldrbeq	r0, [r0, #-274]	; 0xfffffeee
    20e8:	2150400c 	cmpcs	r0, ip
    20ec:	9c0f0020 	stcls	0, cr0, [pc], {32}
    20f0:	a000008d 	andge	r0, r0, sp, lsl #1
    20f4:	00000005 	andeq	r0, r0, r5
    20f8:	00063510 	andeq	r3, r6, r0, lsl r5
    20fc:	05940100 	ldreq	r0, [r4, #256]	; 0x100
    2100:	00000025 	andeq	r0, r0, r5, lsr #32
    2104:	00008d58 	andeq	r8, r0, r8, asr sp
    2108:	00000020 	andeq	r0, r0, r0, lsr #32
    210c:	03099c01 	movweq	r9, #39937	; 0x9c01
    2110:	64110000 	ldrvs	r0, [r1], #-0
    2114:	ac00008d 	stcge	0, cr0, [r0], {141}	; 0x8d
    2118:	12000005 	andne	r0, r0, #5
    211c:	0c055001 	stceq	0, cr5, [r5], {1}
    2120:	20215064 	eorcs	r5, r1, r4, rrx
    2124:	20100000 	andscs	r0, r0, r0
    2128:	01000006 	tsteq	r0, r6
    212c:	0025058b 	eoreq	r0, r5, fp, lsl #11
    2130:	8d400000 	stclhi	0, cr0, [r0, #-0]
    2134:	00180000 	andseq	r0, r8, r0
    2138:	9c010000 	stcls	0, cr0, [r1], {-0}
    213c:	00000337 	andeq	r0, r0, r7, lsr r3
    2140:	008d4c11 	addeq	r4, sp, r1, lsl ip
    2144:	0005ac00 	andeq	sl, r5, r0, lsl #24
    2148:	50011200 	andpl	r1, r1, r0, lsl #4
    214c:	50640c05 	rsbpl	r0, r4, r5, lsl #24
    2150:	00002021 	andeq	r2, r0, r1, lsr #32
    2154:	0004c80e 	andeq	ip, r4, lr, lsl #16
    2158:	06450100 	strbeq	r0, [r5], -r0, lsl #2
    215c:	00008c90 	muleq	r0, r0, ip
    2160:	000000b0 	strheq	r0, [r0], -r0	; <UNPREDICTABLE>
    2164:	04849c01 	streq	r9, [r4], #3073	; 0xc01
    2168:	12160000 	andsne	r0, r6, #0
    216c:	01000006 	tsteq	r0, r6
    2170:	00620e7e 	rsbeq	r0, r2, lr, ror lr
    2174:	010e0000 	mrseq	r0, (UNDEF: 14)
    2178:	008ca014 	addeq	sl, ip, r4, lsl r0
    217c:	0005c400 	andeq	ip, r5, r0, lsl #8
    2180:	00037300 	andeq	r7, r3, r0, lsl #6
    2184:	50011200 	andpl	r1, r1, r0, lsl #4
    2188:	01123e01 	tsteq	r2, r1, lsl #28
    218c:	00320151 	eorseq	r0, r2, r1, asr r1
    2190:	008cac14 	addeq	sl, ip, r4, lsl ip
    2194:	0005c400 	andeq	ip, r5, r0, lsl #8
    2198:	00038b00 	andeq	r8, r3, r0, lsl #22
    219c:	50011200 	andpl	r1, r1, r0, lsl #4
    21a0:	01123f01 	tsteq	r2, r1, lsl #30
    21a4:	00320151 	eorseq	r0, r2, r1, asr r1
    21a8:	008cb00f 	addeq	fp, ip, pc
    21ac:	0005a000 	andeq	sl, r5, r0
    21b0:	8cbc1400 	cfldrshi	mvf1, [ip]
    21b4:	053d0000 	ldreq	r0, [sp, #-0]!
    21b8:	03b00000 	movseq	r0, #0
    21bc:	01120000 	tsteq	r2, r0
    21c0:	040c0550 	streq	r0, [ip], #-1360	; 0xfffffab0
    21c4:	12202150 	eorne	r2, r0, #80, 2
    21c8:	31015101 	tstcc	r1, r1, lsl #2
    21cc:	8cc00f00 	stclhi	15, cr0, [r0], {0}
    21d0:	05a00000 	streq	r0, [r0, #0]!
    21d4:	d0140000 	andsle	r0, r4, r0
    21d8:	b800008c 	stmdalt	r0, {r2, r3, r7}
    21dc:	d2000005 	andle	r0, r0, #5
    21e0:	12000003 	andne	r0, r0, #3
    21e4:	74025001 	strvc	r5, [r2], #-1
    21e8:	51011200 	mrspl	r1, R9_usr
    21ec:	14003001 	strne	r3, [r0], #-1
    21f0:	00008cdc 	ldrdeq	r8, [r0], -ip
    21f4:	000005b8 			; <UNDEFINED> instruction: 0x000005b8
    21f8:	000003ee 	andeq	r0, r0, lr, ror #7
    21fc:	05500112 	ldrbeq	r0, [r0, #-274]	; 0xfffffeee
    2200:	2150440c 	cmpcs	r0, ip, lsl #8
    2204:	51011220 	tstpl	r1, r0, lsr #4
    2208:	14003001 	strne	r3, [r0], #-1
    220c:	00008ce8 	andeq	r8, r0, r8, ror #25
    2210:	000005b8 			; <UNDEFINED> instruction: 0x000005b8
    2214:	0000040a 	andeq	r0, r0, sl, lsl #8
    2218:	05500112 	ldrbeq	r0, [r0, #-274]	; 0xfffffeee
    221c:	21504c0c 	cmpcs	r0, ip, lsl #24
    2220:	51011220 	tstpl	r1, r0, lsr #4
    2224:	14003301 	strne	r3, [r0], #-769	; 0xfffffcff
    2228:	00008cf4 	strdeq	r8, [r0], -r4
    222c:	000005b8 			; <UNDEFINED> instruction: 0x000005b8
    2230:	00000426 	andeq	r0, r0, r6, lsr #8
    2234:	05500112 	ldrbeq	r0, [r0, #-274]	; 0xfffffeee
    2238:	2150500c 	cmpcs	r0, ip
    223c:	51011220 	tstpl	r1, r0, lsr #4
    2240:	14003001 	strne	r3, [r0], #-1
    2244:	00008d00 	andeq	r8, r0, r0, lsl #26
    2248:	000005b8 			; <UNDEFINED> instruction: 0x000005b8
    224c:	00000443 	andeq	r0, r0, r3, asr #8
    2250:	05500112 	ldrbeq	r0, [r0, #-274]	; 0xfffffeee
    2254:	2150480c 	cmpcs	r0, ip, lsl #16
    2258:	51011220 	tstpl	r1, r0, lsr #4
    225c:	00c70802 	sbceq	r0, r7, r2, lsl #16
    2260:	008d0c14 	addeq	r0, sp, r4, lsl ip
    2264:	0005b800 	andeq	fp, r5, r0, lsl #16
    2268:	00046100 	andeq	r6, r4, r0, lsl #2
    226c:	50011200 	andpl	r1, r1, r0, lsl #4
    2270:	50680c05 	rsbpl	r0, r8, r5, lsl #24
    2274:	01122021 	tsteq	r2, r1, lsr #32
    2278:	0e0a0351 	mcreq	3, 0, r0, cr10, cr1, {2}
    227c:	18140001 	ldmdane	r4, {r0}
    2280:	b800008d 	stmdalt	r0, {r0, r2, r3, r7}
    2284:	7a000005 	bvc	22a0 <__code_start__-0x5d60>
    2288:	12000004 	andne	r0, r0, #4
    228c:	74025001 	strvc	r5, [r2], #-1
    2290:	51011200 	mrspl	r1, R9_usr
    2294:	0f003301 	svceq	0x00003301
    2298:	00008d1c 	andeq	r8, r0, ip, lsl sp
    229c:	000005a0 	andeq	r0, r0, r0, lsr #11
    22a0:	06840e00 	streq	r0, [r4], r0, lsl #28
    22a4:	35010000 	strcc	r0, [r1, #-0]
    22a8:	008e1c06 	addeq	r1, lr, r6, lsl #24
    22ac:	00002400 	andeq	r2, r0, r0, lsl #8
    22b0:	d39c0100 	orrsle	r0, ip, #0, 2
    22b4:	0f000004 	svceq	0x00000004
    22b8:	00008e24 	andeq	r8, r0, r4, lsr #28
    22bc:	00000194 	muleq	r0, r4, r1
    22c0:	008e280f 	addeq	r2, lr, pc, lsl #16
    22c4:	0005a000 	andeq	sl, r5, r0
    22c8:	8e341400 	cfabsshi	mvf1, mvf4
    22cc:	04d30000 	ldrbeq	r0, [r3], #0
    22d0:	04c90000 	strbeq	r0, [r9], #0
    22d4:	01120000 	tsteq	r2, r0
    22d8:	040c0550 	streq	r0, [ip], #-1360	; 0xfffffab0
    22dc:	12202150 	eorne	r2, r0, #80, 2
    22e0:	09025101 	stmdbeq	r2, {r0, r8, ip, lr}
    22e4:	380f00fe 	stmdacc	pc, {r1, r2, r3, r4, r5, r6, r7}	; <UNPREDICTABLE>
    22e8:	a000008e 	andge	r0, r0, lr, lsl #1
    22ec:	00000005 	andeq	r0, r0, r5
    22f0:	0006ef17 	andeq	lr, r6, r7, lsl pc
    22f4:	0d310100 	ldfeqs	f0, [r1, #-0]
    22f8:	00008c50 	andeq	r8, r0, r0, asr ip
    22fc:	00000020 	andeq	r0, r0, r0, lsr #32
    2300:	05369c01 	ldreq	r9, [r6, #-3073]!	; 0xfffff3ff
    2304:	48180000 	ldmdami	r8, {}	; <UNPREDICTABLE>
    2308:	01000006 	tsteq	r0, r6
    230c:	05362531 	ldreq	r2, [r6, #-1329]!	; 0xfffffacf
    2310:	10ee0000 	rscne	r0, lr, r0
    2314:	10ea0000 	rscne	r0, sl, r0
    2318:	76130000 	ldrvc	r0, [r3], -r0
    231c:	01006c61 	tsteq	r0, r1, ror #24
    2320:	002c3431 	eoreq	r3, ip, r1, lsr r4
    2324:	11100000 	tstne	r0, r0
    2328:	110c0000 	mrsne	r0, (UNDEF: 12)
    232c:	60140000 	andsvs	r0, r4, r0
    2330:	ac00008c 	stcge	0, cr0, [r0], {140}	; 0x8c
    2334:	25000005 	strcs	r0, [r0, #-5]
    2338:	12000005 	andne	r0, r0, #5
    233c:	74025001 	strvc	r5, [r2], #-1
    2340:	6c110000 	ldcvs	0, cr0, [r1], {-0}
    2344:	b800008c 	stmdalt	r0, {r2, r3, r7}
    2348:	12000005 	andne	r0, r0, #5
    234c:	74025001 	strvc	r5, [r2], #-1
    2350:	0c000000 	stceq	0, cr0, [r0], {-0}
    2354:	00053c04 	andeq	r3, r5, r4, lsl #24
    2358:	9f171900 	svcls	0x00171900
    235c:	01000006 	tsteq	r0, r6
    2360:	8c700d2e 	ldclhi	13, cr0, [r0], #-184	; 0xffffff48
    2364:	00200000 	eoreq	r0, r0, r0
    2368:	9c010000 	stcls	0, cr0, [r1], {-0}
    236c:	000005a0 	andeq	r0, r0, r0, lsr #11
    2370:	00064818 	andeq	r4, r6, r8, lsl r8
    2374:	242e0100 	strtcs	r0, [lr], #-256	; 0xffffff00
    2378:	00000536 	andeq	r0, r0, r6, lsr r5
    237c:	00001132 	andeq	r1, r0, r2, lsr r1
    2380:	0000112e 	andeq	r1, r0, lr, lsr #2
    2384:	6c617613 	stclvs	6, cr7, [r1], #-76	; 0xffffffb4
    2388:	332e0100 			; <UNDEFINED> instruction: 0x332e0100
    238c:	0000002c 	andeq	r0, r0, ip, lsr #32
    2390:	00001154 	andeq	r1, r0, r4, asr r1
    2394:	00001150 	andeq	r1, r0, r0, asr r1
    2398:	008c8014 	addeq	r8, ip, r4, lsl r0
    239c:	0005ac00 	andeq	sl, r5, r0, lsl #24
    23a0:	00058f00 	andeq	r8, r5, r0, lsl #30
    23a4:	50011200 	andpl	r1, r1, r0, lsl #4
    23a8:	00007402 	andeq	r7, r0, r2, lsl #8
    23ac:	008c8c11 	addeq	r8, ip, r1, lsl ip
    23b0:	0005b800 	andeq	fp, r5, r0, lsl #16
    23b4:	50011200 	andpl	r1, r1, r0, lsl #4
    23b8:	00007402 	andeq	r7, r0, r2, lsl #8
    23bc:	05bd1a00 	ldreq	r1, [sp, #2560]!	; 0xa00
    23c0:	05bd0000 	ldreq	r0, [sp, #0]!
    23c4:	9c030000 	stcls	0, cr0, [r3], {-0}
    23c8:	06f81a06 	ldrbteq	r1, [r8], r6, lsl #20
    23cc:	06f80000 	ldrbteq	r0, [r8], r0
    23d0:	c3030000 	movwgt	r0, #12288	; 0x3000
    23d4:	065e1a0b 	ldrbeq	r1, [lr], -fp, lsl #20
    23d8:	065e0000 	ldrbeq	r0, [lr], -r0
    23dc:	ae030000 	cdpge	0, 0, cr0, cr3, cr0, {0}
    23e0:	02ff1a06 	rscseq	r1, pc, #24576	; 0x6000
    23e4:	02ff0000 	rscseq	r0, pc, #0
    23e8:	19040000 	stmdbne	r4, {}	; <UNPREDICTABLE>
    23ec:	00cd0006 	sbceq	r0, sp, r6
    23f0:	00040000 	andeq	r0, r4, r0
    23f4:	00000df0 	strdeq	r0, [r0], -r0	; <UNPREDICTABLE>
    23f8:	00db0104 	sbcseq	r0, fp, r4, lsl #2
    23fc:	fe0c0000 	cdp2	0, 0, cr0, cr12, cr0, {0}
    2400:	e2000006 	and	r0, r0, #6
    2404:	40000001 	andmi	r0, r0, r1
    2408:	2000008e 	andcs	r0, r0, lr, lsl #1
    240c:	4a000000 	bmi	2414 <__code_start__-0x5bec>
    2410:	02000012 	andeq	r0, r0, #18
    2414:	6e690504 	cdpvs	5, 6, cr0, cr9, cr4, {0}
    2418:	04030074 	streq	r0, [r3], #-116	; 0xffffff8c
    241c:	00018607 	andeq	r8, r1, r7, lsl #12
    2420:	06010300 	streq	r0, [r1], -r0, lsl #6
    2424:	00000070 	andeq	r0, r0, r0, ror r0
    2428:	ad050203 	sfmge	f0, 4, [r5, #-12]
    242c:	03000001 	movweq	r0, #1
    2430:	019f0504 	orrseq	r0, pc, r4, lsl #10
    2434:	08030000 	stmdaeq	r3, {}	; <UNPREDICTABLE>
    2438:	00019a05 	andeq	r9, r1, r5, lsl #20
    243c:	08010300 	stmdaeq	r1, {r8, r9}
    2440:	0000006e 	andeq	r0, r0, lr, rrx
    2444:	9f070203 	svcls	0x00070203
    2448:	03000000 	movweq	r0, #0
    244c:	01810704 	orreq	r0, r1, r4, lsl #14
    2450:	08030000 	stmdaeq	r3, {}	; <UNPREDICTABLE>
    2454:	00017c07 	andeq	r7, r1, r7, lsl #24
    2458:	78040400 	stmdavc	r4, {sl}
    245c:	03000000 	movweq	r0, #0
    2460:	00770801 	rsbseq	r0, r7, r1, lsl #16
    2464:	71050000 	mrsvc	r0, (UNDEF: 5)
    2468:	06000000 	streq	r0, [r0], -r0
    246c:	00000429 	andeq	r0, r0, r9, lsr #8
    2470:	ca070301 	bgt	1c307c <__bss_end__+0x1b9b7c>
    2474:	40000000 	andmi	r0, r0, r0
    2478:	2000008e 	andcs	r0, r0, lr, lsl #1
    247c:	01000000 	mrseq	r0, (UNDEF: 0)
    2480:	0000ca9c 	muleq	r0, ip, sl
    2484:	31730700 	cmncc	r3, r0, lsl #14
    2488:	15030100 	strne	r0, [r3, #-256]	; 0xffffff00
    248c:	000000ca 	andeq	r0, r0, sl, asr #1
    2490:	73085001 	movwvc	r5, #32769	; 0x8001
    2494:	03010032 	movweq	r0, #4146	; 0x1032
    2498:	00006b26 	andeq	r6, r0, r6, lsr #22
    249c:	00117800 	andseq	r7, r1, r0, lsl #16
    24a0:	00117200 	andseq	r7, r1, r0, lsl #4
    24a4:	00730900 	rsbseq	r0, r3, r0, lsl #18
    24a8:	ca140401 	bgt	5034b4 <__bss_end__+0x4f9fb4>
    24ac:	a9000000 	stmdbge	r0, {}	; <UNPREDICTABLE>
    24b0:	a3000011 	movwge	r0, #17
    24b4:	00000011 	andeq	r0, r0, r1, lsl r0
    24b8:	00710404 	rsbseq	r0, r1, r4, lsl #8
    24bc:	f5000000 			; <UNDEFINED> instruction: 0xf5000000
    24c0:	04000000 	streq	r0, [r0], #-0
    24c4:	000e8100 	andeq	r8, lr, r0, lsl #2
    24c8:	db010400 	blle	434d0 <__bss_end__+0x39fd0>
    24cc:	0c000000 	stceq	0, cr0, [r0], {-0}
    24d0:	00000713 	andeq	r0, r0, r3, lsl r7
    24d4:	000001e2 	andeq	r0, r0, r2, ror #3
    24d8:	00008e60 	andeq	r8, r0, r0, ror #28
    24dc:	00000034 	andeq	r0, r0, r4, lsr r0
    24e0:	000012b6 			; <UNDEFINED> instruction: 0x000012b6
    24e4:	69050402 	stmdbvs	r5, {r1, sl}
    24e8:	0300746e 	movweq	r7, #1134	; 0x46e
    24ec:	01860704 	orreq	r0, r6, r4, lsl #14
    24f0:	01030000 	mrseq	r0, (UNDEF: 3)
    24f4:	00007006 	andeq	r7, r0, r6
    24f8:	05020300 	streq	r0, [r2, #-768]	; 0xfffffd00
    24fc:	000001ad 	andeq	r0, r0, sp, lsr #3
    2500:	9f050403 	svcls	0x00050403
    2504:	03000001 	movweq	r0, #1
    2508:	019a0508 	orrseq	r0, sl, r8, lsl #10
    250c:	01030000 	mrseq	r0, (UNDEF: 3)
    2510:	00006e08 	andeq	r6, r0, r8, lsl #28
    2514:	07020300 	streq	r0, [r2, -r0, lsl #6]
    2518:	0000009f 	muleq	r0, pc, r0	; <UNPREDICTABLE>
    251c:	81070403 	tsthi	r7, r3, lsl #8
    2520:	03000001 	movweq	r0, #1
    2524:	017c0708 	cmneq	ip, r8, lsl #14
    2528:	04040000 	streq	r0, [r4], #-0
    252c:	00000078 	andeq	r0, r0, r8, ror r0
    2530:	77080103 	strvc	r0, [r8, -r3, lsl #2]
    2534:	05000000 	streq	r0, [r0, #-0]
    2538:	00000071 	andeq	r0, r0, r1, ror r0
    253c:	00042206 	andeq	r2, r4, r6, lsl #4
    2540:	07040100 	streq	r0, [r4, -r0, lsl #2]
    2544:	000000f2 	strdeq	r0, [r0], -r2
    2548:	00008e60 	andeq	r8, r0, r0, ror #28
    254c:	00000034 	andeq	r0, r0, r4, lsr r0
    2550:	00f29c01 	rscseq	r9, r2, r1, lsl #24
    2554:	0e070000 	cdpeq	0, 0, cr0, cr7, cr0, {0}
    2558:	01000007 	tsteq	r0, r7
    255c:	00f21504 	rscseq	r1, r2, r4, lsl #10
    2560:	50010000 	andpl	r0, r1, r0
    2564:	63727308 	cmnvs	r2, #8, 6	; 0x20000000
    2568:	27040100 	strcs	r0, [r4, -r0, lsl #2]
    256c:	0000006b 	andeq	r0, r0, fp, rrx
    2570:	000011d8 	ldrdeq	r1, [r0], -r8
    2574:	000011d4 	ldrdeq	r1, [r0], -r4
    2578:	00317309 	eorseq	r7, r1, r9, lsl #6
    257c:	f20b0501 	vrshl.s8	d0, d1, d11
    2580:	03000000 	movweq	r0, #0
    2584:	f9000012 			; <UNDEFINED> instruction: 0xf9000012
    2588:	09000011 	stmdbeq	r0, {r0, r4}
    258c:	01003273 	tsteq	r0, r3, ror r2
    2590:	006b1106 	rsbeq	r1, fp, r6, lsl #2
    2594:	12480000 	subne	r0, r8, #0
    2598:	12440000 	subne	r0, r4, #0
    259c:	63090000 	movwvs	r0, #36864	; 0x9000
    25a0:	0a070100 	beq	1c29a8 <__bss_end__+0x1b94a8>
    25a4:	00000071 	andeq	r0, r0, r1, ror r0
    25a8:	0000126c 	andeq	r1, r0, ip, ror #4
    25ac:	00001268 	andeq	r1, r0, r8, ror #4
    25b0:	71040400 	tstvc	r4, r0, lsl #8
    25b4:	00000000 	andeq	r0, r0, r0
    25b8:	000000b5 	strheq	r0, [r0], -r5
    25bc:	0f120004 	svceq	0x00120004
    25c0:	01040000 	mrseq	r0, (UNDEF: 4)
    25c4:	000000db 	ldrdeq	r0, [r0], -fp
    25c8:	0007230c 	andeq	r2, r7, ip, lsl #6
    25cc:	0001e200 	andeq	lr, r1, r0, lsl #4
    25d0:	008e9400 	addeq	r9, lr, r0, lsl #8
    25d4:	00003000 	andeq	r3, r0, r0
    25d8:	00136b00 	andseq	r6, r3, r0, lsl #22
    25dc:	05040200 	streq	r0, [r4, #-512]	; 0xfffffe00
    25e0:	00746e69 	rsbseq	r6, r4, r9, ror #28
    25e4:	86070403 	strhi	r0, [r7], -r3, lsl #8
    25e8:	03000001 	movweq	r0, #1
    25ec:	00700601 	rsbseq	r0, r0, r1, lsl #12
    25f0:	02030000 	andeq	r0, r3, #0
    25f4:	0001ad05 	andeq	sl, r1, r5, lsl #26
    25f8:	05040300 	streq	r0, [r4, #-768]	; 0xfffffd00
    25fc:	0000019f 	muleq	r0, pc, r1	; <UNPREDICTABLE>
    2600:	9a050803 	bls	144614 <__bss_end__+0x13b114>
    2604:	03000001 	movweq	r0, #1
    2608:	006e0801 	rsbeq	r0, lr, r1, lsl #16
    260c:	02030000 	andeq	r0, r3, #0
    2610:	00009f07 	andeq	r9, r0, r7, lsl #30
    2614:	07040300 	streq	r0, [r4, -r0, lsl #6]
    2618:	00000181 	andeq	r0, r0, r1, lsl #3
    261c:	7c070803 	stcvc	8, cr0, [r7], {3}
    2620:	04000001 	streq	r0, [r0], #-1
    2624:	00007804 	andeq	r7, r0, r4, lsl #16
    2628:	08010300 	stmdaeq	r1, {r8, r9}
    262c:	00000077 	andeq	r0, r0, r7, ror r0
    2630:	00007105 	andeq	r7, r0, r5, lsl #2
    2634:	044b0600 	strbeq	r0, [fp], #-1536	; 0xfffffa00
    2638:	03010000 	movweq	r0, #4096	; 0x1000
    263c:	00002505 	andeq	r2, r0, r5, lsl #10
    2640:	008e9400 	addeq	r9, lr, r0, lsl #8
    2644:	00003000 	andeq	r3, r0, r0
    2648:	079c0100 	ldreq	r0, [ip, r0, lsl #2]
    264c:	03010061 	movweq	r0, #4193	; 0x1061
    2650:	00006b18 	andeq	r6, r0, r8, lsl fp
    2654:	00128e00 	andseq	r8, r2, r0, lsl #28
    2658:	00128a00 	andseq	r8, r2, r0, lsl #20
    265c:	00620700 	rsbeq	r0, r2, r0, lsl #14
    2660:	6b270301 	blvs	9c326c <__bss_end__+0x9b9d6c>
    2664:	b0000000 	andlt	r0, r0, r0
    2668:	ac000012 	stcge	0, cr0, [r0], {18}
    266c:	00000012 	andeq	r0, r0, r2, lsl r0
    2670:	00010c00 	andeq	r0, r1, r0, lsl #24
    2674:	7c000400 	cfstrsvc	mvf0, [r0], {-0}
    2678:	0400000f 	streq	r0, [r0], #-15
    267c:	0000db01 	andeq	sp, r0, r1, lsl #22
    2680:	073a0c00 	ldreq	r0, [sl, -r0, lsl #24]!
    2684:	01e20000 	mvneq	r0, r0
    2688:	00a00000 	adceq	r0, r0, r0
    268c:	00000000 	andeq	r0, r0, r0
    2690:	13dd0000 	bicsne	r0, sp, #0
    2694:	04020000 	streq	r0, [r2], #-0
    2698:	746e6905 	strbtvc	r6, [lr], #-2309	; 0xfffff6fb
    269c:	07330300 	ldreq	r0, [r3, -r0, lsl #6]!
    26a0:	d1020000 	mrsle	r0, (UNDEF: 2)
    26a4:	00003817 	andeq	r3, r0, r7, lsl r8
    26a8:	07040400 	streq	r0, [r4, -r0, lsl #8]
    26ac:	00000186 	andeq	r0, r0, r6, lsl #3
    26b0:	70060104 	andvc	r0, r6, r4, lsl #2
    26b4:	04000000 	streq	r0, [r0], #-0
    26b8:	01ad0502 			; <UNDEFINED> instruction: 0x01ad0502
    26bc:	04040000 	streq	r0, [r4], #-0
    26c0:	00019f05 	andeq	r9, r1, r5, lsl #30
    26c4:	05080400 	streq	r0, [r8, #-1024]	; 0xfffffc00
    26c8:	0000019a 	muleq	r0, sl, r1
    26cc:	6e080104 	adfvse	f0, f0, f4
    26d0:	05000000 	streq	r0, [r0, #-0]
    26d4:	0000005b 	andeq	r0, r0, fp, asr r0
    26d8:	9f070204 	svcls	0x00070204
    26dc:	04000000 	streq	r0, [r0], #-0
    26e0:	01810704 	orreq	r0, r1, r4, lsl #14
    26e4:	08040000 	stmdaeq	r4, {}	; <UNPREDICTABLE>
    26e8:	00017c07 	andeq	r7, r1, r7, lsl #24
    26ec:	89040600 	stmdbhi	r4, {r9, sl}
    26f0:	04000000 	streq	r0, [r0], #-0
    26f4:	00770801 	rsbseq	r0, r7, r1, lsl #16
    26f8:	82050000 	andhi	r0, r5, #0
    26fc:	07000000 	streq	r0, [r0, -r0]
    2700:	00000457 	andeq	r0, r0, r7, asr r4
    2704:	25050401 	strcs	r0, [r5, #-1025]	; 0xfffffbff
    2708:	c4000000 	strgt	r0, [r0], #-0
    270c:	2c00008e 	stccs	0, cr0, [r0], {142}	; 0x8e
    2710:	01000000 	mrseq	r0, (UNDEF: 0)
    2714:	0001099c 	muleq	r1, ip, r9
    2718:	735f0800 	cmpvc	pc, #0, 16
    271c:	04010031 	streq	r0, [r1], #-49	; 0xffffffcf
    2720:	00007c19 	andeq	r7, r0, r9, lsl ip
    2724:	0012d200 	andseq	sp, r2, r0, lsl #4
    2728:	0012ce00 	andseq	ip, r2, r0, lsl #28
    272c:	735f0800 	cmpvc	pc, #0, 16
    2730:	04010032 	streq	r0, [r1], #-50	; 0xffffffce
    2734:	00007c2a 	andeq	r7, r0, sl, lsr #24
    2738:	0012f700 	andseq	pc, r2, r0, lsl #14
    273c:	0012f300 	andseq	pc, r2, r0, lsl #6
    2740:	006e0800 	rsbeq	r0, lr, r0, lsl #16
    2744:	2c360401 	cfldrscs	mvf0, [r6], #-4
    2748:	1e000000 	cdpne	0, 0, cr0, cr0, cr0, {0}
    274c:	18000013 	stmdane	r0, {r0, r1, r4}
    2750:	09000013 	stmdbeq	r0, {r0, r1, r4}
    2754:	01003173 	tsteq	r0, r3, ror r1
    2758:	01091a05 	tsteq	r9, r5, lsl #20
    275c:	13510000 	cmpne	r1, #0
    2760:	13490000 	movtne	r0, #36864	; 0x9000
    2764:	73090000 	movwvc	r0, #36864	; 0x9000
    2768:	05010032 	streq	r0, [r1, #-50]	; 0xffffffce
    276c:	0001092c 	andeq	r0, r1, ip, lsr #18
    2770:	00138d00 	andseq	r8, r3, r0, lsl #26
    2774:	00138700 	andseq	r8, r3, r0, lsl #14
    2778:	04060000 	streq	r0, [r6], #-0
    277c:	00000062 	andeq	r0, r0, r2, rrx
	...

Disassembly of section .debug_abbrev:

00000000 <.debug_abbrev>:
       0:	25011101 	strcs	r1, [r1, #-257]	; 0xfffffeff
       4:	030b130e 	movweq	r1, #45838	; 0xb30e
       8:	110e1b0e 	tstne	lr, lr, lsl #22
       c:	10061201 	andne	r1, r6, r1, lsl #4
      10:	02000017 	andeq	r0, r0, #23
      14:	0b0b0024 	bleq	2c00ac <__bss_end__+0x2b6bac>
      18:	08030b3e 	stmdaeq	r3, {r1, r2, r3, r4, r5, r8, r9, fp}
      1c:	24030000 	strcs	r0, [r3], #-0
      20:	3e0b0b00 	vmlacc.f64	d0, d11, d0
      24:	000e030b 	andeq	r0, lr, fp, lsl #6
      28:	01130400 	tsteq	r3, r0, lsl #8
      2c:	0b3a0b0b 	bleq	e82c60 <__bss_end__+0xe79760>
      30:	0b390b3b 	bleq	e42d24 <__bss_end__+0xe39824>
      34:	00001301 	andeq	r1, r0, r1, lsl #6
      38:	03000d05 	movweq	r0, #3333	; 0xd05
      3c:	3b0b3a08 	blcc	2ce864 <__bss_end__+0x2c5364>
      40:	490b390b 	stmdbmi	fp, {r0, r1, r3, r8, fp, ip, sp}
      44:	000b3813 	andeq	r3, fp, r3, lsl r8
      48:	000d0600 	andeq	r0, sp, r0, lsl #12
      4c:	0b3a0e03 	bleq	e83860 <__bss_end__+0xe7a360>
      50:	0b390b3b 	bleq	e42d44 <__bss_end__+0xe39844>
      54:	0b381349 	bleq	e04d80 <__bss_end__+0xdfb880>
      58:	16070000 	strne	r0, [r7], -r0
      5c:	3a0e0300 	bcc	380c64 <__bss_end__+0x377764>
      60:	390b3b0b 	stmdbcc	fp, {r0, r1, r3, r8, r9, fp, ip, sp}
      64:	0013490b 	andseq	r4, r3, fp, lsl #18
      68:	012e0800 			; <UNDEFINED> instruction: 0x012e0800
      6c:	0e03193f 			; <UNDEFINED> instruction: 0x0e03193f
      70:	0b3b0b3a 	bleq	ec2d60 <__bss_end__+0xeb9860>
      74:	19270b39 	stmdbne	r7!, {r0, r3, r4, r5, r8, r9, fp}
      78:	06120111 			; <UNDEFINED> instruction: 0x06120111
      7c:	42971840 	addsmi	r1, r7, #64, 16	; 0x400000
      80:	00130119 	andseq	r0, r3, r9, lsl r1
      84:	00340900 	eorseq	r0, r4, r0, lsl #18
      88:	0b3a0803 	bleq	e8209c <__bss_end__+0xe78b9c>
      8c:	0b390b3b 	bleq	e42d80 <__bss_end__+0xe39880>
      90:	0b1c1349 	bleq	704dbc <__bss_end__+0x6fb8bc>
      94:	340a0000 	strcc	r0, [sl], #-0
      98:	3a080300 	bcc	200ca0 <__bss_end__+0x1f77a0>
      9c:	390b3b0b 	stmdbcc	fp, {r0, r1, r3, r8, r9, fp, ip, sp}
      a0:	0213490b 	andseq	r4, r3, #180224	; 0x2c000
      a4:	0b000018 	bleq	10c <__code_start__-0x7ef4>
      a8:	0111010b 	tsteq	r1, fp, lsl #2
      ac:	13010612 	movwne	r0, #5650	; 0x1612
      b0:	0b0c0000 	bleq	3000b8 <__bss_end__+0x2f6bb8>
      b4:	01175501 	tsteq	r7, r1, lsl #10
      b8:	0d000013 	stceq	0, cr0, [r0, #-76]	; 0xffffffb4
      bc:	08030034 	stmdaeq	r3, {r2, r4, r5}
      c0:	0b3b0b3a 	bleq	ec2db0 <__bss_end__+0xeb98b0>
      c4:	13490b39 	movtne	r0, #39737	; 0x9b39
      c8:	42b71702 	adcsmi	r1, r7, #524288	; 0x80000
      cc:	0e000017 	mcreq	0, 0, r0, cr0, cr7, {0}
      d0:	1755010b 	ldrbne	r0, [r5, -fp, lsl #2]
      d4:	1d0f0000 	stcne	0, cr0, [pc, #-0]	; dc <__code_start__-0x7f24>
      d8:	52133101 	andspl	r3, r3, #1073741824	; 0x40000000
      dc:	0b42b801 	bleq	10ae0e8 <__bss_end__+0x10a4be8>
      e0:	0b581755 	bleq	1605e3c <__bss_end__+0x15fc93c>
      e4:	0b570b59 	bleq	15c2e50 <__bss_end__+0x15b9950>
      e8:	00001301 	andeq	r1, r0, r1, lsl #6
      ec:	31000510 	tstcc	r0, r0, lsl r5
      f0:	b7170213 			; <UNDEFINED> instruction: 0xb7170213
      f4:	00001742 	andeq	r1, r0, r2, asr #14
      f8:	31003411 	tstcc	r0, r1, lsl r4
      fc:	b7170213 			; <UNDEFINED> instruction: 0xb7170213
     100:	00001742 	andeq	r1, r0, r2, asr #14
     104:	31010b12 	tstcc	r1, r2, lsl fp
     108:	00175513 	andseq	r5, r7, r3, lsl r5
     10c:	82891300 	addhi	r1, r9, #0, 6
     110:	01110101 	tsteq	r1, r1, lsl #2
     114:	00001331 	andeq	r1, r0, r1, lsr r3
     118:	01828a14 	orreq	r8, r2, r4, lsl sl
     11c:	91180200 	tstls	r8, r0, lsl #4
     120:	00001842 	andeq	r1, r0, r2, asr #16
     124:	01828915 	orreq	r8, r2, r5, lsl r9
     128:	31011101 	tstcc	r1, r1, lsl #2
     12c:	00130113 	andseq	r0, r3, r3, lsl r1
     130:	82891600 	addhi	r1, r9, #0, 12
     134:	01110001 	tsteq	r1, r1
     138:	00001331 	andeq	r1, r0, r1, lsr r3
     13c:	49010117 	stmdbmi	r1, {r0, r1, r2, r4, r8}
     140:	00130113 	andseq	r0, r3, r3, lsl r1
     144:	00211800 	eoreq	r1, r1, r0, lsl #16
     148:	0b2f1349 	bleq	bc4e74 <__bss_end__+0xbbb974>
     14c:	2e190000 	cdpcs	0, 1, cr0, cr9, cr0, {0}
     150:	03193f01 	tsteq	r9, #1, 30
     154:	3b0b3a0e 	blcc	2ce994 <__bss_end__+0x2c5494>
     158:	270b390b 	strcs	r3, [fp, -fp, lsl #18]
     15c:	11134919 	tstne	r3, r9, lsl r9
     160:	40061201 	andmi	r1, r6, r1, lsl #4
     164:	19429718 	stmdbne	r2, {r3, r4, r8, r9, sl, ip, pc}^
     168:	00001301 	andeq	r1, r0, r1, lsl #6
     16c:	0300051a 	movweq	r0, #1306	; 0x51a
     170:	3b0b3a08 	blcc	2ce998 <__bss_end__+0x2c5498>
     174:	490b390b 	stmdbmi	fp, {r0, r1, r3, r8, fp, ip, sp}
     178:	b7170213 			; <UNDEFINED> instruction: 0xb7170213
     17c:	00001742 	andeq	r1, r0, r2, asr #14
     180:	0300051b 	movweq	r0, #1307	; 0x51b
     184:	3b0b3a0e 	blcc	2ce9c4 <__bss_end__+0x2c54c4>
     188:	490b390b 	stmdbmi	fp, {r0, r1, r3, r8, fp, ip, sp}
     18c:	b7170213 			; <UNDEFINED> instruction: 0xb7170213
     190:	00001742 	andeq	r1, r0, r2, asr #14
     194:	0300341c 	movweq	r3, #1052	; 0x41c
     198:	3b0b3a0e 	blcc	2ce9d8 <__bss_end__+0x2c54d8>
     19c:	490b390b 	stmdbmi	fp, {r0, r1, r3, r8, fp, ip, sp}
     1a0:	b7170213 			; <UNDEFINED> instruction: 0xb7170213
     1a4:	00001742 	andeq	r1, r0, r2, asr #14
     1a8:	0b000f1d 	bleq	3e24 <__code_start__-0x41dc>
     1ac:	0013490b 	andseq	r4, r3, fp, lsl #18
     1b0:	012e1e00 			; <UNDEFINED> instruction: 0x012e1e00
     1b4:	0b3a0e03 	bleq	e839c8 <__bss_end__+0xe7a4c8>
     1b8:	0b390b3b 	bleq	e42eac <__bss_end__+0xe399ac>
     1bc:	13491927 	movtne	r1, #39207	; 0x9927
     1c0:	13010b20 	movwne	r0, #6944	; 0x1b20
     1c4:	051f0000 	ldreq	r0, [pc, #-0]	; 1cc <__code_start__-0x7e34>
     1c8:	3a080300 	bcc	200dd0 <__bss_end__+0x1f78d0>
     1cc:	390b3b0b 	stmdbcc	fp, {r0, r1, r3, r8, r9, fp, ip, sp}
     1d0:	0013490b 	andseq	r4, r3, fp, lsl #18
     1d4:	00052000 	andeq	r2, r5, r0
     1d8:	0b3a0e03 	bleq	e839ec <__bss_end__+0xe7a4ec>
     1dc:	0b390b3b 	bleq	e42ed0 <__bss_end__+0xe399d0>
     1e0:	00001349 	andeq	r1, r0, r9, asr #6
     1e4:	03003421 	movweq	r3, #1057	; 0x421
     1e8:	3b0b3a08 	blcc	2cea10 <__bss_end__+0x2c5510>
     1ec:	490b390b 	stmdbmi	fp, {r0, r1, r3, r8, fp, ip, sp}
     1f0:	22000013 	andcs	r0, r0, #19
     1f4:	0e030034 	mcreq	0, 0, r0, cr3, cr4, {1}
     1f8:	0b3b0b3a 	bleq	ec2ee8 <__bss_end__+0xeb99e8>
     1fc:	13490b39 	movtne	r0, #39737	; 0x9b39
     200:	0b230000 	bleq	8c0208 <__bss_end__+0x8b6d08>
     204:	24000001 	strcs	r0, [r0], #-1
     208:	193f002e 	ldmdbne	pc!, {r1, r2, r3, r5}	; <UNPREDICTABLE>
     20c:	0e6e193c 			; <UNDEFINED> instruction: 0x0e6e193c
     210:	0b3a0e03 	bleq	e83a24 <__bss_end__+0xe7a524>
     214:	0b390b3b 	bleq	e42f08 <__bss_end__+0xe39a08>
     218:	01000000 	mrseq	r0, (UNDEF: 0)
     21c:	0e250111 	mcreq	1, 1, r0, cr5, cr1, {0}
     220:	0e030b13 	vmoveq.32	d3[0], r0
     224:	01110e1b 	tsteq	r1, fp, lsl lr
     228:	17100612 			; <UNDEFINED> instruction: 0x17100612
     22c:	24020000 	strcs	r0, [r2], #-0
     230:	3e0b0b00 	vmlacc.f64	d0, d11, d0
     234:	0008030b 	andeq	r0, r8, fp, lsl #6
     238:	00240300 	eoreq	r0, r4, r0, lsl #6
     23c:	0b3e0b0b 	bleq	f82e70 <__bss_end__+0xf79970>
     240:	00000e03 	andeq	r0, r0, r3, lsl #28
     244:	49002604 	stmdbmi	r0, {r2, r9, sl, sp}
     248:	05000013 	streq	r0, [r0, #-19]	; 0xffffffed
     24c:	0e030016 	mcreq	0, 0, r0, cr3, cr6, {0}
     250:	0b3b0b3a 	bleq	ec2f40 <__bss_end__+0xeb9a40>
     254:	13490b39 	movtne	r0, #39737	; 0x9b39
     258:	04060000 	streq	r0, [r6], #-0
     25c:	0b0b3e01 	bleq	2cfa68 <__bss_end__+0x2c6568>
     260:	3a13490b 	bcc	4d2694 <__bss_end__+0x4c9194>
     264:	390b3b0b 	stmdbcc	fp, {r0, r1, r3, r8, r9, fp, ip, sp}
     268:	0013010b 	andseq	r0, r3, fp, lsl #2
     26c:	00280700 	eoreq	r0, r8, r0, lsl #14
     270:	0b1c0e03 	bleq	703a84 <__bss_end__+0x6fa584>
     274:	34080000 	strcc	r0, [r8], #-0
     278:	3a0e0300 	bcc	380e80 <__bss_end__+0x377980>
     27c:	390b3b0b 	stmdbcc	fp, {r0, r1, r3, r8, r9, fp, ip, sp}
     280:	1c13490b 			; <UNDEFINED> instruction: 0x1c13490b
     284:	09000006 	stmdbeq	r0, {r1, r2}
     288:	193f012e 	ldmdbne	pc!, {r1, r2, r3, r5, r8}	; <UNPREDICTABLE>
     28c:	0b3a0e03 	bleq	e83aa0 <__bss_end__+0xe7a5a0>
     290:	0b390b3b 	bleq	e42f84 <__bss_end__+0xe39a84>
     294:	13491927 	movtne	r1, #39207	; 0x9927
     298:	06120111 			; <UNDEFINED> instruction: 0x06120111
     29c:	42971840 	addsmi	r1, r7, #64, 16	; 0x400000
     2a0:	00130119 	andseq	r0, r3, r9, lsl r1
     2a4:	00050a00 	andeq	r0, r5, r0, lsl #20
     2a8:	0b3a0803 	bleq	e822bc <__bss_end__+0xe78dbc>
     2ac:	0b390b3b 	bleq	e42fa0 <__bss_end__+0xe39aa0>
     2b0:	17021349 	strne	r1, [r2, -r9, asr #6]
     2b4:	001742b7 			; <UNDEFINED> instruction: 0x001742b7
     2b8:	00340b00 	eorseq	r0, r4, r0, lsl #22
     2bc:	0b3a0e03 	bleq	e83ad0 <__bss_end__+0xe7a5d0>
     2c0:	0b390b3b 	bleq	e42fb4 <__bss_end__+0xe39ab4>
     2c4:	17021349 	strne	r1, [r2, -r9, asr #6]
     2c8:	001742b7 			; <UNDEFINED> instruction: 0x001742b7
     2cc:	00340c00 	eorseq	r0, r4, r0, lsl #24
     2d0:	0b3a0803 	bleq	e822e4 <__bss_end__+0xe78de4>
     2d4:	0b390b3b 	bleq	e42fc8 <__bss_end__+0xe39ac8>
     2d8:	17021349 	strne	r1, [r2, -r9, asr #6]
     2dc:	001742b7 			; <UNDEFINED> instruction: 0x001742b7
     2e0:	82890d00 	addhi	r0, r9, #0, 26
     2e4:	01110101 	tsteq	r1, r1, lsl #2
     2e8:	00001331 	andeq	r1, r0, r1, lsr r3
     2ec:	01828a0e 	orreq	r8, r2, lr, lsl #20
     2f0:	91180200 	tstls	r8, r0, lsl #4
     2f4:	00001842 	andeq	r1, r0, r2, asr #16
     2f8:	3f012e0f 	svccc	0x00012e0f
     2fc:	3a0e0319 	bcc	380f68 <__bss_end__+0x377a68>
     300:	390b3b0b 	stmdbcc	fp, {r0, r1, r3, r8, r9, fp, ip, sp}
     304:	1119270b 	tstne	r9, fp, lsl #14
     308:	40061201 	andmi	r1, r6, r1, lsl #4
     30c:	19429718 	stmdbne	r2, {r3, r4, r8, r9, sl, ip, pc}^
     310:	00001301 	andeq	r1, r0, r1, lsl #6
     314:	01828910 	orreq	r8, r2, r0, lsl r9
     318:	31011101 	tstcc	r1, r1, lsl #2
     31c:	00130113 	andseq	r0, r3, r3, lsl r1
     320:	82891100 	addhi	r1, r9, #0, 2
     324:	01110001 	tsteq	r1, r1
     328:	00001331 	andeq	r1, r0, r1, lsr r3
     32c:	03000512 	movweq	r0, #1298	; 0x512
     330:	3b0b3a0e 	blcc	2ceb70 <__bss_end__+0x2c5670>
     334:	490b390b 	stmdbmi	fp, {r0, r1, r3, r8, fp, ip, sp}
     338:	b7170213 			; <UNDEFINED> instruction: 0xb7170213
     33c:	00001742 	andeq	r1, r0, r2, asr #14
     340:	03012e13 	movweq	r2, #7699	; 0x1e13
     344:	3b0b3a0e 	blcc	2ceb84 <__bss_end__+0x2c5684>
     348:	270b390b 	strcs	r3, [fp, -fp, lsl #18]
     34c:	20134919 	andscs	r4, r3, r9, lsl r9
     350:	0013010b 	andseq	r0, r3, fp, lsl #2
     354:	00051400 	andeq	r1, r5, r0, lsl #8
     358:	0b3a0803 	bleq	e8236c <__bss_end__+0xe78e6c>
     35c:	0b390b3b 	bleq	e43050 <__bss_end__+0xe39b50>
     360:	00001349 	andeq	r1, r0, r9, asr #6
     364:	3f002e15 	svccc	0x00002e15
     368:	6e193c19 	mrcvs	12, 0, r3, cr9, cr9, {0}
     36c:	3a0e030e 	bcc	380fac <__bss_end__+0x377aac>
     370:	390b3b0b 	stmdbcc	fp, {r0, r1, r3, r8, r9, fp, ip, sp}
     374:	0000000b 	andeq	r0, r0, fp
     378:	25011101 	strcs	r1, [r1, #-257]	; 0xfffffeff
     37c:	030b130e 	movweq	r1, #45838	; 0xb30e
     380:	110e1b0e 	tstne	lr, lr, lsl #22
     384:	10061201 	andne	r1, r6, r1, lsl #4
     388:	02000017 	andeq	r0, r0, #23
     38c:	0e030016 	mcreq	0, 0, r0, cr3, cr6, {0}
     390:	0b3b0b3a 	bleq	ec3080 <__bss_end__+0xeb9b80>
     394:	13490b39 	movtne	r0, #39737	; 0x9b39
     398:	13030000 	movwne	r0, #12288	; 0x3000
     39c:	0b0e0301 	bleq	380fa8 <__bss_end__+0x377aa8>
     3a0:	3b0b3a0b 	blcc	2cebd4 <__bss_end__+0x2c56d4>
     3a4:	0013010b 	andseq	r0, r3, fp, lsl #2
     3a8:	000d0400 	andeq	r0, sp, r0, lsl #8
     3ac:	13490e03 	movtne	r0, #40451	; 0x9e03
     3b0:	19340b38 	ldmdbne	r4!, {r3, r4, r5, r8, r9, fp}
     3b4:	0f050000 	svceq	0x00050000
     3b8:	000b0b00 	andeq	r0, fp, r0, lsl #22
     3bc:	00240600 	eoreq	r0, r4, r0, lsl #12
     3c0:	0b3e0b0b 	bleq	f82ff4 <__bss_end__+0xf79af4>
     3c4:	00000803 	andeq	r0, r0, r3, lsl #16
     3c8:	0b002407 	bleq	93ec <buf.0+0x2ec>
     3cc:	030b3e0b 	movweq	r3, #48651	; 0xbe0b
     3d0:	0800000e 	stmdaeq	r0, {r1, r2, r3}
     3d4:	19270115 	stmdbne	r7!, {r0, r2, r4, r8}
     3d8:	13011349 	movwne	r1, #4937	; 0x1349
     3dc:	05090000 	streq	r0, [r9, #-0]
     3e0:	00134900 	andseq	r4, r3, r0, lsl #18
     3e4:	000f0a00 	andeq	r0, pc, r0, lsl #20
     3e8:	13490b0b 	movtne	r0, #39691	; 0x9b0b
     3ec:	260b0000 	strcs	r0, [fp], -r0
     3f0:	00134900 	andseq	r4, r3, r0, lsl #18
     3f4:	00340c00 	eorseq	r0, r4, r0, lsl #24
     3f8:	0b3a0e03 	bleq	e83c0c <__bss_end__+0xe7a70c>
     3fc:	0b390b3b 	bleq	e430f0 <__bss_end__+0xe39bf0>
     400:	193f1349 	ldmdbne	pc!, {r0, r3, r6, r8, r9, ip}	; <UNPREDICTABLE>
     404:	0000193c 	andeq	r1, r0, ip, lsr r9
     408:	3f012e0d 	svccc	0x00012e0d
     40c:	3a0e0319 	bcc	381078 <__bss_end__+0x377b78>
     410:	390b3b0b 	stmdbcc	fp, {r0, r1, r3, r8, r9, fp, ip, sp}
     414:	4919270b 	ldmdbmi	r9, {r0, r1, r3, r8, r9, sl, sp}
     418:	12011113 	andne	r1, r1, #-1073741820	; 0xc0000004
     41c:	97184006 	ldrls	r4, [r8, -r6]
     420:	13011942 	movwne	r1, #6466	; 0x1942
     424:	050e0000 	streq	r0, [lr, #-0]
     428:	3a080300 	bcc	201030 <__bss_end__+0x1f7b30>
     42c:	390b3b0b 	stmdbcc	fp, {r0, r1, r3, r8, r9, fp, ip, sp}
     430:	0213490b 	andseq	r4, r3, #180224	; 0x2c000
     434:	0f000018 	svceq	0x00000018
     438:	00000018 	andeq	r0, r0, r8, lsl r0
     43c:	03003410 	movweq	r3, #1040	; 0x410
     440:	3b0b3a08 	blcc	2cec68 <__bss_end__+0x2c5768>
     444:	490b390b 	stmdbmi	fp, {r0, r1, r3, r8, fp, ip, sp}
     448:	00180213 	andseq	r0, r8, r3, lsl r2
     44c:	00341100 	eorseq	r1, r4, r0, lsl #2
     450:	0b3a0e03 	bleq	e83c64 <__bss_end__+0xe7a764>
     454:	0b390b3b 	bleq	e43148 <__bss_end__+0xe39c48>
     458:	18021349 	stmdane	r2, {r0, r3, r6, r8, r9, ip}
     45c:	34120000 	ldrcc	r0, [r2], #-0
     460:	3a080300 	bcc	201068 <__bss_end__+0x1f7b68>
     464:	390b3b0b 	stmdbcc	fp, {r0, r1, r3, r8, r9, fp, ip, sp}
     468:	0213490b 	andseq	r4, r3, #180224	; 0x2c000
     46c:	1742b717 	smlaldne	fp, r2, r7, r7
     470:	89130000 	ldmdbhi	r3, {}	; <UNPREDICTABLE>
     474:	11010182 	smlabbne	r1, r2, r1, r0
     478:	01133101 	tsteq	r3, r1, lsl #2
     47c:	14000013 	strne	r0, [r0], #-19	; 0xffffffed
     480:	0001828a 	andeq	r8, r1, sl, lsl #5
     484:	42911802 	addsmi	r1, r1, #131072	; 0x20000
     488:	15000018 	strne	r0, [r0, #-24]	; 0xffffffe8
     48c:	01018289 	smlabbeq	r1, r9, r2, r8
     490:	00000111 	andeq	r0, r0, r1, lsl r1
     494:	49010116 	stmdbmi	r1, {r1, r2, r4, r8}
     498:	00130113 	andseq	r0, r3, r3, lsl r1
     49c:	00211700 	eoreq	r1, r1, r0, lsl #14
     4a0:	052f1349 	streq	r1, [pc, #-841]!	; 15f <__code_start__-0x7ea1>
     4a4:	2e180000 	cdpcs	0, 1, cr0, cr8, cr0, {0}
     4a8:	3c193f00 	ldccc	15, cr3, [r9], {-0}
     4ac:	030e6e19 	movweq	r6, #60953	; 0xee19
     4b0:	3b0b3a0e 	blcc	2cecf0 <__bss_end__+0x2c57f0>
     4b4:	000b390b 	andeq	r3, fp, fp, lsl #18
     4b8:	11010000 	mrsne	r0, (UNDEF: 1)
     4bc:	130e2501 	movwne	r2, #58625	; 0xe501
     4c0:	1b0e030b 	blne	3810f4 <__bss_end__+0x377bf4>
     4c4:	1201110e 	andne	r1, r1, #-2147483645	; 0x80000003
     4c8:	00171006 	andseq	r1, r7, r6
     4cc:	00240200 	eoreq	r0, r4, r0, lsl #4
     4d0:	0b3e0b0b 	bleq	f83104 <__bss_end__+0xf79c04>
     4d4:	00000803 	andeq	r0, r0, r3, lsl #16
     4d8:	0b002403 	bleq	94ec <buf.0+0x3ec>
     4dc:	030b3e0b 	movweq	r3, #48651	; 0xbe0b
     4e0:	0400000e 	streq	r0, [r0], #-14
     4e4:	19270115 	stmdbne	r7!, {r0, r2, r4, r8}
     4e8:	13011349 	movwne	r1, #4937	; 0x1349
     4ec:	05050000 	streq	r0, [r5, #-0]
     4f0:	00134900 	andseq	r4, r3, r0, lsl #18
     4f4:	00340600 	eorseq	r0, r4, r0, lsl #12
     4f8:	0b3a0e03 	bleq	e83d0c <__bss_end__+0xe7a80c>
     4fc:	0b390b3b 	bleq	e431f0 <__bss_end__+0xe39cf0>
     500:	193f1349 	ldmdbne	pc!, {r0, r3, r6, r8, r9, ip}	; <UNPREDICTABLE>
     504:	0000193c 	andeq	r1, r0, ip, lsr r9
     508:	0b000f07 	bleq	412c <__code_start__-0x3ed4>
     50c:	0013490b 	andseq	r4, r3, fp, lsl #18
     510:	00260800 	eoreq	r0, r6, r0, lsl #16
     514:	00001349 	andeq	r1, r0, r9, asr #6
     518:	47003409 	strmi	r3, [r0, -r9, lsl #8]
     51c:	3b0b3a13 	blcc	2ced70 <__bss_end__+0x2c5870>
     520:	020b390b 	andeq	r3, fp, #180224	; 0x2c000
     524:	0a000018 	beq	58c <__code_start__-0x7a74>
     528:	193f012e 	ldmdbne	pc!, {r1, r2, r3, r5, r8}	; <UNPREDICTABLE>
     52c:	0b3a0e03 	bleq	e83d40 <__bss_end__+0xe7a840>
     530:	0b390b3b 	bleq	e43224 <__bss_end__+0xe39d24>
     534:	13491927 	movtne	r1, #39207	; 0x9927
     538:	06120111 			; <UNDEFINED> instruction: 0x06120111
     53c:	42961840 	addsmi	r1, r6, #64, 16	; 0x400000
     540:	0b000019 	bleq	5ac <__code_start__-0x7a54>
     544:	08030005 	stmdaeq	r3, {r0, r2}
     548:	0b3b0b3a 	bleq	ec3238 <__bss_end__+0xeb9d38>
     54c:	13490b39 	movtne	r0, #39737	; 0x9b39
     550:	42b71702 	adcsmi	r1, r7, #524288	; 0x80000
     554:	00000017 	andeq	r0, r0, r7, lsl r0
     558:	25011101 	strcs	r1, [r1, #-257]	; 0xfffffeff
     55c:	030b130e 	movweq	r1, #45838	; 0xb30e
     560:	110e1b0e 	tstne	lr, lr, lsl #22
     564:	10061201 	andne	r1, r6, r1, lsl #4
     568:	02000017 	andeq	r0, r0, #23
     56c:	0b0b0024 	bleq	2c0604 <__bss_end__+0x2b7104>
     570:	08030b3e 	stmdaeq	r3, {r1, r2, r3, r4, r5, r8, r9, fp}
     574:	24030000 	strcs	r0, [r3], #-0
     578:	3e0b0b00 	vmlacc.f64	d0, d11, d0
     57c:	000e030b 	andeq	r0, lr, fp, lsl #6
     580:	01150400 	tsteq	r5, r0, lsl #8
     584:	13491927 	movtne	r1, #39207	; 0x9927
     588:	00001301 	andeq	r1, r0, r1, lsl #6
     58c:	49000505 	stmdbmi	r0, {r0, r2, r8, sl}
     590:	06000013 			; <UNDEFINED> instruction: 0x06000013
     594:	0e030034 	mcreq	0, 0, r0, cr3, cr4, {1}
     598:	0b3b0b3a 	bleq	ec3288 <__bss_end__+0xeb9d88>
     59c:	13490b39 	movtne	r0, #39737	; 0x9b39
     5a0:	193c193f 	ldmdbne	ip!, {r0, r1, r2, r3, r4, r5, r8, fp, ip}
     5a4:	0f070000 	svceq	0x00070000
     5a8:	490b0b00 	stmdbmi	fp, {r8, r9, fp}
     5ac:	08000013 	stmdaeq	r0, {r0, r1, r4}
     5b0:	13470034 	movtne	r0, #28724	; 0x7034
     5b4:	0b3b0b3a 	bleq	ec32a4 <__bss_end__+0xeb9da4>
     5b8:	18020b39 	stmdane	r2, {r0, r3, r4, r5, r8, r9, fp}
     5bc:	2e090000 	cdpcs	0, 0, cr0, cr9, cr0, {0}
     5c0:	03193f01 	tsteq	r9, #1, 30
     5c4:	3b0b3a0e 	blcc	2cee04 <__bss_end__+0x2c5904>
     5c8:	270b390b 	strcs	r3, [fp, -fp, lsl #18]
     5cc:	12011119 	andne	r1, r1, #1073741830	; 0x40000006
     5d0:	97184006 	ldrls	r4, [r8, -r6]
     5d4:	13011942 	movwne	r1, #6466	; 0x1942
     5d8:	050a0000 	streq	r0, [sl, #-0]
     5dc:	3a080300 	bcc	2011e4 <__bss_end__+0x1f7ce4>
     5e0:	390b3b0b 	stmdbcc	fp, {r0, r1, r3, r8, r9, fp, ip, sp}
     5e4:	0213490b 	andseq	r4, r3, #180224	; 0x2c000
     5e8:	0b000018 	bleq	650 <__code_start__-0x79b0>
     5ec:	193f002e 	ldmdbne	pc!, {r1, r2, r3, r5}	; <UNPREDICTABLE>
     5f0:	0b3a0e03 	bleq	e83e04 <__bss_end__+0xe7a904>
     5f4:	0b390b3b 	bleq	e432e8 <__bss_end__+0xe39de8>
     5f8:	01111927 	tsteq	r1, r7, lsr #18
     5fc:	18400612 	stmdane	r0, {r1, r4, r9, sl}^
     600:	00194297 	mulseq	r9, r7, r2
     604:	012e0c00 			; <UNDEFINED> instruction: 0x012e0c00
     608:	0b3a0e03 	bleq	e83e1c <__bss_end__+0xe7a91c>
     60c:	0b390b3b 	bleq	e43300 <__bss_end__+0xe39e00>
     610:	13491927 	movtne	r1, #39207	; 0x9927
     614:	06120111 			; <UNDEFINED> instruction: 0x06120111
     618:	42971840 	addsmi	r1, r7, #64, 16	; 0x400000
     61c:	00130119 	andseq	r0, r3, r9, lsl r1
     620:	00050d00 	andeq	r0, r5, r0, lsl #26
     624:	0b3a0803 	bleq	e82638 <__bss_end__+0xe79138>
     628:	0b390b3b 	bleq	e4331c <__bss_end__+0xe39e1c>
     62c:	17021349 	strne	r1, [r2, -r9, asr #6]
     630:	001742b7 			; <UNDEFINED> instruction: 0x001742b7
     634:	82890e00 	addhi	r0, r9, #0, 28
     638:	01110101 	tsteq	r1, r1, lsl #2
     63c:	00001331 	andeq	r1, r0, r1, lsr r3
     640:	01828a0f 	orreq	r8, r2, pc, lsl #20
     644:	91180200 	tstls	r8, r0, lsl #4
     648:	00001842 	andeq	r1, r0, r2, asr #16
     64c:	3f002e10 	svccc	0x00002e10
     650:	6e193c19 	mrcvs	12, 0, r3, cr9, cr9, {0}
     654:	3a0e030e 	bcc	381294 <__bss_end__+0x377d94>
     658:	390b3b0b 	stmdbcc	fp, {r0, r1, r3, r8, r9, fp, ip, sp}
     65c:	0000000b 	andeq	r0, r0, fp
     660:	25011101 	strcs	r1, [r1, #-257]	; 0xfffffeff
     664:	030b130e 	movweq	r1, #45838	; 0xb30e
     668:	110e1b0e 	tstne	lr, lr, lsl #22
     66c:	10061201 	andne	r1, r6, r1, lsl #4
     670:	02000017 	andeq	r0, r0, #23
     674:	0b0b0024 	bleq	2c070c <__bss_end__+0x2b720c>
     678:	08030b3e 	stmdaeq	r3, {r1, r2, r3, r4, r5, r8, r9, fp}
     67c:	24030000 	strcs	r0, [r3], #-0
     680:	3e0b0b00 	vmlacc.f64	d0, d11, d0
     684:	000e030b 	andeq	r0, lr, fp, lsl #6
     688:	00160400 	andseq	r0, r6, r0, lsl #8
     68c:	0b3a0e03 	bleq	e83ea0 <__bss_end__+0xe7a9a0>
     690:	0b390b3b 	bleq	e43384 <__bss_end__+0xe39e84>
     694:	00001349 	andeq	r1, r0, r9, asr #6
     698:	27011505 	strcs	r1, [r1, -r5, lsl #10]
     69c:	01134919 	tsteq	r3, r9, lsl r9
     6a0:	06000013 			; <UNDEFINED> instruction: 0x06000013
     6a4:	13490005 	movtne	r0, #36869	; 0x9005
     6a8:	34070000 	strcc	r0, [r7], #-0
     6ac:	3a0e0300 	bcc	3812b4 <__bss_end__+0x377db4>
     6b0:	390b3b0b 	stmdbcc	fp, {r0, r1, r3, r8, r9, fp, ip, sp}
     6b4:	3f13490b 	svccc	0x0013490b
     6b8:	00193c19 	andseq	r3, r9, r9, lsl ip
     6bc:	000f0800 	andeq	r0, pc, r0, lsl #16
     6c0:	13490b0b 	movtne	r0, #39691	; 0x9b0b
     6c4:	26090000 	strcs	r0, [r9], -r0
     6c8:	00134900 	andseq	r4, r3, r0, lsl #18
     6cc:	01130a00 	tsteq	r3, r0, lsl #20
     6d0:	0b0b0e03 	bleq	2c3ee4 <__bss_end__+0x2ba9e4>
     6d4:	0b3b0b3a 	bleq	ec33c4 <__bss_end__+0xeb9ec4>
     6d8:	00001301 	andeq	r1, r0, r1, lsl #6
     6dc:	03000d0b 	movweq	r0, #3339	; 0xd0b
     6e0:	3813490e 	ldmdacc	r3, {r1, r2, r3, r8, fp, lr}
     6e4:	0019340b 	andseq	r3, r9, fp, lsl #8
     6e8:	000f0c00 	andeq	r0, pc, r0, lsl #24
     6ec:	00000b0b 	andeq	r0, r0, fp, lsl #22
     6f0:	3f012e0d 	svccc	0x00012e0d
     6f4:	3a0e0319 	bcc	381360 <__bss_end__+0x377e60>
     6f8:	390b3b0b 	stmdbcc	fp, {r0, r1, r3, r8, r9, fp, ip, sp}
     6fc:	4919270b 	ldmdbmi	r9, {r0, r1, r3, r8, r9, sl, sp}
     700:	12011113 	andne	r1, r1, #-1073741820	; 0xc0000004
     704:	97184006 	ldrls	r4, [r8, -r6]
     708:	13011942 	movwne	r1, #6466	; 0x1942
     70c:	050e0000 	streq	r0, [lr, #-0]
     710:	3a080300 	bcc	201318 <__bss_end__+0x1f7e18>
     714:	390b3b0b 	stmdbcc	fp, {r0, r1, r3, r8, r9, fp, ip, sp}
     718:	0213490b 	andseq	r4, r3, #180224	; 0x2c000
     71c:	1742b717 	smlaldne	fp, r2, r7, r7
     720:	050f0000 	streq	r0, [pc, #-0]	; 728 <__code_start__-0x78d8>
     724:	3a0e0300 	bcc	38132c <__bss_end__+0x377e2c>
     728:	390b3b0b 	stmdbcc	fp, {r0, r1, r3, r8, r9, fp, ip, sp}
     72c:	0213490b 	andseq	r4, r3, #180224	; 0x2c000
     730:	10000018 	andne	r0, r0, r8, lsl r0
     734:	08030034 	stmdaeq	r3, {r2, r4, r5}
     738:	0b3b0b3a 	bleq	ec3428 <__bss_end__+0xeb9f28>
     73c:	13490b39 	movtne	r0, #39737	; 0x9b39
     740:	42b71702 	adcsmi	r1, r7, #524288	; 0x80000
     744:	11000017 	tstne	r0, r7, lsl r0
     748:	0e030034 	mcreq	0, 0, r0, cr3, cr4, {1}
     74c:	0b3b0b3a 	bleq	ec343c <__bss_end__+0xeb9f3c>
     750:	13490b39 	movtne	r0, #39737	; 0x9b39
     754:	42b71702 	adcsmi	r1, r7, #524288	; 0x80000
     758:	12000017 	andne	r0, r0, #23
     75c:	0e030034 	mcreq	0, 0, r0, cr3, cr4, {1}
     760:	19341349 	ldmdbne	r4!, {r0, r3, r6, r8, r9, ip}
     764:	00001802 	andeq	r1, r0, r2, lsl #16
     768:	11010b13 	tstne	r1, r3, lsl fp
     76c:	00061201 	andeq	r1, r6, r1, lsl #4
     770:	00341400 	eorseq	r1, r4, r0, lsl #8
     774:	0b3a0803 	bleq	e82788 <__bss_end__+0xe79288>
     778:	0b390b3b 	bleq	e4346c <__bss_end__+0xe39f6c>
     77c:	18021349 	stmdane	r2, {r0, r3, r6, r8, r9, ip}
     780:	34150000 	ldrcc	r0, [r5], #-0
     784:	3a0e0300 	bcc	38138c <__bss_end__+0x377e8c>
     788:	390b3b0b 	stmdbcc	fp, {r0, r1, r3, r8, r9, fp, ip, sp}
     78c:	0213490b 	andseq	r4, r3, #180224	; 0x2c000
     790:	16000018 			; <UNDEFINED> instruction: 0x16000018
     794:	0111010b 	tsteq	r1, fp, lsl #2
     798:	13010612 	movwne	r0, #5650	; 0x1612
     79c:	34170000 	ldrcc	r0, [r7], #-0
     7a0:	3a080300 	bcc	2013a8 <__bss_end__+0x1f7ea8>
     7a4:	390b3b0b 	stmdbcc	fp, {r0, r1, r3, r8, r9, fp, ip, sp}
     7a8:	0013490b 	andseq	r4, r3, fp, lsl #18
     7ac:	82891800 	addhi	r1, r9, #0, 16
     7b0:	01110101 	tsteq	r1, r1, lsl #2
     7b4:	13011331 	movwne	r1, #4913	; 0x1331
     7b8:	8a190000 	bhi	6407c0 <__bss_end__+0x6372c0>
     7bc:	02000182 	andeq	r0, r0, #-2147483616	; 0x80000020
     7c0:	18429118 	stmdane	r2, {r3, r4, r8, ip, pc}^
     7c4:	891a0000 	ldmdbhi	sl, {}	; <UNPREDICTABLE>
     7c8:	11000182 	smlabbne	r0, r2, r1, r0
     7cc:	00133101 	andseq	r3, r3, r1, lsl #2
     7d0:	82891b00 	addhi	r1, r9, #0, 22
     7d4:	01110101 	tsteq	r1, r1, lsl #2
     7d8:	00001301 	andeq	r1, r0, r1, lsl #6
     7dc:	4901011c 	stmdbmi	r1, {r2, r3, r4, r8}
     7e0:	00130113 	andseq	r0, r3, r3, lsl r1
     7e4:	00211d00 	eoreq	r1, r1, r0, lsl #26
     7e8:	0b2f1349 	bleq	bc5514 <__bss_end__+0xbbc014>
     7ec:	2e1e0000 	cdpcs	0, 1, cr0, cr14, cr0, {0}
     7f0:	3a0e0301 	bcc	3813fc <__bss_end__+0x377efc>
     7f4:	390b3b0b 	stmdbcc	fp, {r0, r1, r3, r8, r9, fp, ip, sp}
     7f8:	4919270b 	ldmdbmi	r9, {r0, r1, r3, r8, r9, sl, sp}
     7fc:	12011113 	andne	r1, r1, #-1073741820	; 0xc0000004
     800:	97184006 	ldrls	r4, [r8, -r6]
     804:	13011942 	movwne	r1, #6466	; 0x1942
     808:	051f0000 	ldreq	r0, [pc, #-0]	; 810 <__code_start__-0x77f0>
     80c:	3a0e0300 	bcc	381414 <__bss_end__+0x377f14>
     810:	390b3b0b 	stmdbcc	fp, {r0, r1, r3, r8, r9, fp, ip, sp}
     814:	0213490b 	andseq	r4, r3, #180224	; 0x2c000
     818:	1742b717 	smlaldne	fp, r2, r7, r7
     81c:	2e200000 	cdpcs	0, 2, cr0, cr0, cr0, {0}
     820:	3a080301 	bcc	20142c <__bss_end__+0x1f7f2c>
     824:	390b3b0b 	stmdbcc	fp, {r0, r1, r3, r8, r9, fp, ip, sp}
     828:	4919270b 	ldmdbmi	r9, {r0, r1, r3, r8, r9, sl, sp}
     82c:	12011113 	andne	r1, r1, #-1073741820	; 0xc0000004
     830:	97184006 	ldrls	r4, [r8, -r6]
     834:	13011942 	movwne	r1, #6466	; 0x1942
     838:	2e210000 	cdpcs	0, 2, cr0, cr1, cr0, {0}
     83c:	03193f01 	tsteq	r9, #1, 30
     840:	3b0b3a0e 	blcc	2cf080 <__bss_end__+0x2c5b80>
     844:	270b390b 	strcs	r3, [fp, -fp, lsl #18]
     848:	12011119 	andne	r1, r1, #1073741830	; 0x40000006
     84c:	97184006 	ldrls	r4, [r8, -r6]
     850:	13011942 	movwne	r1, #6466	; 0x1942
     854:	2e220000 	cdpcs	0, 2, cr0, cr2, cr0, {0}
     858:	3c193f00 	ldccc	15, cr3, [r9], {-0}
     85c:	030e6e19 	movweq	r6, #60953	; 0xee19
     860:	3b0b3a0e 	blcc	2cf0a0 <__bss_end__+0x2c5ba0>
     864:	000b390b 	andeq	r3, fp, fp, lsl #18
     868:	11010000 	mrsne	r0, (UNDEF: 1)
     86c:	130e2501 	movwne	r2, #58625	; 0xe501
     870:	1b0e030b 	blne	3814a4 <__bss_end__+0x377fa4>
     874:	1201110e 	andne	r1, r1, #-2147483645	; 0x80000003
     878:	00171006 	andseq	r1, r7, r6
     87c:	00240200 	eoreq	r0, r4, r0, lsl #4
     880:	0b3e0b0b 	bleq	f834b4 <__bss_end__+0xf79fb4>
     884:	00000803 	andeq	r0, r0, r3, lsl #16
     888:	0b002403 	bleq	989c <__bss_end__+0x39c>
     88c:	030b3e0b 	movweq	r3, #48651	; 0xbe0b
     890:	0400000e 	streq	r0, [r0], #-14
     894:	19270115 	stmdbne	r7!, {r0, r2, r4, r8}
     898:	13011349 	movwne	r1, #4937	; 0x1349
     89c:	05050000 	streq	r0, [r5, #-0]
     8a0:	00134900 	andseq	r4, r3, r0, lsl #18
     8a4:	000f0600 	andeq	r0, pc, r0, lsl #12
     8a8:	13490b0b 	movtne	r0, #39691	; 0x9b0b
     8ac:	26070000 	strcs	r0, [r7], -r0
     8b0:	00134900 	andseq	r4, r3, r0, lsl #18
     8b4:	00340800 	eorseq	r0, r4, r0, lsl #16
     8b8:	0b3a0e03 	bleq	e840cc <__bss_end__+0xe7abcc>
     8bc:	0b390b3b 	bleq	e435b0 <__bss_end__+0xe3a0b0>
     8c0:	193f1349 	ldmdbne	pc!, {r0, r3, r6, r8, r9, ip}	; <UNPREDICTABLE>
     8c4:	0000193c 	andeq	r1, r0, ip, lsr r9
     8c8:	3f012e09 	svccc	0x00012e09
     8cc:	3a0e0319 	bcc	381538 <__bss_end__+0x378038>
     8d0:	390b3b0b 	stmdbcc	fp, {r0, r1, r3, r8, r9, fp, ip, sp}
     8d4:	8719270b 	ldrhi	r2, [r9, -fp, lsl #14]
     8d8:	01111901 	tsteq	r1, r1, lsl #18
     8dc:	18400612 	stmdane	r0, {r1, r4, r9, sl}^
     8e0:	01194297 			; <UNDEFINED> instruction: 0x01194297
     8e4:	0a000013 	beq	938 <__code_start__-0x76c8>
     8e8:	01018289 	smlabbeq	r1, r9, r2, r8
     8ec:	13010111 	movwne	r0, #4369	; 0x1111
     8f0:	8a0b0000 	bhi	2c08f8 <__bss_end__+0x2b73f8>
     8f4:	02000182 	andeq	r0, r0, #-2147483616	; 0x80000020
     8f8:	18429118 	stmdane	r2, {r3, r4, r8, ip, pc}^
     8fc:	890c0000 	stmdbhi	ip, {}	; <UNPREDICTABLE>
     900:	11000182 	smlabbne	r0, r2, r1, r0
     904:	00133101 	andseq	r3, r3, r1, lsl #2
     908:	82890d00 	addhi	r0, r9, #0, 26
     90c:	01110101 	tsteq	r1, r1, lsl #2
     910:	13011331 	movwne	r1, #4913	; 0x1331
     914:	2e0e0000 	cdpcs	0, 0, cr0, cr14, cr0, {0}
     918:	3c193f00 	ldccc	15, cr3, [r9], {-0}
     91c:	030e6e19 	movweq	r6, #60953	; 0xee19
     920:	3b0b3a0e 	blcc	2cf160 <__bss_end__+0x2c5c60>
     924:	000b390b 	andeq	r3, fp, fp, lsl #18
     928:	11010000 	mrsne	r0, (UNDEF: 1)
     92c:	130e2501 	movwne	r2, #58625	; 0xe501
     930:	1b0e030b 	blne	381564 <__bss_end__+0x378064>
     934:	1201110e 	andne	r1, r1, #-2147483645	; 0x80000003
     938:	00171006 	andseq	r1, r7, r6
     93c:	00240200 	eoreq	r0, r4, r0, lsl #4
     940:	0b3e0b0b 	bleq	f83574 <__bss_end__+0xf7a074>
     944:	00000803 	andeq	r0, r0, r3, lsl #16
     948:	0b002403 	bleq	995c <__bss_end__+0x45c>
     94c:	030b3e0b 	movweq	r3, #48651	; 0xbe0b
     950:	0400000e 	streq	r0, [r0], #-14
     954:	193f012e 	ldmdbne	pc!, {r1, r2, r3, r5, r8}	; <UNPREDICTABLE>
     958:	0b3a0e03 	bleq	e8416c <__bss_end__+0xe7ac6c>
     95c:	0b390b3b 	bleq	e43650 <__bss_end__+0xe3a150>
     960:	06120111 			; <UNDEFINED> instruction: 0x06120111
     964:	42971840 	addsmi	r1, r7, #64, 16	; 0x400000
     968:	00130119 	andseq	r0, r3, r9, lsl r1
     96c:	00340500 	eorseq	r0, r4, r0, lsl #10
     970:	0b3a0e03 	bleq	e84184 <__bss_end__+0xe7ac84>
     974:	0b390b3b 	bleq	e43668 <__bss_end__+0xe3a168>
     978:	193f1349 	ldmdbne	pc!, {r0, r3, r6, r8, r9, ip}	; <UNPREDICTABLE>
     97c:	0000193c 	andeq	r1, r0, ip, lsr r9
     980:	3f002e06 	svccc	0x00002e06
     984:	3a0e0319 	bcc	3815f0 <__bss_end__+0x3780f0>
     988:	390b3b0b 	stmdbcc	fp, {r0, r1, r3, r8, r9, fp, ip, sp}
     98c:	3c19270b 	ldccc	7, cr2, [r9], {11}
     990:	07000019 	smladeq	r0, r9, r0, r0
     994:	08030034 	stmdaeq	r3, {r2, r4, r5}
     998:	0b3b0b3a 	bleq	ec3688 <__bss_end__+0xeba188>
     99c:	13490b39 	movtne	r0, #39737	; 0x9b39
     9a0:	42b71702 	adcsmi	r1, r7, #524288	; 0x80000
     9a4:	08000017 	stmdaeq	r0, {r0, r1, r2, r4}
     9a8:	0e030034 	mcreq	0, 0, r0, cr3, cr4, {1}
     9ac:	0b3b0b3a 	bleq	ec369c <__bss_end__+0xeba19c>
     9b0:	13490b39 	movtne	r0, #39737	; 0x9b39
     9b4:	0b090000 	bleq	2409bc <__bss_end__+0x2374bc>
     9b8:	12011101 	andne	r1, r1, #1073741824	; 0x40000000
     9bc:	00130106 	andseq	r0, r3, r6, lsl #2
     9c0:	00340a00 	eorseq	r0, r4, r0, lsl #20
     9c4:	0b3a0803 	bleq	e829d8 <__bss_end__+0xe794d8>
     9c8:	0b390b3b 	bleq	e436bc <__bss_end__+0xe3a1bc>
     9cc:	0b1c1349 	bleq	7056f8 <__bss_end__+0x6fc1f8>
     9d0:	890b0000 	stmdbhi	fp, {}	; <UNPREDICTABLE>
     9d4:	11000182 	smlabbne	r0, r2, r1, r0
     9d8:	00133101 	andseq	r3, r3, r1, lsl #2
     9dc:	000f0c00 	andeq	r0, pc, r0, lsl #24
     9e0:	13490b0b 	movtne	r0, #39691	; 0x9b0b
     9e4:	2e0d0000 	cdpcs	0, 0, cr0, cr13, cr0, {0}
     9e8:	3c193f00 	ldccc	15, cr3, [r9], {-0}
     9ec:	030e6e19 	movweq	r6, #60953	; 0xee19
     9f0:	3b0b3a0e 	blcc	2cf230 <__bss_end__+0x2c5d30>
     9f4:	000b3905 	andeq	r3, fp, r5, lsl #18
     9f8:	002e0e00 	eoreq	r0, lr, r0, lsl #28
     9fc:	193c193f 	ldmdbne	ip!, {r0, r1, r2, r3, r4, r5, r8, fp, ip}
     a00:	0e030e6e 	cdpeq	14, 0, cr0, cr3, cr14, {3}
     a04:	0b3b0b3a 	bleq	ec36f4 <__bss_end__+0xeba1f4>
     a08:	00000b39 	andeq	r0, r0, r9, lsr fp
     a0c:	01110100 	tsteq	r1, r0, lsl #2
     a10:	0b130e25 	bleq	4c42ac <__bss_end__+0x4badac>
     a14:	0e1b0e03 	cdpeq	14, 1, cr0, cr11, cr3, {0}
     a18:	01111755 	tsteq	r1, r5, asr r7
     a1c:	00001710 	andeq	r1, r0, r0, lsl r7
     a20:	0b002402 	bleq	9a30 <__bss_end__+0x530>
     a24:	030b3e0b 	movweq	r3, #48651	; 0xbe0b
     a28:	03000008 	movweq	r0, #8
     a2c:	13490026 	movtne	r0, #36902	; 0x9026
     a30:	24040000 	strcs	r0, [r4], #-0
     a34:	3e0b0b00 	vmlacc.f64	d0, d11, d0
     a38:	000e030b 	andeq	r0, lr, fp, lsl #6
     a3c:	00340500 	eorseq	r0, r4, r0, lsl #10
     a40:	0b3a0e03 	bleq	e84254 <__bss_end__+0xe7ad54>
     a44:	0b390b3b 	bleq	e43738 <__bss_end__+0xe3a238>
     a48:	00001349 	andeq	r1, r0, r9, asr #6
     a4c:	3f012e06 	svccc	0x00012e06
     a50:	3a0e0319 	bcc	3816bc <__bss_end__+0x3781bc>
     a54:	390b3b0b 	stmdbcc	fp, {r0, r1, r3, r8, r9, fp, ip, sp}
     a58:	8719270b 	ldrhi	r2, [r9, -fp, lsl #14]
     a5c:	01111901 	tsteq	r1, r1, lsl #18
     a60:	18400612 	stmdane	r0, {r1, r4, r9, sl}^
     a64:	01194297 			; <UNDEFINED> instruction: 0x01194297
     a68:	07000013 	smladeq	r0, r3, r0, r0
     a6c:	0e030034 	mcreq	0, 0, r0, cr3, cr4, {1}
     a70:	0b3b0b3a 	bleq	ec3760 <__bss_end__+0xeba260>
     a74:	13490b39 	movtne	r0, #39737	; 0x9b39
     a78:	42b71702 	adcsmi	r1, r7, #524288	; 0x80000
     a7c:	08000017 	stmdaeq	r0, {r0, r1, r2, r4}
     a80:	00018289 	andeq	r8, r1, r9, lsl #5
     a84:	13310111 	teqne	r1, #1073741828	; 0x40000004
     a88:	89090000 	stmdbhi	r9, {}	; <UNPREDICTABLE>
     a8c:	11010182 	smlabbne	r1, r2, r1, r0
     a90:	01133101 	tsteq	r3, r1, lsl #2
     a94:	0a000013 	beq	ae8 <__code_start__-0x7518>
     a98:	0001828a 	andeq	r8, r1, sl, lsl #5
     a9c:	42911802 	addsmi	r1, r1, #131072	; 0x20000
     aa0:	0b000018 	bleq	b08 <__code_start__-0x74f8>
     aa4:	193f012e 	ldmdbne	pc!, {r1, r2, r3, r5, r8}	; <UNPREDICTABLE>
     aa8:	0b3a0e03 	bleq	e842bc <__bss_end__+0xe7adbc>
     aac:	0b390b3b 	bleq	e437a0 <__bss_end__+0xe3a2a0>
     ab0:	01111927 	tsteq	r1, r7, lsr #18
     ab4:	18400612 	stmdane	r0, {r1, r4, r9, sl}^
     ab8:	01194297 			; <UNDEFINED> instruction: 0x01194297
     abc:	0c000013 	stceq	0, cr0, [r0], {19}
     ac0:	193f012e 	ldmdbne	pc!, {r1, r2, r3, r5, r8}	; <UNPREDICTABLE>
     ac4:	0b3a0e03 	bleq	e842d8 <__bss_end__+0xe7add8>
     ac8:	0b390b3b 	bleq	e437bc <__bss_end__+0xe3a2bc>
     acc:	13491927 	movtne	r1, #39207	; 0x9927
     ad0:	06120111 			; <UNDEFINED> instruction: 0x06120111
     ad4:	42971840 	addsmi	r1, r7, #64, 16	; 0x400000
     ad8:	00130119 	andseq	r0, r3, r9, lsl r1
     adc:	002e0d00 	eoreq	r0, lr, r0, lsl #26
     ae0:	193c193f 	ldmdbne	ip!, {r0, r1, r2, r3, r4, r5, r8, fp, ip}
     ae4:	0e030e6e 	cdpeq	14, 0, cr0, cr3, cr14, {3}
     ae8:	053b0b3a 	ldreq	r0, [fp, #-2874]!	; 0xfffff4c6
     aec:	00000b39 	andeq	r0, r0, r9, lsr fp
     af0:	3f002e0e 	svccc	0x00002e0e
     af4:	6e193c19 	mrcvs	12, 0, r3, cr9, cr9, {0}
     af8:	3a0e030e 	bcc	381738 <__bss_end__+0x378238>
     afc:	390b3b0b 	stmdbcc	fp, {r0, r1, r3, r8, r9, fp, ip, sp}
     b00:	0000000b 	andeq	r0, r0, fp
     b04:	25011101 	strcs	r1, [r1, #-257]	; 0xfffffeff
     b08:	030b130e 	movweq	r1, #45838	; 0xb30e
     b0c:	110e1b0e 	tstne	lr, lr, lsl #22
     b10:	10061201 	andne	r1, r6, r1, lsl #4
     b14:	02000017 	andeq	r0, r0, #23
     b18:	0b0b0024 	bleq	2c0bb0 <__bss_end__+0x2b76b0>
     b1c:	08030b3e 	stmdaeq	r3, {r1, r2, r3, r4, r5, r8, r9, fp}
     b20:	24030000 	strcs	r0, [r3], #-0
     b24:	3e0b0b00 	vmlacc.f64	d0, d11, d0
     b28:	000e030b 	andeq	r0, lr, fp, lsl #6
     b2c:	002e0400 	eoreq	r0, lr, r0, lsl #8
     b30:	0e03193f 			; <UNDEFINED> instruction: 0x0e03193f
     b34:	0b3b0b3a 	bleq	ec3824 <__bss_end__+0xeba324>
     b38:	19270b39 	stmdbne	r7!, {r0, r3, r4, r5, r8, r9, fp}
     b3c:	06120111 			; <UNDEFINED> instruction: 0x06120111
     b40:	42971840 	addsmi	r1, r7, #64, 16	; 0x400000
     b44:	00000019 	andeq	r0, r0, r9, lsl r0
     b48:	25011101 	strcs	r1, [r1, #-257]	; 0xfffffeff
     b4c:	030b130e 	movweq	r1, #45838	; 0xb30e
     b50:	110e1b0e 	tstne	lr, lr, lsl #22
     b54:	10061201 	andne	r1, r6, r1, lsl #4
     b58:	02000017 	andeq	r0, r0, #23
     b5c:	0b0b0024 	bleq	2c0bf4 <__bss_end__+0x2b76f4>
     b60:	08030b3e 	stmdaeq	r3, {r1, r2, r3, r4, r5, r8, r9, fp}
     b64:	24030000 	strcs	r0, [r3], #-0
     b68:	3e0b0b00 	vmlacc.f64	d0, d11, d0
     b6c:	000e030b 	andeq	r0, lr, fp, lsl #6
     b70:	002e0400 	eoreq	r0, lr, r0, lsl #8
     b74:	0e03193f 			; <UNDEFINED> instruction: 0x0e03193f
     b78:	0b3b0b3a 	bleq	ec3868 <__bss_end__+0xeba368>
     b7c:	19270b39 	stmdbne	r7!, {r0, r3, r4, r5, r8, r9, fp}
     b80:	06120111 			; <UNDEFINED> instruction: 0x06120111
     b84:	42971840 	addsmi	r1, r7, #64, 16	; 0x400000
     b88:	00000019 	andeq	r0, r0, r9, lsl r0
     b8c:	25011101 	strcs	r1, [r1, #-257]	; 0xfffffeff
     b90:	030b130e 	movweq	r1, #45838	; 0xb30e
     b94:	110e1b0e 	tstne	lr, lr, lsl #22
     b98:	10061201 	andne	r1, r6, r1, lsl #4
     b9c:	02000017 	andeq	r0, r0, #23
     ba0:	0b0b0024 	bleq	2c0c38 <__bss_end__+0x2b7738>
     ba4:	08030b3e 	stmdaeq	r3, {r1, r2, r3, r4, r5, r8, r9, fp}
     ba8:	24030000 	strcs	r0, [r3], #-0
     bac:	3e0b0b00 	vmlacc.f64	d0, d11, d0
     bb0:	000e030b 	andeq	r0, lr, fp, lsl #6
     bb4:	012e0400 			; <UNDEFINED> instruction: 0x012e0400
     bb8:	0e03193f 			; <UNDEFINED> instruction: 0x0e03193f
     bbc:	0b3b0b3a 	bleq	ec38ac <__bss_end__+0xeba3ac>
     bc0:	19270b39 	stmdbne	r7!, {r0, r3, r4, r5, r8, r9, fp}
     bc4:	06120111 			; <UNDEFINED> instruction: 0x06120111
     bc8:	42971840 	addsmi	r1, r7, #64, 16	; 0x400000
     bcc:	00130119 	andseq	r0, r3, r9, lsl r1
     bd0:	00050500 	andeq	r0, r5, r0, lsl #10
     bd4:	0b3a0803 	bleq	e82be8 <__bss_end__+0xe796e8>
     bd8:	0b390b3b 	bleq	e438cc <__bss_end__+0xe3a3cc>
     bdc:	17021349 	strne	r1, [r2, -r9, asr #6]
     be0:	001742b7 			; <UNDEFINED> instruction: 0x001742b7
     be4:	82890600 	addhi	r0, r9, #0, 12
     be8:	01110101 	tsteq	r1, r1, lsl #2
     bec:	00001331 	andeq	r1, r0, r1, lsr r3
     bf0:	01828a07 	orreq	r8, r2, r7, lsl #20
     bf4:	91180200 	tstls	r8, r0, lsl #4
     bf8:	00001842 	andeq	r1, r0, r2, asr #16
     bfc:	03003408 	movweq	r3, #1032	; 0x408
     c00:	3b0b3a08 	blcc	2cf428 <__bss_end__+0x2c5f28>
     c04:	490b390b 	stmdbmi	fp, {r0, r1, r3, r8, fp, ip, sp}
     c08:	b7170213 			; <UNDEFINED> instruction: 0xb7170213
     c0c:	00001742 	andeq	r1, r0, r2, asr #14
     c10:	11010b09 	tstne	r1, r9, lsl #22
     c14:	01061201 	tsteq	r6, r1, lsl #4
     c18:	0a000013 	beq	c6c <__code_start__-0x7394>
     c1c:	00018289 	andeq	r8, r1, r9, lsl #5
     c20:	13310111 	teqne	r1, #1073741828	; 0x40000004
     c24:	2e0b0000 	cdpcs	0, 0, cr0, cr11, cr0, {0}
     c28:	03193f01 	tsteq	r9, #1, 30
     c2c:	3b0b3a0e 	blcc	2cf46c <__bss_end__+0x2c5f6c>
     c30:	270b390b 	strcs	r3, [fp, -fp, lsl #18]
     c34:	11134919 	tstne	r3, r9, lsl r9
     c38:	40061201 	andmi	r1, r6, r1, lsl #4
     c3c:	19429718 	stmdbne	r2, {r3, r4, r8, r9, sl, ip, pc}^
     c40:	00001301 	andeq	r1, r0, r1, lsl #6
     c44:	3f002e0c 	svccc	0x00002e0c
     c48:	6e193c19 	mrcvs	12, 0, r3, cr9, cr9, {0}
     c4c:	3a0e030e 	bcc	38188c <__bss_end__+0x37838c>
     c50:	390b3b0b 	stmdbcc	fp, {r0, r1, r3, r8, r9, fp, ip, sp}
     c54:	0000000b 	andeq	r0, r0, fp
     c58:	25011101 	strcs	r1, [r1, #-257]	; 0xfffffeff
     c5c:	030b130e 	movweq	r1, #45838	; 0xb30e
     c60:	110e1b0e 	tstne	lr, lr, lsl #22
     c64:	10061201 	andne	r1, r6, r1, lsl #4
     c68:	02000017 	andeq	r0, r0, #23
     c6c:	0b0b0024 	bleq	2c0d04 <__bss_end__+0x2b7804>
     c70:	08030b3e 	stmdaeq	r3, {r1, r2, r3, r4, r5, r8, r9, fp}
     c74:	24030000 	strcs	r0, [r3], #-0
     c78:	3e0b0b00 	vmlacc.f64	d0, d11, d0
     c7c:	000e030b 	andeq	r0, lr, fp, lsl #6
     c80:	00350400 	eorseq	r0, r5, r0, lsl #8
     c84:	00001349 	andeq	r1, r0, r9, asr #6
     c88:	03001605 	movweq	r1, #1541	; 0x605
     c8c:	3b0b3a0e 	blcc	2cf4cc <__bss_end__+0x2c5fcc>
     c90:	490b390b 	stmdbmi	fp, {r0, r1, r3, r8, fp, ip, sp}
     c94:	06000013 			; <UNDEFINED> instruction: 0x06000013
     c98:	0b3e0104 	bleq	f810b0 <__bss_end__+0xf77bb0>
     c9c:	13490b0b 	movtne	r0, #39691	; 0x9b0b
     ca0:	0b3b0b3a 	bleq	ec3990 <__bss_end__+0xeba490>
     ca4:	13010b39 	movwne	r0, #6969	; 0x1b39
     ca8:	28070000 	stmdacs	r7, {}	; <UNPREDICTABLE>
     cac:	1c0e0300 	stcne	3, cr0, [lr], {-0}
     cb0:	0800000b 	stmdaeq	r0, {r0, r1, r3}
     cb4:	0e030113 	mcreq	1, 0, r0, cr3, cr3, {0}
     cb8:	0b3a0b0b 	bleq	e838ec <__bss_end__+0xe7a3ec>
     cbc:	0b390b3b 	bleq	e439b0 <__bss_end__+0xe3a4b0>
     cc0:	00001301 	andeq	r1, r0, r1, lsl #6
     cc4:	03000d09 	movweq	r0, #3337	; 0xd09
     cc8:	3b0b3a08 	blcc	2cf4f0 <__bss_end__+0x2c5ff0>
     ccc:	490b390b 	stmdbmi	fp, {r0, r1, r3, r8, fp, ip, sp}
     cd0:	000b3813 	andeq	r3, fp, r3, lsl r8
     cd4:	000d0a00 	andeq	r0, sp, r0, lsl #20
     cd8:	0b3a0e03 	bleq	e844ec <__bss_end__+0xe7afec>
     cdc:	0b390b3b 	bleq	e439d0 <__bss_end__+0xe3a4d0>
     ce0:	0b381349 	bleq	e05a0c <__bss_end__+0xdfc50c>
     ce4:	340b0000 	strcc	r0, [fp], #-0
     ce8:	3a0e0300 	bcc	3818f0 <__bss_end__+0x3783f0>
     cec:	390b3b0b 	stmdbcc	fp, {r0, r1, r3, r8, r9, fp, ip, sp}
     cf0:	1c13490b 			; <UNDEFINED> instruction: 0x1c13490b
     cf4:	0c000006 	stceq	0, cr0, [r0], {6}
     cf8:	0b0b000f 	bleq	2c0d3c <__bss_end__+0x2b783c>
     cfc:	00001349 	andeq	r1, r0, r9, asr #6
     d00:	4900260d 	stmdbmi	r0, {r0, r2, r3, r9, sl, sp}
     d04:	0e000013 	mcreq	0, 0, r0, cr0, cr3, {0}
     d08:	193f012e 	ldmdbne	pc!, {r1, r2, r3, r5, r8}	; <UNPREDICTABLE>
     d0c:	0b3a0e03 	bleq	e84520 <__bss_end__+0xe7b020>
     d10:	0b390b3b 	bleq	e43a04 <__bss_end__+0xe3a504>
     d14:	01111927 	tsteq	r1, r7, lsr #18
     d18:	18400612 	stmdane	r0, {r1, r4, r9, sl}^
     d1c:	01194297 			; <UNDEFINED> instruction: 0x01194297
     d20:	0f000013 	svceq	0x00000013
     d24:	00018289 	andeq	r8, r1, r9, lsl #5
     d28:	13310111 	teqne	r1, #1073741828	; 0x40000004
     d2c:	2e100000 	cdpcs	0, 1, cr0, cr0, cr0, {0}
     d30:	03193f01 	tsteq	r9, #1, 30
     d34:	3b0b3a0e 	blcc	2cf574 <__bss_end__+0x2c6074>
     d38:	270b390b 	strcs	r3, [fp, -fp, lsl #18]
     d3c:	11134919 	tstne	r3, r9, lsl r9
     d40:	40061201 	andmi	r1, r6, r1, lsl #4
     d44:	19429718 	stmdbne	r2, {r3, r4, r8, r9, sl, ip, pc}^
     d48:	00001301 	andeq	r1, r0, r1, lsl #6
     d4c:	01828911 	orreq	r8, r2, r1, lsl r9
     d50:	31011101 	tstcc	r1, r1, lsl #2
     d54:	12000013 	andne	r0, r0, #19
     d58:	0001828a 	andeq	r8, r1, sl, lsl #5
     d5c:	42911802 	addsmi	r1, r1, #131072	; 0x20000
     d60:	13000018 	movwne	r0, #24
     d64:	08030005 	stmdaeq	r3, {r0, r2}
     d68:	0b3b0b3a 	bleq	ec3a58 <__bss_end__+0xeba558>
     d6c:	13490b39 	movtne	r0, #39737	; 0x9b39
     d70:	42b71702 	adcsmi	r1, r7, #524288	; 0x80000
     d74:	14000017 	strne	r0, [r0], #-23	; 0xffffffe9
     d78:	01018289 	smlabbeq	r1, r9, r2, r8
     d7c:	13310111 	teqne	r1, #1073741828	; 0x40000004
     d80:	00001301 	andeq	r1, r0, r1, lsl #6
     d84:	03003415 	movweq	r3, #1045	; 0x415
     d88:	3b0b3a08 	blcc	2cf5b0 <__bss_end__+0x2c60b0>
     d8c:	490b390b 	stmdbmi	fp, {r0, r1, r3, r8, fp, ip, sp}
     d90:	b7170213 			; <UNDEFINED> instruction: 0xb7170213
     d94:	00001742 	andeq	r1, r0, r2, asr #14
     d98:	03003416 	movweq	r3, #1046	; 0x416
     d9c:	3b0b3a0e 	blcc	2cf5dc <__bss_end__+0x2c60dc>
     da0:	490b390b 	stmdbmi	fp, {r0, r1, r3, r8, fp, ip, sp}
     da4:	00051c13 	andeq	r1, r5, r3, lsl ip
     da8:	012e1700 			; <UNDEFINED> instruction: 0x012e1700
     dac:	0b3a0e03 	bleq	e845c0 <__bss_end__+0xe7b0c0>
     db0:	0b390b3b 	bleq	e43aa4 <__bss_end__+0xe3a5a4>
     db4:	01111927 	tsteq	r1, r7, lsr #18
     db8:	18400612 	stmdane	r0, {r1, r4, r9, sl}^
     dbc:	01194297 			; <UNDEFINED> instruction: 0x01194297
     dc0:	18000013 	stmdane	r0, {r0, r1, r4}
     dc4:	0e030005 	cdpeq	0, 0, cr0, cr3, cr5, {0}
     dc8:	0b3b0b3a 	bleq	ec3ab8 <__bss_end__+0xeba5b8>
     dcc:	13490b39 	movtne	r0, #39737	; 0x9b39
     dd0:	42b71702 	adcsmi	r1, r7, #524288	; 0x80000
     dd4:	19000017 	stmdbne	r0, {r0, r1, r2, r4}
     dd8:	00000035 	andeq	r0, r0, r5, lsr r0
     ddc:	3f002e1a 	svccc	0x00002e1a
     de0:	6e193c19 	mrcvs	12, 0, r3, cr9, cr9, {0}
     de4:	3a0e030e 	bcc	381a24 <__bss_end__+0x378524>
     de8:	390b3b0b 	stmdbcc	fp, {r0, r1, r3, r8, r9, fp, ip, sp}
     dec:	0000000b 	andeq	r0, r0, fp
     df0:	25011101 	strcs	r1, [r1, #-257]	; 0xfffffeff
     df4:	030b130e 	movweq	r1, #45838	; 0xb30e
     df8:	110e1b0e 	tstne	lr, lr, lsl #22
     dfc:	10061201 	andne	r1, r6, r1, lsl #4
     e00:	02000017 	andeq	r0, r0, #23
     e04:	0b0b0024 	bleq	2c0e9c <__bss_end__+0x2b799c>
     e08:	08030b3e 	stmdaeq	r3, {r1, r2, r3, r4, r5, r8, r9, fp}
     e0c:	24030000 	strcs	r0, [r3], #-0
     e10:	3e0b0b00 	vmlacc.f64	d0, d11, d0
     e14:	000e030b 	andeq	r0, lr, fp, lsl #6
     e18:	000f0400 	andeq	r0, pc, r0, lsl #8
     e1c:	13490b0b 	movtne	r0, #39691	; 0x9b0b
     e20:	26050000 	strcs	r0, [r5], -r0
     e24:	00134900 	andseq	r4, r3, r0, lsl #18
     e28:	012e0600 			; <UNDEFINED> instruction: 0x012e0600
     e2c:	0e03193f 			; <UNDEFINED> instruction: 0x0e03193f
     e30:	0b3b0b3a 	bleq	ec3b20 <__bss_end__+0xeba620>
     e34:	19270b39 	stmdbne	r7!, {r0, r3, r4, r5, r8, r9, fp}
     e38:	01111349 	tsteq	r1, r9, asr #6
     e3c:	18400612 	stmdane	r0, {r1, r4, r9, sl}^
     e40:	01194297 			; <UNDEFINED> instruction: 0x01194297
     e44:	07000013 	smladeq	r0, r3, r0, r0
     e48:	08030005 	stmdaeq	r3, {r0, r2}
     e4c:	0b3b0b3a 	bleq	ec3b3c <__bss_end__+0xeba63c>
     e50:	13490b39 	movtne	r0, #39737	; 0x9b39
     e54:	00001802 	andeq	r1, r0, r2, lsl #16
     e58:	03000508 	movweq	r0, #1288	; 0x508
     e5c:	3b0b3a08 	blcc	2cf684 <__bss_end__+0x2c6184>
     e60:	490b390b 	stmdbmi	fp, {r0, r1, r3, r8, fp, ip, sp}
     e64:	b7170213 			; <UNDEFINED> instruction: 0xb7170213
     e68:	00001742 	andeq	r1, r0, r2, asr #14
     e6c:	03003409 	movweq	r3, #1033	; 0x409
     e70:	3b0b3a08 	blcc	2cf698 <__bss_end__+0x2c6198>
     e74:	490b390b 	stmdbmi	fp, {r0, r1, r3, r8, fp, ip, sp}
     e78:	b7170213 			; <UNDEFINED> instruction: 0xb7170213
     e7c:	00001742 	andeq	r1, r0, r2, asr #14
     e80:	01110100 	tsteq	r1, r0, lsl #2
     e84:	0b130e25 	bleq	4c4720 <__bss_end__+0x4bb220>
     e88:	0e1b0e03 	cdpeq	14, 1, cr0, cr11, cr3, {0}
     e8c:	06120111 			; <UNDEFINED> instruction: 0x06120111
     e90:	00001710 	andeq	r1, r0, r0, lsl r7
     e94:	0b002402 	bleq	9ea4 <__bss_end__+0x9a4>
     e98:	030b3e0b 	movweq	r3, #48651	; 0xbe0b
     e9c:	03000008 	movweq	r0, #8
     ea0:	0b0b0024 	bleq	2c0f38 <__bss_end__+0x2b7a38>
     ea4:	0e030b3e 	vmoveq.16	d3[0], r0
     ea8:	0f040000 	svceq	0x00040000
     eac:	490b0b00 	stmdbmi	fp, {r8, r9, fp}
     eb0:	05000013 	streq	r0, [r0, #-19]	; 0xffffffed
     eb4:	13490026 	movtne	r0, #36902	; 0x9026
     eb8:	2e060000 	cdpcs	0, 0, cr0, cr6, cr0, {0}
     ebc:	03193f01 	tsteq	r9, #1, 30
     ec0:	3b0b3a0e 	blcc	2cf700 <__bss_end__+0x2c6200>
     ec4:	270b390b 	strcs	r3, [fp, -fp, lsl #18]
     ec8:	11134919 	tstne	r3, r9, lsl r9
     ecc:	40061201 	andmi	r1, r6, r1, lsl #4
     ed0:	19429718 	stmdbne	r2, {r3, r4, r8, r9, sl, ip, pc}^
     ed4:	00001301 	andeq	r1, r0, r1, lsl #6
     ed8:	03000507 	movweq	r0, #1287	; 0x507
     edc:	3b0b3a0e 	blcc	2cf71c <__bss_end__+0x2c621c>
     ee0:	490b390b 	stmdbmi	fp, {r0, r1, r3, r8, fp, ip, sp}
     ee4:	00180213 	andseq	r0, r8, r3, lsl r2
     ee8:	00050800 	andeq	r0, r5, r0, lsl #16
     eec:	0b3a0803 	bleq	e82f00 <__bss_end__+0xe79a00>
     ef0:	0b390b3b 	bleq	e43be4 <__bss_end__+0xe3a6e4>
     ef4:	17021349 	strne	r1, [r2, -r9, asr #6]
     ef8:	001742b7 			; <UNDEFINED> instruction: 0x001742b7
     efc:	00340900 	eorseq	r0, r4, r0, lsl #18
     f00:	0b3a0803 	bleq	e82f14 <__bss_end__+0xe79a14>
     f04:	0b390b3b 	bleq	e43bf8 <__bss_end__+0xe3a6f8>
     f08:	17021349 	strne	r1, [r2, -r9, asr #6]
     f0c:	001742b7 			; <UNDEFINED> instruction: 0x001742b7
     f10:	11010000 	mrsne	r0, (UNDEF: 1)
     f14:	130e2501 	movwne	r2, #58625	; 0xe501
     f18:	1b0e030b 	blne	381b4c <__bss_end__+0x37864c>
     f1c:	1201110e 	andne	r1, r1, #-2147483645	; 0x80000003
     f20:	00171006 	andseq	r1, r7, r6
     f24:	00240200 	eoreq	r0, r4, r0, lsl #4
     f28:	0b3e0b0b 	bleq	f83b5c <__bss_end__+0xf7a65c>
     f2c:	00000803 	andeq	r0, r0, r3, lsl #16
     f30:	0b002403 	bleq	9f44 <__bss_end__+0xa44>
     f34:	030b3e0b 	movweq	r3, #48651	; 0xbe0b
     f38:	0400000e 	streq	r0, [r0], #-14
     f3c:	0b0b000f 	bleq	2c0f80 <__bss_end__+0x2b7a80>
     f40:	00001349 	andeq	r1, r0, r9, asr #6
     f44:	49002605 	stmdbmi	r0, {r0, r2, r9, sl, sp}
     f48:	06000013 			; <UNDEFINED> instruction: 0x06000013
     f4c:	193f012e 	ldmdbne	pc!, {r1, r2, r3, r5, r8}	; <UNPREDICTABLE>
     f50:	0b3a0e03 	bleq	e84764 <__bss_end__+0xe7b264>
     f54:	0b390b3b 	bleq	e43c48 <__bss_end__+0xe3a748>
     f58:	13491927 	movtne	r1, #39207	; 0x9927
     f5c:	06120111 			; <UNDEFINED> instruction: 0x06120111
     f60:	42971840 	addsmi	r1, r7, #64, 16	; 0x400000
     f64:	07000019 	smladeq	r0, r9, r0, r0
     f68:	08030005 	stmdaeq	r3, {r0, r2}
     f6c:	0b3b0b3a 	bleq	ec3c5c <__bss_end__+0xeba75c>
     f70:	13490b39 	movtne	r0, #39737	; 0x9b39
     f74:	42b71702 	adcsmi	r1, r7, #524288	; 0x80000
     f78:	00000017 	andeq	r0, r0, r7, lsl r0
     f7c:	25011101 	strcs	r1, [r1, #-257]	; 0xfffffeff
     f80:	030b130e 	movweq	r1, #45838	; 0xb30e
     f84:	550e1b0e 	strpl	r1, [lr, #-2830]	; 0xfffff4f2
     f88:	10011117 	andne	r1, r1, r7, lsl r1
     f8c:	02000017 	andeq	r0, r0, #23
     f90:	0b0b0024 	bleq	2c1028 <__bss_end__+0x2b7b28>
     f94:	08030b3e 	stmdaeq	r3, {r1, r2, r3, r4, r5, r8, r9, fp}
     f98:	16030000 	strne	r0, [r3], -r0
     f9c:	3a0e0300 	bcc	381ba4 <__bss_end__+0x3786a4>
     fa0:	390b3b0b 	stmdbcc	fp, {r0, r1, r3, r8, r9, fp, ip, sp}
     fa4:	0013490b 	andseq	r4, r3, fp, lsl #18
     fa8:	00240400 	eoreq	r0, r4, r0, lsl #8
     fac:	0b3e0b0b 	bleq	f83be0 <__bss_end__+0xf7a6e0>
     fb0:	00000e03 	andeq	r0, r0, r3, lsl #28
     fb4:	49002605 	stmdbmi	r0, {r0, r2, r9, sl, sp}
     fb8:	06000013 			; <UNDEFINED> instruction: 0x06000013
     fbc:	0b0b000f 	bleq	2c1000 <__bss_end__+0x2b7b00>
     fc0:	00001349 	andeq	r1, r0, r9, asr #6
     fc4:	3f012e07 	svccc	0x00012e07
     fc8:	3a0e0319 	bcc	381c34 <__bss_end__+0x378734>
     fcc:	390b3b0b 	stmdbcc	fp, {r0, r1, r3, r8, r9, fp, ip, sp}
     fd0:	4919270b 	ldmdbmi	r9, {r0, r1, r3, r8, r9, sl, sp}
     fd4:	12011113 	andne	r1, r1, #-1073741820	; 0xc0000004
     fd8:	97184006 	ldrls	r4, [r8, -r6]
     fdc:	13011942 	movwne	r1, #6466	; 0x1942
     fe0:	05080000 	streq	r0, [r8, #-0]
     fe4:	3a080300 	bcc	201bec <__bss_end__+0x1f86ec>
     fe8:	390b3b0b 	stmdbcc	fp, {r0, r1, r3, r8, r9, fp, ip, sp}
     fec:	0213490b 	andseq	r4, r3, #180224	; 0x2c000
     ff0:	1742b717 	smlaldne	fp, r2, r7, r7
     ff4:	34090000 	strcc	r0, [r9], #-0
     ff8:	3a080300 	bcc	201c00 <__bss_end__+0x1f8700>
     ffc:	390b3b0b 	stmdbcc	fp, {r0, r1, r3, r8, r9, fp, ip, sp}
    1000:	0213490b 	andseq	r4, r3, #180224	; 0x2c000
    1004:	1742b717 	smlaldne	fp, r2, r7, r7
    1008:	Address 0x0000000000001008 is out of bounds.


Disassembly of section .debug_loc:

00000000 <.debug_loc>:
       0:	00000004 	andeq	r0, r0, r4
       4:	000000b0 	strheq	r0, [r0], -r0	; <UNPREDICTABLE>
       8:	000000b8 	strheq	r0, [r0], -r8
       c:	9f300002 	svcls	0x00300002
      10:	000000b8 	strheq	r0, [r0], -r8
      14:	00000174 	andeq	r0, r0, r4, ror r1
      18:	00580001 	subseq	r0, r8, r1
	...
      28:	0000b800 	andeq	fp, r0, r0, lsl #16
      2c:	00012c00 	andeq	r2, r1, r0, lsl #24
      30:	57000100 	strpl	r0, [r0, -r0, lsl #2]
      34:	0000014c 	andeq	r0, r0, ip, asr #2
      38:	00000150 	andeq	r0, r0, r0, asr r1
      3c:	50500001 	subspl	r0, r0, r1
      40:	64000001 	strvs	r0, [r0], #-1
      44:	01000001 	tsteq	r0, r1
      48:	00005700 	andeq	r5, r0, r0, lsl #14
      4c:	00000000 	andeq	r0, r0, r0
      50:	02000000 	andeq	r0, r0, #0
      54:	00b80001 	adcseq	r0, r8, r1
      58:	01280000 			; <UNDEFINED> instruction: 0x01280000
      5c:	00040000 	andeq	r0, r4, r0
      60:	9f17700a 	svcls	0x0017700a
      64:	00000154 	andeq	r0, r0, r4, asr r1
      68:	00000164 	andeq	r0, r0, r4, ror #2
      6c:	700a0004 	andvc	r0, sl, r4
      70:	00009f17 	andeq	r9, r0, r7, lsl pc
      74:	00000000 	andeq	r0, r0, r0
      78:	02000000 	andeq	r0, r0, #0
      7c:	00b80001 	adcseq	r0, r8, r1
      80:	01280000 			; <UNDEFINED> instruction: 0x01280000
      84:	00010000 	andeq	r0, r1, r0
      88:	00015457 	andeq	r5, r1, r7, asr r4
      8c:	00016400 	andeq	r6, r1, r0, lsl #8
      90:	57000100 	strpl	r0, [r0, -r0, lsl #2]
	...
      9c:	00010200 	andeq	r0, r1, r0, lsl #4
      a0:	000000b8 	strheq	r0, [r0], -r8
      a4:	00000128 	andeq	r0, r0, r8, lsr #2
      a8:	e0910004 	adds	r0, r1, r4
      ac:	01549f7d 	cmpeq	r4, sp, ror pc
      b0:	01640000 	cmneq	r4, r0
      b4:	00040000 	andeq	r0, r4, r0
      b8:	9f7de091 	svcls	0x007de091
	...
      c4:	00010000 	andeq	r0, r1, r0
      c8:	00b80003 	adcseq	r0, r8, r3
      cc:	00e40000 	rsceq	r0, r4, r0
      d0:	00010000 	andeq	r0, r1, r0
      d4:	00010454 	andeq	r0, r1, r4, asr r4
      d8:	00012800 	andeq	r2, r1, r0, lsl #16
      dc:	54000100 	strpl	r0, [r0], #-256	; 0xffffff00
      e0:	00000154 	andeq	r0, r0, r4, asr r1
      e4:	00000164 	andeq	r0, r0, r4, ror #2
      e8:	9f300002 	svcls	0x00300002
	...
      f4:	00030200 	andeq	r0, r3, r0, lsl #4
      f8:	000000b8 	strheq	r0, [r0], -r8
      fc:	00000128 	andeq	r0, r0, r8, lsr #2
     100:	54560001 	ldrbpl	r0, [r6], #-1
     104:	64000001 	strvs	r0, [r0], #-1
     108:	02000001 	andeq	r0, r0, #1
     10c:	009f3000 	addseq	r3, pc, r0
	...
     118:	01000000 	mrseq	r0, (UNDEF: 0)
     11c:	04020000 	streq	r0, [r2], #-0
     120:	0000b800 	andeq	fp, r0, r0, lsl #16
     124:	0000e400 	andeq	lr, r0, r0, lsl #8
     128:	54000100 	strpl	r0, [r0], #-256	; 0xffffff00
     12c:	000000e4 	andeq	r0, r0, r4, ror #1
     130:	00000104 	andeq	r0, r0, r4, lsl #2
     134:	04530001 	ldrbeq	r0, [r3], #-1
     138:	28000001 	stmdacs	r0, {r0}
     13c:	01000001 	tsteq	r0, r1
     140:	01285400 			; <UNDEFINED> instruction: 0x01285400
     144:	01280000 			; <UNDEFINED> instruction: 0x01280000
     148:	00010000 	andeq	r0, r1, r0
     14c:	00015453 	andeq	r5, r1, r3, asr r4
     150:	00016400 	andeq	r6, r1, r0, lsl #8
     154:	30000200 	andcc	r0, r0, r0, lsl #4
     158:	0000009f 	muleq	r0, pc, r0	; <UNPREDICTABLE>
	...
     164:	00000202 	andeq	r0, r0, r2, lsl #4
     168:	b8000602 	stmdalt	r0, {r1, r9, sl}
     16c:	db000000 	blle	174 <__code_start__-0x7e8c>
     170:	01000000 	mrseq	r0, (UNDEF: 0)
     174:	00db5100 	sbcseq	r5, fp, r0, lsl #2
     178:	00dc0000 	sbcseq	r0, ip, r0
     17c:	00030000 	andeq	r0, r3, r0
     180:	dc9f7f75 	ldcle	15, cr7, [pc], {117}	; 0x75
     184:	e4000000 	str	r0, [r0], #-0
     188:	01000000 	mrseq	r0, (UNDEF: 0)
     18c:	00e45500 	rsceq	r5, r4, r0, lsl #10
     190:	01280000 			; <UNDEFINED> instruction: 0x01280000
     194:	00010000 	andeq	r0, r1, r0
     198:	00015451 	andeq	r5, r1, r1, asr r4
     19c:	00016400 	andeq	r6, r1, r0, lsl #8
     1a0:	30000200 	andcc	r0, r0, r0, lsl #4
     1a4:	0000009f 	muleq	r0, pc, r0	; <UNPREDICTABLE>
	...
     1b4:	0000b800 	andeq	fp, r0, r0, lsl #16
     1b8:	0000db00 	andeq	sp, r0, r0, lsl #22
     1bc:	71000c00 	tstvc	r0, r0, lsl #24
     1c0:	91243300 			; <UNDEFINED> instruction: 0x91243300
     1c4:	1c0a227c 	sfmne	f2, 4, [sl], {124}	; 0x7c
     1c8:	db9f1c01 	blle	fe7c71d4 <__bss_end__+0xfe7bdcd4>
     1cc:	e4000000 	str	r0, [r0], #-0
     1d0:	0c000000 	stceq	0, cr0, [r0], {-0}
     1d4:	337f7500 	cmncc	pc, #0, 10
     1d8:	227c9124 	rsbscs	r9, ip, #36, 2
     1dc:	1c011c0a 	stcne	12, cr1, [r1], {10}
     1e0:	0000fc9f 	muleq	r0, pc, ip	; <UNPREDICTABLE>
     1e4:	00010c00 	andeq	r0, r1, r0, lsl #24
     1e8:	52000100 	andpl	r0, r0, #0, 2
     1ec:	0000010c 	andeq	r0, r0, ip, lsl #2
     1f0:	00000128 	andeq	r0, r0, r8, lsr #2
     1f4:	0071000c 	rsbseq	r0, r1, ip
     1f8:	7c912433 	cfldrsvc	mvf2, [r1], {51}	; 0x33
     1fc:	011c0a22 	tsteq	ip, r2, lsr #20
     200:	00009f1c 	andeq	r9, r0, ip, lsl pc
	...
     210:	000000b8 	strheq	r0, [r0], -r8
     214:	000000db 	ldrdeq	r0, [r0], -fp
     218:	00530001 	subseq	r0, r3, r1
     21c:	04000001 	streq	r0, [r0], #-1
     220:	01000001 	tsteq	r0, r1
     224:	01045400 	tsteq	r4, r0, lsl #8
     228:	01280000 			; <UNDEFINED> instruction: 0x01280000
     22c:	00010000 	andeq	r0, r1, r0
     230:	00000053 	andeq	r0, r0, r3, asr r0
	...
     23c:	b8000000 	stmdalt	r0, {}	; <UNPREDICTABLE>
     240:	db000000 	blle	248 <__code_start__-0x7db8>
     244:	01000000 	mrseq	r0, (UNDEF: 0)
     248:	00db5e00 	sbcseq	r5, fp, r0, lsl #28
     24c:	00e40000 	rsceq	r0, r4, r0
     250:	00160000 	andseq	r0, r6, r0
     254:	24320075 	ldrtcs	r0, [r2], #-117	; 0xffffff8b
     258:	75220075 	strvc	r0, [r2, #-117]!	; 0xffffff8b
     25c:	75243200 	strvc	r3, [r4, #-512]!	; 0xfffffe00
     260:	24322200 	ldrtcs	r2, [r2], #-512	; 0xfffffe00
     264:	341e3f22 	ldrcc	r3, [lr], #-3874	; 0xfffff0de
     268:	01189f24 	tsteq	r8, r4, lsr #30
     26c:	01280000 			; <UNDEFINED> instruction: 0x01280000
     270:	00010000 	andeq	r0, r1, r0
     274:	0000005e 	andeq	r0, r0, lr, asr r0
	...
     280:	0000bc00 	andeq	fp, r0, r0, lsl #24
     284:	0000d400 	andeq	sp, r0, r0, lsl #8
     288:	52000100 	andpl	r0, r0, #0, 2
     28c:	000000d4 	ldrdeq	r0, [r0], -r4
     290:	000000db 	ldrdeq	r0, [r0], -fp
     294:	d8910003 	ldmle	r1, {r0, r1}
     298:	0000007d 	andeq	r0, r0, sp, ror r0
	...
     2a8:	00001700 	andeq	r1, r0, r0, lsl #14
     2ac:	50000100 	andpl	r0, r0, r0, lsl #2
     2b0:	00000017 	andeq	r0, r0, r7, lsl r0
     2b4:	00000098 	muleq	r0, r8, r0
     2b8:	00550001 	subseq	r0, r5, r1
	...
     2c8:	17000000 	strne	r0, [r0, -r0]
     2cc:	01000000 	mrseq	r0, (UNDEF: 0)
     2d0:	00175100 	andseq	r5, r7, r0, lsl #2
     2d4:	00980000 	addseq	r0, r8, r0
     2d8:	00010000 	andeq	r0, r1, r0
     2dc:	00000057 	andeq	r0, r0, r7, asr r0
	...
     2ec:	00001700 	andeq	r1, r0, r0, lsl #14
     2f0:	52000100 	andpl	r0, r0, #0, 2
     2f4:	00000017 	andeq	r0, r0, r7, lsl r0
     2f8:	00000098 	muleq	r0, r8, r0
     2fc:	00590001 	subseq	r0, r9, r1
	...
     30c:	17000000 	strne	r0, [r0, -r0]
     310:	01000000 	mrseq	r0, (UNDEF: 0)
     314:	00175300 	andseq	r5, r7, r0, lsl #6
     318:	00980000 	addseq	r0, r8, r0
     31c:	00010000 	andeq	r0, r1, r0
     320:	0000005a 	andeq	r0, r0, sl, asr r0
	...
     32c:	24000000 	strcs	r0, [r0], #-0
     330:	44000000 	strmi	r0, [r0], #-0
     334:	01000000 	mrseq	r0, (UNDEF: 0)
     338:	00485000 	subeq	r5, r8, r0
     33c:	00880000 	addeq	r0, r8, r0
     340:	00010000 	andeq	r0, r1, r0
     344:	00008850 	andeq	r8, r0, r0, asr r8
     348:	00008b00 	andeq	r8, r0, r0, lsl #22
     34c:	76000700 	strvc	r0, [r0], -r0, lsl #14
     350:	77243300 	strvc	r3, [r4, -r0, lsl #6]!
     354:	00002200 	andeq	r2, r0, r0, lsl #4
     358:	00000000 	andeq	r0, r0, r0
     35c:	01000000 	mrseq	r0, (UNDEF: 0)
     360:	001c0001 	andseq	r0, ip, r1
     364:	001c0000 	andseq	r0, ip, r0
     368:	00010000 	andeq	r0, r1, r0
     36c:	00001c50 	andeq	r1, r0, r0, asr ip
     370:	00009800 	andeq	r9, r0, r0, lsl #16
     374:	54000100 	strpl	r0, [r0], #-256	; 0xffffff00
	...
     380:	00300001 	eorseq	r0, r0, r1
     384:	00980000 	addseq	r0, r8, r0
     388:	00010000 	andeq	r0, r1, r0
     38c:	00000058 	andeq	r0, r0, r8, asr r0
     390:	00000000 	andeq	r0, r0, r0
     394:	00000300 	andeq	r0, r0, r0, lsl #6
     398:	00003000 	andeq	r3, r0, r0
     39c:	00003400 	andeq	r3, r0, r0, lsl #8
     3a0:	30000200 	andcc	r0, r0, r0, lsl #4
     3a4:	0000349f 	muleq	r0, pc, r4	; <UNPREDICTABLE>
     3a8:	00009800 	andeq	r9, r0, r0, lsl #16
     3ac:	56000100 	strpl	r0, [r0], -r0, lsl #2
	...
     3b8:	00300000 	eorseq	r0, r0, r0
     3bc:	00980000 	addseq	r0, r8, r0
     3c0:	00010000 	andeq	r0, r1, r0
     3c4:	00000058 	andeq	r0, r0, r8, asr r0
     3c8:	00000000 	andeq	r0, r0, r0
     3cc:	54000000 	strpl	r0, [r0], #-0
     3d0:	5c000000 	stcpl	0, cr0, [r0], {-0}
     3d4:	01000000 	mrseq	r0, (UNDEF: 0)
     3d8:	00005300 	andeq	r5, r0, r0, lsl #6
	...
     3e4:	00000068 	andeq	r0, r0, r8, rrx
     3e8:	0000006c 	andeq	r0, r0, ip, rrx
     3ec:	00530001 	subseq	r0, r3, r1
	...
     3fc:	e8000000 	stmda	r0, {}	; <UNPREDICTABLE>
     400:	00000000 	andeq	r0, r0, r0
     404:	01000001 	tsteq	r0, r1
     408:	01005000 	mrseq	r5, (UNDEF: 0)
     40c:	01100000 	tsteq	r0, r0
     410:	00040000 	andeq	r0, r4, r0
     414:	9f5001f3 	svcls	0x005001f3
     418:	00000110 	andeq	r0, r0, r0, lsl r1
     41c:	00000114 	andeq	r0, r0, r4, lsl r1
     420:	14500001 	ldrbne	r0, [r0], #-1
     424:	1c000001 	stcne	0, cr0, [r0], {1}
     428:	04000001 	streq	r0, [r0], #-1
     42c:	5001f300 	andpl	pc, r1, r0, lsl #6
     430:	0000009f 	muleq	r0, pc, r0	; <UNPREDICTABLE>
     434:	00000000 	andeq	r0, r0, r0
     438:	00000100 	andeq	r0, r0, r0, lsl #2
     43c:	f4000000 	vst4.8	{d0-d3}, [r0], r0
     440:	00000000 	andeq	r0, r0, r0
     444:	0b000001 	bleq	450 <__code_start__-0x7bb0>
     448:	35007000 	strcc	r7, [r0, #-0]
     44c:	80b42325 	adcshi	r2, r4, r5, lsr #6
     450:	9f028180 	svcls	0x00028180
     454:	00000100 	andeq	r0, r0, r0, lsl #2
     458:	00000103 	andeq	r0, r0, r3, lsl #2
     45c:	03500001 	cmpeq	r0, #1
     460:	10000001 	andne	r0, r0, r1
     464:	0c000001 	stceq	0, cr0, [r0], {1}
     468:	5001f300 	andpl	pc, r1, r0, lsl #6
     46c:	b4232535 	strtlt	r2, [r3], #-1333	; 0xfffffacb
     470:	02818080 	addeq	r8, r1, #128	; 0x80
     474:	0000009f 	muleq	r0, pc, r0	; <UNPREDICTABLE>
     478:	00000000 	andeq	r0, r0, r0
     47c:	f8000000 			; <UNDEFINED> instruction: 0xf8000000
     480:	10000000 	andne	r0, r0, r0
     484:	01000001 	tsteq	r0, r1
     488:	00005400 	andeq	r5, r0, r0, lsl #8
	...
     498:	00cc0000 	sbceq	r0, ip, r0
     49c:	00db0000 	sbcseq	r0, fp, r0
     4a0:	00010000 	andeq	r0, r1, r0
     4a4:	0000db50 	andeq	sp, r0, r0, asr fp
     4a8:	0000e000 	andeq	lr, r0, r0
     4ac:	f3000400 	vshl.u8	d0, d0, d0
     4b0:	e09f5001 	adds	r5, pc, r1
     4b4:	e3000000 	movw	r0, #0
     4b8:	01000000 	mrseq	r0, (UNDEF: 0)
     4bc:	00e35000 	rsceq	r5, r3, r0
     4c0:	00e80000 	rsceq	r0, r8, r0
     4c4:	00040000 	andeq	r0, r4, r0
     4c8:	9f5001f3 	svcls	0x005001f3
	...
     4dc:	000000cc 	andeq	r0, r0, ip, asr #1
     4e0:	000000db 	ldrdeq	r0, [r0], -fp
     4e4:	db510001 	blle	14404f0 <__bss_end__+0x1436ff0>
     4e8:	e0000000 	and	r0, r0, r0
     4ec:	04000000 	streq	r0, [r0], #-0
     4f0:	5101f300 	mrspl	pc, SP_irq	; <UNPREDICTABLE>
     4f4:	0000e09f 	muleq	r0, pc, r0	; <UNPREDICTABLE>
     4f8:	0000e300 	andeq	lr, r0, r0, lsl #6
     4fc:	51000100 	mrspl	r0, (UNDEF: 16)
     500:	000000e3 	andeq	r0, r0, r3, ror #1
     504:	000000e8 	andeq	r0, r0, r8, ror #1
     508:	01f30004 	mvnseq	r0, r4
     50c:	00009f51 	andeq	r9, r0, r1, asr pc
	...
     518:	00bc0000 	adcseq	r0, ip, r0
     51c:	00c70000 	sbceq	r0, r7, r0
     520:	00010000 	andeq	r0, r1, r0
     524:	0000c750 	andeq	ip, r0, r0, asr r7
     528:	0000cc00 	andeq	ip, r0, r0, lsl #24
     52c:	f3000400 	vshl.u8	d0, d0, d0
     530:	009f5001 	addseq	r5, pc, r1
	...
     53c:	98000000 	stmdals	r0, {}	; <UNPREDICTABLE>
     540:	b0000000 	andlt	r0, r0, r0
     544:	01000000 	mrseq	r0, (UNDEF: 0)
     548:	00b05000 	adcseq	r5, r0, r0
     54c:	00bc0000 	adcseq	r0, ip, r0
     550:	00040000 	andeq	r0, r4, r0
     554:	9f5001f3 	svcls	0x005001f3
	...
     564:	00000074 	andeq	r0, r0, r4, ror r0
     568:	0000008c 	andeq	r0, r0, ip, lsl #1
     56c:	8c500001 	mrrchi	0, 0, r0, r0, cr1	; <UNPREDICTABLE>
     570:	98000000 	stmdals	r0, {}	; <UNPREDICTABLE>
     574:	04000000 	streq	r0, [r0], #-0
     578:	5001f300 	andpl	pc, r1, r0, lsl #6
     57c:	0000009f 	muleq	r0, pc, r0	; <UNPREDICTABLE>
	...
     588:	00006400 	andeq	r6, r0, r0, lsl #8
     58c:	00006f00 	andeq	r6, r0, r0, lsl #30
     590:	50000100 	andpl	r0, r0, r0, lsl #2
     594:	0000006f 	andeq	r0, r0, pc, rrx
     598:	00000074 	andeq	r0, r0, r4, ror r0
     59c:	01f30004 	mvnseq	r0, r4
     5a0:	00009f50 	andeq	r9, r0, r0, asr pc
	...
     5b0:	00380000 	eorseq	r0, r8, r0
     5b4:	00010000 	andeq	r0, r1, r0
     5b8:	00003850 	andeq	r3, r0, r0, asr r8
     5bc:	00006400 	andeq	r6, r0, r0, lsl #8
     5c0:	f3000400 	vshl.u8	d0, d0, d0
     5c4:	009f5001 	addseq	r5, pc, r1
	...
     5d4:	47000000 	strmi	r0, [r0, -r0]
     5d8:	01000000 	mrseq	r0, (UNDEF: 0)
     5dc:	00475100 	subeq	r5, r7, r0, lsl #2
     5e0:	00640000 	rsbeq	r0, r4, r0
     5e4:	00040000 	andeq	r0, r4, r0
     5e8:	9f5101f3 	svcls	0x005101f3
	...
     5f4:	00340000 	eorseq	r0, r4, r0
     5f8:	00640000 	rsbeq	r0, r4, r0
     5fc:	00010000 	andeq	r0, r1, r0
     600:	00000054 	andeq	r0, r0, r4, asr r0
     604:	00000000 	andeq	r0, r0, r0
     608:	40000000 	andmi	r0, r0, r0
     60c:	64000000 	strvs	r0, [r0], #-0
     610:	01000000 	mrseq	r0, (UNDEF: 0)
     614:	00005600 	andeq	r5, r0, r0, lsl #12
	...
     620:	00010100 	andeq	r0, r1, r0, lsl #2
     624:	00480000 	subeq	r0, r8, r0
     628:	00500000 	subseq	r0, r0, r0
     62c:	00010000 	andeq	r0, r1, r0
     630:	00005050 	andeq	r5, r0, r0, asr r0
     634:	00005000 	andeq	r5, r0, r0
     638:	51000100 	mrspl	r0, (UNDEF: 16)
     63c:	00000050 	andeq	r0, r0, r0, asr r0
     640:	00000054 	andeq	r0, r0, r4, asr r0
     644:	00750009 	rsbseq	r0, r5, r9
     648:	71240074 			; <UNDEFINED> instruction: 0x71240074
     64c:	549f2100 	ldrpl	r2, [pc], #256	; 654 <__code_start__-0x79ac>
     650:	5b000000 	blpl	658 <__code_start__-0x79a8>
     654:	01000000 	mrseq	r0, (UNDEF: 0)
     658:	00005100 	andeq	r5, r0, r0, lsl #2
	...
     668:	0000002c 	andeq	r0, r0, ip, lsr #32
     66c:	00000038 	andeq	r0, r0, r8, lsr r0
     670:	38500001 	ldmdacc	r0, {r0}^
     674:	48000000 	stmdami	r0, {}	; <UNPREDICTABLE>
     678:	01000000 	mrseq	r0, (UNDEF: 0)
     67c:	00485400 	subeq	r5, r8, r0, lsl #8
     680:	00580000 	subseq	r0, r8, r0
     684:	00010000 	andeq	r0, r1, r0
     688:	00000050 	andeq	r0, r0, r0, asr r0
	...
     698:	00000c00 	andeq	r0, r0, r0, lsl #24
     69c:	50000100 	andpl	r0, r0, r0, lsl #2
     6a0:	0000000c 	andeq	r0, r0, ip
     6a4:	00000034 	andeq	r0, r0, r4, lsr r0
     6a8:	00540001 	subseq	r0, r4, r1
	...
     6b8:	0b000000 	bleq	6c0 <__code_start__-0x7940>
     6bc:	01000000 	mrseq	r0, (UNDEF: 0)
     6c0:	000b5000 	andeq	r5, fp, r0
     6c4:	00140000 	andseq	r0, r4, r0
     6c8:	00010000 	andeq	r0, r1, r0
     6cc:	00000054 	andeq	r0, r0, r4, asr r0
	...
     6d8:	90000000 	andls	r0, r0, r0
     6dc:	c0000002 	andgt	r0, r0, r2
     6e0:	01000002 	tsteq	r0, r2
     6e4:	02c05000 	sbceq	r5, r0, #0
     6e8:	070c0000 	streq	r0, [ip, -r0]
     6ec:	00010000 	andeq	r0, r1, r0
     6f0:	00070c59 	andeq	r0, r7, r9, asr ip
     6f4:	00074800 	andeq	r4, r7, r0, lsl #16
     6f8:	f3000400 	vshl.u8	d0, d0, d0
     6fc:	009f5001 	addseq	r5, pc, r1
	...
     70c:	00029000 	andeq	r9, r2, r0
     710:	0002a800 	andeq	sl, r2, r0, lsl #16
     714:	51000100 	mrspl	r0, (UNDEF: 16)
     718:	000002a8 	andeq	r0, r0, r8, lsr #5
     71c:	000002c0 	andeq	r0, r0, r0, asr #5
     720:	01710003 	cmneq	r1, r3
     724:	0002c09f 	muleq	r2, pc, r0	; <UNPREDICTABLE>
     728:	00074800 	andeq	r4, r7, r0, lsl #16
     72c:	f3000400 	vshl.u8	d0, d0, d0
     730:	009f5101 	addseq	r5, pc, r1, lsl #2
	...
     744:	90000000 	andls	r0, r0, r0
     748:	c0000002 	andgt	r0, r0, r2
     74c:	01000002 	tsteq	r0, r2
     750:	02c05200 	sbceq	r5, r0, #0, 4
     754:	03f40000 	mvnseq	r0, #0
     758:	00010000 	andeq	r0, r1, r0
     75c:	0003f456 	andeq	pc, r3, r6, asr r4	; <UNPREDICTABLE>
     760:	0004c000 	andeq	ip, r4, r0
     764:	5b000100 	blpl	b6c <__code_start__-0x7494>
     768:	000004c0 	andeq	r0, r0, r0, asr #9
     76c:	000004e0 	andeq	r0, r0, r0, ror #9
     770:	e0560001 	subs	r0, r6, r1
     774:	64000004 	strvs	r0, [r0], #-4
     778:	01000005 	tsteq	r0, r5
     77c:	05645b00 	strbeq	r5, [r4, #-2816]!	; 0xfffff500
     780:	070c0000 	streq	r0, [ip, -r0]
     784:	00010000 	andeq	r0, r1, r0
     788:	00000056 	andeq	r0, r0, r6, asr r0
     78c:	00000000 	andeq	r0, r0, r0
     790:	00000100 	andeq	r0, r0, r0, lsl #2
     794:	00000101 	andeq	r0, r0, r1, lsl #2
	...
     7a0:	00000202 	andeq	r0, r0, r2, lsl #4
     7a4:	0002a400 	andeq	sl, r2, r0, lsl #8
     7a8:	0002c000 	andeq	ip, r2, r0
     7ac:	50000100 	andpl	r0, r0, r0, lsl #2
     7b0:	000002c0 	andeq	r0, r0, r0, asr #5
     7b4:	000002cc 	andeq	r0, r0, ip, asr #5
     7b8:	cc540001 	mrrcgt	0, 0, r0, r4, cr1
     7bc:	d0000002 	andle	r0, r0, r2
     7c0:	03000002 	movweq	r0, #2
     7c4:	9f017400 	svcls	0x00017400
     7c8:	000002d0 	ldrdeq	r0, [r0], -r0	; <UNPREDICTABLE>
     7cc:	000002f4 	strdeq	r0, [r0], -r4
     7d0:	f4540001 			; <UNDEFINED> instruction: 0xf4540001
     7d4:	f8000002 			; <UNDEFINED> instruction: 0xf8000002
     7d8:	03000002 	movweq	r0, #2
     7dc:	9f017400 	svcls	0x00017400
     7e0:	000002f8 	strdeq	r0, [r0], -r8
     7e4:	000006dc 	ldrdeq	r0, [r0], -ip
     7e8:	dc540001 	mrrcle	0, 0, r0, r4, cr1
     7ec:	e0000006 	and	r0, r0, r6
     7f0:	03000006 	movweq	r0, #6
     7f4:	9f017400 	svcls	0x00017400
     7f8:	000006e0 	andeq	r0, r0, r0, ror #13
     7fc:	000006f8 	strdeq	r0, [r0], -r8
     800:	f8540001 			; <UNDEFINED> instruction: 0xf8540001
     804:	00000006 	andeq	r0, r0, r6
     808:	03000007 	movweq	r0, #7
     80c:	9f017400 	svcls	0x00017400
     810:	00000700 	andeq	r0, r0, r0, lsl #14
     814:	0000070c 	andeq	r0, r0, ip, lsl #14
     818:	00540001 	subseq	r0, r4, r1
	...
     824:	ac000000 	stcge	0, cr0, [r0], {-0}
     828:	0c000002 	stceq	0, cr0, [r0], {2}
     82c:	01000007 	tsteq	r0, r7
     830:	070c5800 	streq	r5, [ip, -r0, lsl #16]
     834:	07480000 	strbeq	r0, [r8, -r0]
     838:	000a0000 	andeq	r0, sl, r0
     83c:	f35101f3 	vbsl	q8, <illegal reg q8.5>, <illegal reg q9.5>
     840:	31225001 			; <UNDEFINED> instruction: 0x31225001
     844:	00009f1c 	andeq	r9, r0, ip, lsl pc
     848:	00000000 	andeq	r0, r0, r0
     84c:	00010000 	andeq	r0, r1, r0
     850:	00000000 	andeq	r0, r0, r0
     854:	00000410 	andeq	r0, r0, r0, lsl r4
     858:	0000047c 	andeq	r0, r0, ip, ror r4
     85c:	e0570001 	subs	r0, r7, r1
     860:	04000004 	streq	r0, [r0], #-4
     864:	01000005 	tsteq	r0, r5
     868:	05485700 	strbeq	r5, [r8, #-1792]	; 0xfffff900
     86c:	05640000 	strbeq	r0, [r4, #-0]!
     870:	00010000 	andeq	r0, r1, r0
     874:	00000057 	andeq	r0, r0, r7, asr r0
     878:	00000000 	andeq	r0, r0, r0
     87c:	00000200 	andeq	r0, r0, r0, lsl #4
     880:	00041000 	andeq	r1, r4, r0
     884:	0004c000 	andeq	ip, r4, r0
     888:	5a000100 	bpl	c90 <__code_start__-0x7370>
     88c:	000004e0 	andeq	r0, r0, r0, ror #9
     890:	00000564 	andeq	r0, r0, r4, ror #10
     894:	005a0001 	subseq	r0, sl, r1
     898:	00000000 	andeq	r0, r0, r0
     89c:	01000000 	mrseq	r0, (UNDEF: 0)
     8a0:	b4000000 	strlt	r0, [r0], #-0
     8a4:	c0000002 	andgt	r0, r0, r2
     8a8:	01000002 	tsteq	r0, r2
     8ac:	02c05200 	sbceq	r5, r0, #0, 4
     8b0:	07480000 	strbeq	r0, [r8, -r0]
     8b4:	00030000 	andeq	r0, r3, r0
     8b8:	007dc891 			; <UNDEFINED> instruction: 0x007dc891
	...
     8cc:	00000101 	andeq	r0, r0, r1, lsl #2
	...
     8d8:	00047c00 	andeq	r7, r4, r0, lsl #24
     8dc:	00049400 	andeq	r9, r4, r0, lsl #8
     8e0:	50000100 	andpl	r0, r0, r0, lsl #2
     8e4:	00000494 	muleq	r0, r4, r4
     8e8:	000004c0 	andeq	r0, r0, r0, asr #9
     8ec:	04570001 	ldrbeq	r0, [r7], #-1
     8f0:	1c000005 	stcne	0, cr0, [r0], {5}
     8f4:	01000005 	tsteq	r0, r5
     8f8:	051c5000 	ldreq	r5, [ip, #-0]
     8fc:	05480000 	strbeq	r0, [r8, #-0]
     900:	00010000 	andeq	r0, r1, r0
     904:	0005ac57 	andeq	sl, r5, r7, asr ip
     908:	0005ac00 	andeq	sl, r5, r0, lsl #24
     90c:	50000100 	andpl	r0, r0, r0, lsl #2
     910:	000005ac 	andeq	r0, r0, ip, lsr #11
     914:	000005b4 			; <UNDEFINED> instruction: 0x000005b4
     918:	e4570001 	ldrb	r0, [r7], #-1
     91c:	e8000005 	stmda	r0, {r0, r2}
     920:	01000005 	tsteq	r0, r5
     924:	06185000 	ldreq	r5, [r8], -r0
     928:	061c0000 	ldreq	r0, [ip], -r0
     92c:	00010000 	andeq	r0, r1, r0
     930:	00064c50 	andeq	r4, r6, r0, asr ip
     934:	00065000 	andeq	r5, r6, r0
     938:	50000100 	andpl	r0, r0, r0, lsl #2
     93c:	00000694 	muleq	r0, r4, r6
     940:	00000698 	muleq	r0, r8, r6
     944:	d8500001 	ldmdale	r0, {r0}^
     948:	f8000006 			; <UNDEFINED> instruction: 0xf8000006
     94c:	01000006 	tsteq	r0, r6
     950:	00005700 	andeq	r5, r0, r0, lsl #14
     954:	00000000 	andeq	r0, r0, r0
     958:	00020000 	andeq	r0, r2, r0
     95c:	00000000 	andeq	r0, r0, r0
     960:	00000300 	andeq	r0, r0, r0, lsl #6
     964:	00000308 	andeq	r0, r0, r8, lsl #6
     968:	9f300002 	svcls	0x00300002
     96c:	00000308 	andeq	r0, r0, r8, lsl #6
     970:	0000030c 	andeq	r0, r0, ip, lsl #6
     974:	14550001 	ldrbne	r0, [r5], #-1
     978:	f8000003 			; <UNDEFINED> instruction: 0xf8000003
     97c:	01000006 	tsteq	r0, r6
     980:	00005500 	andeq	r5, r0, r0, lsl #10
     984:	00000000 	andeq	r0, r0, r0
     988:	00010000 	andeq	r0, r1, r0
	...
     994:	000003c0 	andeq	r0, r0, r0, asr #7
     998:	0000045c 	andeq	r0, r0, ip, asr r4
     99c:	5c560001 	mrrcpl	0, 0, r0, r6, cr1
     9a0:	c0000004 	andgt	r0, r0, r4
     9a4:	03000004 	movweq	r0, #4
     9a8:	9f7e7b00 	svcls	0x007e7b00
     9ac:	000004c0 	andeq	r0, r0, r0, asr #9
     9b0:	000004e4 	andeq	r0, r0, r4, ror #9
     9b4:	e4560001 	ldrb	r0, [r6], #-1
     9b8:	48000004 	stmdami	r0, {r2}
     9bc:	03000005 	movweq	r0, #5
     9c0:	9f7e7b00 	svcls	0x007e7b00
     9c4:	00000548 	andeq	r0, r0, r8, asr #10
     9c8:	00000564 	andeq	r0, r0, r4, ror #10
     9cc:	00560001 	subseq	r0, r6, r1
	...
     9dc:	00007800 	andeq	r7, r0, r0, lsl #16
     9e0:	00009c00 	andeq	r9, r0, r0, lsl #24
     9e4:	50000100 	andpl	r0, r0, r0, lsl #2
     9e8:	0000009c 	muleq	r0, ip, r0
     9ec:	00000104 	andeq	r0, r0, r4, lsl #2
     9f0:	02700003 	rsbseq	r0, r0, #3
     9f4:	0001049f 	muleq	r1, pc, r4	; <UNPREDICTABLE>
     9f8:	00022c00 	andeq	r2, r2, r0, lsl #24
     9fc:	f3000400 	vshl.u8	d0, d0, d0
     a00:	009f5001 	addseq	r5, pc, r1
	...
     a18:	78000000 	stmdavc	r0, {}	; <UNPREDICTABLE>
     a1c:	e8000000 	stmda	r0, {}	; <UNPREDICTABLE>
     a20:	01000000 	mrseq	r0, (UNDEF: 0)
     a24:	00e85100 	rsceq	r5, r8, r0, lsl #2
     a28:	015c0000 	cmpeq	ip, r0
     a2c:	00010000 	andeq	r0, r1, r0
     a30:	00015c55 	andeq	r5, r1, r5, asr ip
     a34:	00016000 	andeq	r6, r1, r0
     a38:	51000100 	mrspl	r0, (UNDEF: 16)
     a3c:	00000160 	andeq	r0, r0, r0, ror #2
     a40:	000001b8 			; <UNDEFINED> instruction: 0x000001b8
     a44:	b8550001 	ldmdalt	r5, {r0}^
     a48:	c8000001 	stmdagt	r0, {r0}
     a4c:	01000001 	tsteq	r0, r1
     a50:	01c85100 	biceq	r5, r8, r0, lsl #2
     a54:	01ec0000 	mvneq	r0, r0
     a58:	00010000 	andeq	r0, r1, r0
     a5c:	0001ec55 	andeq	lr, r1, r5, asr ip
     a60:	00020000 	andeq	r0, r2, r0
     a64:	51000100 	mrspl	r0, (UNDEF: 16)
     a68:	00000200 	andeq	r0, r0, r0, lsl #4
     a6c:	0000022c 	andeq	r0, r0, ip, lsr #4
     a70:	00550001 	subseq	r0, r5, r1
	...
     a7c:	78000000 	stmdavc	r0, {}	; <UNPREDICTABLE>
     a80:	8c000000 	stchi	0, cr0, [r0], {-0}
     a84:	01000000 	mrseq	r0, (UNDEF: 0)
     a88:	008c5200 	addeq	r5, ip, r0, lsl #4
     a8c:	022c0000 	eoreq	r0, ip, #0
     a90:	00010000 	andeq	r0, r1, r0
     a94:	00000054 	andeq	r0, r0, r4, asr r0
	...
     aa0:	00010000 	andeq	r0, r1, r0
     aa4:	00000000 	andeq	r0, r0, r0
     aa8:	00007800 	andeq	r7, r0, r0, lsl #16
     aac:	0000fc00 	andeq	pc, r0, r0, lsl #24
     ab0:	53000100 	movwpl	r0, #256	; 0x100
     ab4:	00000154 	andeq	r0, r0, r4, asr r1
     ab8:	00000188 	andeq	r0, r0, r8, lsl #3
     abc:	88530001 	ldmdahi	r3, {r0}^
     ac0:	94000001 	strls	r0, [r0], #-1
     ac4:	04000001 	streq	r0, [r0], #-1
     ac8:	5301f300 	movwpl	pc, #4864	; 0x1300	; <UNPREDICTABLE>
     acc:	0001b89f 	muleq	r1, pc, r8	; <UNPREDICTABLE>
     ad0:	0001f000 	andeq	pc, r1, r0
     ad4:	53000100 	movwpl	r0, #256	; 0x100
     ad8:	000001f0 	strdeq	r0, [r0], -r0	; <UNPREDICTABLE>
     adc:	00000207 	andeq	r0, r0, r7, lsl #4
     ae0:	075c0001 	ldrbeq	r0, [ip, -r1]
     ae4:	2c000002 	stccs	0, cr0, [r0], {2}
     ae8:	04000002 	streq	r0, [r0], #-2
     aec:	5301f300 	movwpl	pc, #4864	; 0x1300	; <UNPREDICTABLE>
     af0:	0000009f 	muleq	r0, pc, r0	; <UNPREDICTABLE>
	...
     afc:	78000000 	stmdavc	r0, {}	; <UNPREDICTABLE>
     b00:	94000000 	strls	r0, [r0], #-0
     b04:	02000000 	andeq	r0, r0, #0
     b08:	94009100 	strls	r9, [r0], #-256	; 0xffffff00
     b0c:	9b000000 	blls	b14 <__code_start__-0x74ec>
     b10:	01000001 	tsteq	r0, r1
     b14:	01b85200 			; <UNDEFINED> instruction: 0x01b85200
     b18:	01fc0000 	mvnseq	r0, r0
     b1c:	00010000 	andeq	r0, r1, r0
     b20:	00000052 	andeq	r0, r0, r2, asr r0
     b24:	00000000 	andeq	r0, r0, r0
     b28:	00000100 	andeq	r0, r0, r0, lsl #2
     b2c:	00000101 	andeq	r0, r0, r1, lsl #2
     b30:	00000000 	andeq	r0, r0, r0
     b34:	01010000 	mrseq	r0, (UNDEF: 1)
     b38:	00000101 	andeq	r0, r0, r1, lsl #2
     b3c:	00000101 	andeq	r0, r0, r1, lsl #2
     b40:	00000000 	andeq	r0, r0, r0
     b44:	94000000 	strls	r0, [r0], #-0
     b48:	04000000 	streq	r0, [r0], #-0
     b4c:	04000001 	streq	r0, [r0], #-1
     b50:	7fa09100 	svcvc	0x00a09100
     b54:	0001049f 	muleq	r1, pc, r4	; <UNPREDICTABLE>
     b58:	00014400 	andeq	r4, r1, r0, lsl #8
     b5c:	50000100 	andpl	r0, r0, r0, lsl #2
     b60:	00000144 	andeq	r0, r0, r4, asr #2
     b64:	00000150 	andeq	r0, r0, r0, asr r1
     b68:	02710003 	rsbseq	r0, r1, #3
     b6c:	0001509f 	muleq	r1, pc, r0	; <UNPREDICTABLE>
     b70:	00015400 	andeq	r5, r1, r0, lsl #8
     b74:	50000100 	andpl	r0, r0, r0, lsl #2
     b78:	00000154 	andeq	r0, r0, r4, asr r1
     b7c:	00000160 	andeq	r0, r0, r0, ror #2
     b80:	a0910004 	addsge	r0, r1, r4
     b84:	01609f7f 	smceq	2559	; 0x9ff
     b88:	01740000 	cmneq	r4, r0
     b8c:	00010000 	andeq	r0, r1, r0
     b90:	00017451 	andeq	r7, r1, r1, asr r4
     b94:	00018000 	andeq	r8, r1, r0
     b98:	71000300 	mrsvc	r0, LR_irq
     b9c:	01809f7f 	orreq	r9, r0, pc, ror pc
     ba0:	018c0000 	orreq	r0, ip, r0
     ba4:	00030000 	andeq	r0, r3, r0
     ba8:	8c9f0171 	ldfhis	f0, [pc], {113}	; 0x71
     bac:	9b000001 	blls	bb8 <__code_start__-0x7448>
     bb0:	01000001 	tsteq	r0, r1
     bb4:	01b85000 			; <UNDEFINED> instruction: 0x01b85000
     bb8:	01b80000 			; <UNDEFINED> instruction: 0x01b80000
     bbc:	00040000 	andeq	r0, r4, r0
     bc0:	9f7fa091 	svcls	0x007fa091
     bc4:	000001b8 			; <UNDEFINED> instruction: 0x000001b8
     bc8:	000001c4 	andeq	r0, r0, r4, asr #3
     bcc:	a1910004 	orrsge	r0, r1, r4
     bd0:	01c49f7f 	biceq	r9, r4, pc, ror pc
     bd4:	01c80000 	biceq	r0, r8, r0
     bd8:	00040000 	andeq	r0, r4, r0
     bdc:	9f7fa091 	svcls	0x007fa091
     be0:	000001c8 	andeq	r0, r0, r8, asr #3
     be4:	000001dc 	ldrdeq	r0, [r0], -ip
     be8:	dc500001 	mrrcle	0, 0, r0, r0, cr1	; <UNPREDICTABLE>
     bec:	ec000001 	stc	0, cr0, [r0], {1}
     bf0:	03000001 	movweq	r0, #1
     bf4:	9f7f7000 	svcls	0x007f7000
     bf8:	000001ec 	andeq	r0, r0, ip, ror #3
     bfc:	0000022c 	andeq	r0, r0, ip, lsr #4
     c00:	a0910004 	addsge	r0, r1, r4
     c04:	00009f7f 	andeq	r9, r0, pc, ror pc
	...
     c10:	00010100 	andeq	r0, r1, r0, lsl #2
	...
     c20:	00980000 	addseq	r0, r8, r0
     c24:	00e40000 	rsceq	r0, r4, r0
     c28:	00010000 	andeq	r0, r1, r0
     c2c:	0000e45c 	andeq	lr, r0, ip, asr r4
     c30:	0000fc00 	andeq	pc, r0, r0, lsl #24
     c34:	53000100 	movwpl	r0, #256	; 0x100
     c38:	000000fc 	strdeq	r0, [r0], -ip
     c3c:	00000154 	andeq	r0, r0, r4, asr r1
     c40:	545c0001 	ldrbpl	r0, [ip], #-1
     c44:	60000001 	andvs	r0, r0, r1
     c48:	01000001 	tsteq	r0, r1
     c4c:	01605300 	cmneq	r0, r0, lsl #6
     c50:	017c0000 	cmneq	ip, r0
     c54:	00010000 	andeq	r0, r1, r0
     c58:	0001b85c 	andeq	fp, r1, ip, asr r8
     c5c:	0001c800 	andeq	ip, r1, r0, lsl #16
     c60:	53000100 	movwpl	r0, #256	; 0x100
     c64:	000001c8 	andeq	r0, r0, r8, asr #3
     c68:	000001e4 	andeq	r0, r0, r4, ror #3
     c6c:	ec5c0001 	mrrc	0, 0, r0, ip, cr1
     c70:	f0000001 			; <UNDEFINED> instruction: 0xf0000001
     c74:	01000001 	tsteq	r0, r1
     c78:	01f05300 	mvnseq	r5, r0, lsl #6
     c7c:	02070000 	andeq	r0, r7, #0
     c80:	00010000 	andeq	r0, r1, r0
     c84:	0002075c 	andeq	r0, r2, ip, asr r7
     c88:	00022c00 	andeq	r2, r2, r0, lsl #24
     c8c:	f3000400 	vshl.u8	d0, d0, d0
     c90:	009f5301 	addseq	r5, pc, r1, lsl #6
     c94:	00000000 	andeq	r0, r0, r0
     c98:	01000000 	mrseq	r0, (UNDEF: 0)
     c9c:	00000101 	andeq	r0, r0, r1, lsl #2
     ca0:	e4000000 	str	r0, [r0], #-0
     ca4:	f8000000 			; <UNDEFINED> instruction: 0xf8000000
     ca8:	02000000 	andeq	r0, r0, #0
     cac:	f89f3000 			; <UNDEFINED> instruction: 0xf89f3000
     cb0:	00000000 	andeq	r0, r0, r0
     cb4:	02000001 	andeq	r0, r0, #1
     cb8:	049f3100 	ldreq	r3, [pc], #256	; cc0 <__code_start__-0x7340>
     cbc:	54000001 	strpl	r0, [r0], #-1
     cc0:	01000001 	tsteq	r0, r1
     cc4:	01545600 	cmpeq	r4, r0, lsl #12
     cc8:	015c0000 	cmpeq	ip, r0
     ccc:	00020000 	andeq	r0, r2, r0
     cd0:	00009f30 	andeq	r9, r0, r0, lsr pc
	...
     cdc:	00010100 	andeq	r0, r1, r0, lsl #2
     ce0:	00010100 	andeq	r0, r1, r0, lsl #2
     ce4:	0000003c 	andeq	r0, r0, ip, lsr r0
     ce8:	0000005c 	andeq	r0, r0, ip, asr r0
     cec:	5c500001 	mrrcpl	0, 0, r0, r0, cr1	; <UNPREDICTABLE>
     cf0:	5c000000 	stcpl	0, cr0, [r0], {-0}
     cf4:	01000000 	mrseq	r0, (UNDEF: 0)
     cf8:	005c5200 	subseq	r5, ip, r0, lsl #4
     cfc:	00640000 	rsbeq	r0, r4, r0
     d00:	00030000 	andeq	r0, r3, r0
     d04:	649f0172 	ldrvs	r0, [pc], #370	; d0c <__code_start__-0x72f4>
     d08:	6c000000 	stcvs	0, cr0, [r0], {-0}
     d0c:	01000000 	mrseq	r0, (UNDEF: 0)
     d10:	006c5200 	rsbeq	r5, ip, r0, lsl #4
     d14:	00780000 	rsbseq	r0, r8, r0
     d18:	00030000 	andeq	r0, r3, r0
     d1c:	009f0172 	addseq	r0, pc, r2, ror r1	; <UNPREDICTABLE>
	...
     d28:	3c000000 	stccc	0, cr0, [r0], {-0}
     d2c:	54000000 	strpl	r0, [r0], #-0
     d30:	01000000 	mrseq	r0, (UNDEF: 0)
     d34:	00545100 	subseq	r5, r4, r0, lsl #2
     d38:	00780000 	rsbseq	r0, r8, r0
     d3c:	00040000 	andeq	r0, r4, r0
     d40:	9f5101f3 	svcls	0x005101f3
	...
     d50:	00010100 	andeq	r0, r1, r0, lsl #2
     d54:	0000003c 	andeq	r0, r0, ip, lsr r0
     d58:	00000054 	andeq	r0, r0, r4, asr r0
     d5c:	54520001 	ldrbpl	r0, [r2], #-1
     d60:	60000000 	andvs	r0, r0, r0
     d64:	01000000 	mrseq	r0, (UNDEF: 0)
     d68:	00605100 	rsbeq	r5, r0, r0, lsl #2
     d6c:	00640000 	rsbeq	r0, r4, r0
     d70:	00030000 	andeq	r0, r3, r0
     d74:	649f0171 	ldrvs	r0, [pc], #369	; d7c <__code_start__-0x7284>
     d78:	78000000 	stmdavc	r0, {}	; <UNPREDICTABLE>
     d7c:	01000000 	mrseq	r0, (UNDEF: 0)
     d80:	00005100 	andeq	r5, r0, r0, lsl #2
	...
     d8c:	003c0000 	eorseq	r0, ip, r0
     d90:	00500000 	subseq	r0, r0, r0
     d94:	00010000 	andeq	r0, r1, r0
     d98:	00005053 	andeq	r5, r0, r3, asr r0
     d9c:	00007000 	andeq	r7, r0, r0
     da0:	53000100 	movwpl	r0, #256	; 0x100
	...
     db4:	00440000 	subeq	r0, r4, r0
     db8:	004c0000 	subeq	r0, ip, r0
     dbc:	00010000 	andeq	r0, r1, r0
     dc0:	00004c5c 	andeq	r4, r0, ip, asr ip
     dc4:	00005000 	andeq	r5, r0, r0
     dc8:	72000800 	andvc	r0, r0, #0, 16
     dcc:	1c007300 	stcne	3, cr7, [r0], {-0}
     dd0:	509f0123 	addspl	r0, pc, r3, lsr #2
     dd4:	58000000 	stmdapl	r0, {}	; <UNPREDICTABLE>
     dd8:	09000000 	stmdbeq	r0, {}	; <UNPREDICTABLE>
     ddc:	f3007200 	vhsub.u8	d7, d0, d0
     de0:	231c5301 	tstcs	ip, #67108864	; 0x4000000
     de4:	00589f01 	subseq	r9, r8, r1, lsl #30
     de8:	005c0000 	subseq	r0, ip, r0
     dec:	00090000 	andeq	r0, r9, r0
     df0:	01f30071 	mvnseq	r0, r1, ror r0
     df4:	02231c53 	eoreq	r1, r3, #21248	; 0x5300
     df8:	00005c9f 	muleq	r0, pc, ip	; <UNPREDICTABLE>
     dfc:	00007800 	andeq	r7, r0, r0, lsl #16
     e00:	f3000a00 	vpmax.u8	d0, d0, d0
     e04:	01f35201 	mvnseq	r5, r1, lsl #4
     e08:	01231c53 			; <UNDEFINED> instruction: 0x01231c53
     e0c:	0000009f 	muleq	r0, pc, r0	; <UNPREDICTABLE>
     e10:	00000000 	andeq	r0, r0, r0
     e14:	50000100 	andpl	r0, r0, r0, lsl #2
     e18:	78000000 	stmdavc	r0, {}	; <UNPREDICTABLE>
     e1c:	01000000 	mrseq	r0, (UNDEF: 0)
     e20:	00005000 	andeq	r5, r0, r0
     e24:	00000000 	andeq	r0, r0, r0
     e28:	01000000 	mrseq	r0, (UNDEF: 0)
     e2c:	00000001 	andeq	r0, r0, r1
     e30:	00000014 	andeq	r0, r0, r4, lsl r0
     e34:	0000001c 	andeq	r0, r0, ip, lsl r0
     e38:	1c500001 	mrrcne	0, 0, r0, r0, cr1	; <UNPREDICTABLE>
     e3c:	24000000 	strcs	r0, [r0], #-0
     e40:	03000000 	movweq	r0, #0
     e44:	9f017000 	svcls	0x00017000
     e48:	00000024 	andeq	r0, r0, r4, lsr #32
     e4c:	0000003c 	andeq	r0, r0, ip, lsr r0
     e50:	00500001 	subseq	r0, r0, r1
	...
     e5c:	14000000 	strne	r0, [r0], #-0
     e60:	18000000 	stmdane	r0, {}	; <UNPREDICTABLE>
     e64:	01000000 	mrseq	r0, (UNDEF: 0)
     e68:	00185100 	andseq	r5, r8, r0, lsl #2
     e6c:	003c0000 	eorseq	r0, ip, r0
     e70:	00040000 	andeq	r0, r4, r0
     e74:	9f5101f3 	svcls	0x005101f3
	...
     e80:	00180000 	andseq	r0, r8, r0
     e84:	003c0000 	eorseq	r0, ip, r0
     e88:	00010000 	andeq	r0, r1, r0
     e8c:	00000051 	andeq	r0, r0, r1, asr r0
	...
     e9c:	04000000 	streq	r0, [r0], #-0
     ea0:	01000000 	mrseq	r0, (UNDEF: 0)
     ea4:	00045000 	andeq	r5, r4, r0
     ea8:	000c0000 	andeq	r0, ip, r0
     eac:	00030000 	andeq	r0, r3, r0
     eb0:	0c9f3070 	ldceq	0, cr3, [pc], {112}	; 0x70
     eb4:	14000000 	strne	r0, [r0], #-0
     eb8:	04000000 	streq	r0, [r0], #-0
     ebc:	5001f300 	andpl	pc, r1, r0, lsl #6
     ec0:	0000009f 	muleq	r0, pc, r0	; <UNPREDICTABLE>
	...
     ecc:	00022c00 	andeq	r2, r2, r0, lsl #24
     ed0:	00027000 	andeq	r7, r2, r0
     ed4:	50000100 	andpl	r0, r0, r0, lsl #2
     ed8:	00000270 	andeq	r0, r0, r0, ror r2
     edc:	00000290 	muleq	r0, r0, r2
     ee0:	01f30004 	mvnseq	r0, r4
     ee4:	00009f50 	andeq	r9, r0, r0, asr pc
	...
     ef0:	022c0000 	eoreq	r0, ip, #0
     ef4:	026c0000 	rsbeq	r0, ip, #0
     ef8:	00010000 	andeq	r0, r1, r0
     efc:	00026c51 	andeq	r6, r2, r1, asr ip
     f00:	00029000 	andeq	r9, r2, r0
     f04:	f3000400 	vshl.u8	d0, d0, d0
     f08:	009f5101 	addseq	r5, pc, r1, lsl #2
	...
     f14:	00000101 	andeq	r0, r0, r1, lsl #2
     f18:	00001000 	andeq	r1, r0, r0
     f1c:	00001000 	andeq	r1, r0, r0
     f20:	53000100 	movwpl	r0, #256	; 0x100
     f24:	00000010 	andeq	r0, r0, r0, lsl r0
     f28:	00000018 	andeq	r0, r0, r8, lsl r0
     f2c:	04730003 	ldrbteq	r0, [r3], #-3
     f30:	0000189f 	muleq	r0, pc, r8	; <UNPREDICTABLE>
     f34:	00002700 	andeq	r2, r0, r0, lsl #14
     f38:	53000100 	movwpl	r0, #256	; 0x100
	...
     f44:	8b900001 	blhi	fe400f50 <__bss_end__+0xfe3f7a50>
     f48:	8bac0000 	blhi	feb00f50 <__bss_end__+0xfeaf7a50>
     f4c:	00060000 	andeq	r0, r6, r0
     f50:	10001c0c 	andne	r1, r0, ip, lsl #24
     f54:	00009f20 	andeq	r9, r0, r0, lsr #30
     f58:	00000000 	andeq	r0, r0, r0
     f5c:	00020000 	andeq	r0, r2, r0
     f60:	00008b90 	muleq	r0, r0, fp
     f64:	00008bac 	andeq	r8, r0, ip, lsr #23
     f68:	240c0006 	strcs	r0, [ip], #-6
     f6c:	9f201000 	svcls	0x00201000
	...
     f78:	8b900003 	blhi	fe400f8c <__bss_end__+0xfe3f7a8c>
     f7c:	8bac0000 	blhi	feb00f84 <__bss_end__+0xfeaf7a84>
     f80:	00050000 	andeq	r0, r5, r0
     f84:	2447b408 	strbcs	fp, [r7], #-1032	; 0xfffffbf8
     f88:	0000009f 	muleq	r0, pc, r0	; <UNPREDICTABLE>
     f8c:	00000000 	andeq	r0, r0, r0
     f90:	90000400 	andls	r0, r0, r0, lsl #8
     f94:	ac00008b 	stcge	0, cr0, [r0], {139}	; 0x8b
     f98:	0300008b 	movweq	r0, #139	; 0x8b
     f9c:	9f200800 	svcls	0x00200800
	...
     fa8:	00000002 	andeq	r0, r0, r2
     fac:	8b5c0000 	blhi	1700fb4 <__bss_end__+0x16f7ab4>
     fb0:	8b600000 	blhi	1800fb8 <__bss_end__+0x17f7ab8>
     fb4:	00020000 	andeq	r0, r2, r0
     fb8:	8b609f30 	blhi	1828c80 <__bss_end__+0x181f780>
     fbc:	8b640000 	blhi	1900fc4 <__bss_end__+0x18f7ac4>
     fc0:	00010000 	andeq	r0, r1, r0
     fc4:	008b6853 	addeq	r6, fp, r3, asr r8
     fc8:	008b7000 	addeq	r7, fp, r0
     fcc:	53000100 	movwpl	r0, #256	; 0x100
	...
     fd8:	00000002 	andeq	r0, r0, r2
     fdc:	00008b44 	andeq	r8, r0, r4, asr #22
     fe0:	00008b48 	andeq	r8, r0, r8, asr #22
     fe4:	9f300002 	svcls	0x00300002
     fe8:	00008b48 	andeq	r8, r0, r8, asr #22
     fec:	00008b4c 	andeq	r8, r0, ip, asr #22
     ff0:	00500001 	subseq	r0, r0, r1
	...
     ffc:	6c000000 	stcvs	0, cr0, [r0], {-0}
    1000:	78000000 	stmdavc	r0, {}	; <UNPREDICTABLE>
    1004:	01000000 	mrseq	r0, (UNDEF: 0)
    1008:	00785000 	rsbseq	r5, r8, r0
    100c:	00840000 	addeq	r0, r4, r0
    1010:	00040000 	andeq	r0, r4, r0
    1014:	9f5001f3 	svcls	0x005001f3
	...
    1024:	00000054 	andeq	r0, r0, r4, asr r0
    1028:	00000060 	andeq	r0, r0, r0, rrx
    102c:	60500001 	subsvs	r0, r0, r1
    1030:	6c000000 	stcvs	0, cr0, [r0], {-0}
    1034:	04000000 	streq	r0, [r0], #-0
    1038:	5001f300 	andpl	pc, r1, r0, lsl #6
    103c:	0000009f 	muleq	r0, pc, r0	; <UNPREDICTABLE>
	...
    1048:	00003000 	andeq	r3, r0, r0
    104c:	00003b00 	andeq	r3, r0, r0, lsl #22
    1050:	50000100 	andpl	r0, r0, r0, lsl #2
    1054:	0000003b 	andeq	r0, r0, fp, lsr r0
    1058:	00000054 	andeq	r0, r0, r4, asr r0
    105c:	00550001 	subseq	r0, r5, r1
	...
    1068:	00004000 	andeq	r4, r0, r0
    106c:	00005400 	andeq	r5, r0, r0, lsl #8
    1070:	54000100 	strpl	r0, [r0], #-256	; 0xffffff00
	...
    107c:	00440000 	subeq	r0, r4, r0
    1080:	00480000 	subeq	r0, r8, r0
    1084:	00010000 	andeq	r0, r1, r0
    1088:	00000050 	andeq	r0, r0, r0, asr r0
	...
    1094:	00002400 	andeq	r2, r0, r0, lsl #8
    1098:	00002700 	andeq	r2, r0, r0, lsl #14
    109c:	50000100 	andpl	r0, r0, r0, lsl #2
    10a0:	00000027 	andeq	r0, r0, r7, lsr #32
    10a4:	00000030 	andeq	r0, r0, r0, lsr r0
    10a8:	00540001 	subseq	r0, r4, r1
	...
    10b4:	58000000 	stmdapl	r0, {}	; <UNPREDICTABLE>
    10b8:	63000001 	movwvs	r0, #1
    10bc:	01000001 	tsteq	r0, r1
    10c0:	01635000 	cmneq	r3, r0
    10c4:	01880000 	orreq	r0, r8, r0
    10c8:	00010000 	andeq	r0, r1, r0
    10cc:	00000054 	andeq	r0, r0, r4, asr r0
    10d0:	00000000 	andeq	r0, r0, r0
    10d4:	48000000 	stmdami	r0, {}	; <UNPREDICTABLE>
    10d8:	58000001 	stmdapl	r0, {r0}
    10dc:	01000001 	tsteq	r0, r1
    10e0:	00005400 	andeq	r5, r0, r0, lsl #8
	...
    10f0:	000f0000 	andeq	r0, pc, r0
    10f4:	00010000 	andeq	r0, r1, r0
    10f8:	00000f50 	andeq	r0, r0, r0, asr pc
    10fc:	00002000 	andeq	r2, r0, r0
    1100:	54000100 	strpl	r0, [r0], #-256	; 0xffffff00
	...
    1114:	0000000f 	andeq	r0, r0, pc
    1118:	0f510001 	svceq	0x00510001
    111c:	20000000 	andcs	r0, r0, r0
    1120:	01000000 	mrseq	r0, (UNDEF: 0)
    1124:	00005500 	andeq	r5, r0, r0, lsl #10
	...
    1130:	00200000 	eoreq	r0, r0, r0
    1134:	002f0000 	eoreq	r0, pc, r0
    1138:	00010000 	andeq	r0, r1, r0
    113c:	00002f50 	andeq	r2, r0, r0, asr pc
    1140:	00004000 	andeq	r4, r0, r0
    1144:	54000100 	strpl	r0, [r0], #-256	; 0xffffff00
	...
    1154:	00000020 	andeq	r0, r0, r0, lsr #32
    1158:	0000002f 	andeq	r0, r0, pc, lsr #32
    115c:	2f510001 	svccs	0x00510001
    1160:	40000000 	andmi	r0, r0, r0
    1164:	01000000 	mrseq	r0, (UNDEF: 0)
    1168:	00005500 	andeq	r5, r0, r0, lsl #10
	...
    117c:	00000004 	andeq	r0, r0, r4
    1180:	04510001 	ldrbeq	r0, [r1], #-1
    1184:	0c000000 	stceq	0, cr0, [r0], {-0}
    1188:	01000000 	mrseq	r0, (UNDEF: 0)
    118c:	000c5100 	andeq	r5, ip, r0, lsl #2
    1190:	00200000 	eoreq	r0, r0, r0
    1194:	00030000 	andeq	r0, r3, r0
    1198:	009f7f71 	addseq	r7, pc, r1, ror pc	; <UNPREDICTABLE>
    119c:	00000000 	andeq	r0, r0, r0
    11a0:	02000000 	andeq	r0, r0, #0
	...
    11ac:	00000400 	andeq	r0, r0, r0, lsl #8
    11b0:	50000100 	andpl	r0, r0, r0, lsl #2
    11b4:	00000004 	andeq	r0, r0, r4
    11b8:	00000014 	andeq	r0, r0, r4, lsl r0
    11bc:	145c0001 	ldrbne	r0, [ip], #-1
    11c0:	20000000 	andcs	r0, r0, r0
    11c4:	03000000 	movweq	r0, #0
    11c8:	9f7f7c00 	svcls	0x007f7c00
	...
    11dc:	0000001c 	andeq	r0, r0, ip, lsl r0
    11e0:	1c510001 	mrrcne	0, 0, r0, r1, cr1
    11e4:	34000000 	strcc	r0, [r0], #-0
    11e8:	04000000 	streq	r0, [r0], #-0
    11ec:	5101f300 	mrspl	pc, SP_irq	; <UNPREDICTABLE>
    11f0:	0000009f 	muleq	r0, pc, r0	; <UNPREDICTABLE>
    11f4:	00000000 	andeq	r0, r0, r0
    11f8:	00000200 	andeq	r0, r0, r0, lsl #4
    11fc:	01010000 	mrseq	r0, (UNDEF: 1)
    1200:	00000000 	andeq	r0, r0, r0
    1204:	04000000 	streq	r0, [r0], #-0
    1208:	01000000 	mrseq	r0, (UNDEF: 0)
    120c:	00045000 	andeq	r5, r4, r0
    1210:	001c0000 	andseq	r0, ip, r0
    1214:	00010000 	andeq	r0, r1, r0
    1218:	00001c52 	andeq	r1, r0, r2, asr ip
    121c:	00002400 	andeq	r2, r0, r0, lsl #8
    1220:	53000100 	movwpl	r0, #256	; 0x100
    1224:	00000024 	andeq	r0, r0, r4, lsr #32
    1228:	00000028 	andeq	r0, r0, r8, lsr #32
    122c:	01730003 	cmneq	r3, r3
    1230:	0000289f 	muleq	r0, pc, r8	; <UNPREDICTABLE>
    1234:	00003400 	andeq	r3, r0, r0, lsl #8
    1238:	53000100 	movwpl	r0, #256	; 0x100
	...
    1244:	00000003 	andeq	r0, r0, r3
    1248:	00000000 	andeq	r0, r0, r0
    124c:	00000024 	andeq	r0, r0, r4, lsr #32
    1250:	24510001 	ldrbcs	r0, [r1], #-1
    1254:	34000000 	strcc	r0, [r0], #-0
    1258:	03000000 	movweq	r0, #0
    125c:	9f7f7100 	svcls	0x007f7100
	...
    126c:	00000010 	andeq	r0, r0, r0, lsl r0
    1270:	0000001c 	andeq	r0, r0, ip, lsl r0
    1274:	245c0001 	ldrbcs	r0, [ip], #-1
    1278:	34000000 	strcc	r0, [r0], #-0
    127c:	01000000 	mrseq	r0, (UNDEF: 0)
    1280:	00005200 	andeq	r5, r0, r0, lsl #4
	...
    1290:	00080000 	andeq	r0, r8, r0
    1294:	00010000 	andeq	r0, r1, r0
    1298:	00000850 	andeq	r0, r0, r0, asr r8
    129c:	00002800 	andeq	r2, r0, r0, lsl #16
    12a0:	50000100 	andpl	r0, r0, r0, lsl #2
	...
    12b4:	0000000c 	andeq	r0, r0, ip
    12b8:	0c510001 	mrrceq	0, 0, r0, r1, cr1
    12bc:	30000000 	andcc	r0, r0, r0
    12c0:	01000000 	mrseq	r0, (UNDEF: 0)
    12c4:	00005100 	andeq	r5, r0, r0, lsl #2
    12c8:	00000000 	andeq	r0, r0, r0
    12cc:	03000000 	movweq	r0, #0
    12d0:	8ec40003 	cdphi	0, 12, cr0, cr4, cr3, {0}
    12d4:	8ec40000 	cdphi	0, 12, cr0, cr4, cr0, {0}
    12d8:	00010000 	andeq	r0, r1, r0
    12dc:	008ec450 	addeq	ip, lr, r0, asr r4
    12e0:	008ef000 	addeq	pc, lr, r0
    12e4:	f3000400 	vshl.u8	d0, d0, d0
    12e8:	009f5001 	addseq	r5, pc, r1
	...
    12f4:	c4000303 	strgt	r0, [r0], #-771	; 0xfffffcfd
    12f8:	c400008e 	strgt	r0, [r0], #-142	; 0xffffff72
    12fc:	0100008e 	smlabbeq	r0, lr, r0, r0
    1300:	8ec45100 	polhis	f5, f4, f0
    1304:	8ef00000 	cdphi	0, 15, cr0, cr0, cr0, {0}
    1308:	00040000 	andeq	r0, r4, r0
    130c:	9f5101f3 	svcls	0x005101f3
	...
    1318:	00030300 	andeq	r0, r3, r0, lsl #6
    131c:	8ec40000 	cdphi	0, 12, cr0, cr4, cr0, {0}
    1320:	8ec40000 	cdphi	0, 12, cr0, cr4, cr0, {0}
    1324:	00010000 	andeq	r0, r1, r0
    1328:	008ec452 	addeq	ip, lr, r2, asr r4
    132c:	008ecc00 	addeq	ip, lr, r0, lsl #24
    1330:	52000100 	andpl	r0, r0, #0, 2
    1334:	00008ecc 	andeq	r8, r0, ip, asr #29
    1338:	00008ef0 	strdeq	r8, [r0], -r0
    133c:	01720003 	cmneq	r2, r3
    1340:	0000009f 	muleq	r0, pc, r0	; <UNPREDICTABLE>
    1344:	00000000 	andeq	r0, r0, r0
    1348:	01010200 	mrseq	r0, R9_usr
    134c:	00000000 	andeq	r0, r0, r0
    1350:	008ec400 	addeq	ip, lr, r0, lsl #8
    1354:	008ed000 	addeq	sp, lr, r0
    1358:	50000100 	andpl	r0, r0, r0, lsl #2
    135c:	00008ed0 	ldrdeq	r8, [r0], -r0
    1360:	00008ed4 	ldrdeq	r8, [r0], -r4
    1364:	01700003 	cmneq	r0, r3
    1368:	008ed49f 	umulleq	sp, lr, pc, r4	; <UNPREDICTABLE>
    136c:	008ee400 	addeq	lr, lr, r0, lsl #8
    1370:	50000100 	andpl	r0, r0, r0, lsl #2
    1374:	00008ee8 	andeq	r8, r0, r8, ror #29
    1378:	00008eec 	andeq	r8, r0, ip, ror #29
    137c:	00500001 	subseq	r0, r0, r1
    1380:	00000000 	andeq	r0, r0, r0
    1384:	02000000 	andeq	r0, r0, #0
    1388:	00000000 	andeq	r0, r0, r0
    138c:	008ec400 	addeq	ip, lr, r0, lsl #8
    1390:	008ed400 	addeq	sp, lr, r0, lsl #8
    1394:	51000100 	mrspl	r0, (UNDEF: 16)
    1398:	00008ed4 	ldrdeq	r8, [r0], -r4
    139c:	00008ed8 	ldrdeq	r8, [r0], -r8	; <UNPREDICTABLE>
    13a0:	01710003 	cmneq	r1, r3
    13a4:	008ed89f 	umulleq	sp, lr, pc, r8	; <UNPREDICTABLE>
    13a8:	008ef000 	addeq	pc, lr, r0
    13ac:	51000100 	mrspl	r0, (UNDEF: 16)
	...

Disassembly of section .debug_aranges:

00000000 <.debug_aranges>:
   0:	0000001c 	andeq	r0, r0, ip, lsl r0
   4:	00000002 	andeq	r0, r0, r2
   8:	00040000 	andeq	r0, r4, r0
   c:	00000000 	andeq	r0, r0, r0
  10:	00008038 	andeq	r8, r0, r8, lsr r0
  14:	00000174 	andeq	r0, r0, r4, ror r1
	...
  20:	0000001c 	andeq	r0, r0, ip, lsl r0
  24:	05140002 	ldreq	r0, [r4, #-2]
  28:	00040000 	andeq	r0, r4, r0
  2c:	00000000 	andeq	r0, r0, r0
  30:	000081ac 	andeq	r8, r0, ip, lsr #3
  34:	0000011c 	andeq	r0, r0, ip, lsl r1
	...
  40:	0000001c 	andeq	r0, r0, ip, lsl r0
  44:	08bd0002 	ldmfdeq	sp!, {r1}
  48:	00040000 	andeq	r0, r4, r0
  4c:	00000000 	andeq	r0, r0, r0
  50:	000082c8 	andeq	r8, r0, r8, asr #5
  54:	00000058 	andeq	r0, r0, r8, asr r0
	...
  60:	0000001c 	andeq	r0, r0, ip, lsl r0
  64:	0a3d0002 	beq	f40074 <__bss_end__+0xf36b74>
  68:	00040000 	andeq	r0, r4, r0
  6c:	00000000 	andeq	r0, r0, r0
  70:	00008320 	andeq	r8, r0, r0, lsr #6
  74:	00000034 	andeq	r0, r0, r4, lsr r0
	...
  80:	0000001c 	andeq	r0, r0, ip, lsl r0
  84:	0b340002 	bleq	d00094 <__bss_end__+0xcf6b94>
  88:	00040000 	andeq	r0, r4, r0
  8c:	00000000 	andeq	r0, r0, r0
  90:	00008354 	andeq	r8, r0, r4, asr r3
  94:	0000003c 	andeq	r0, r0, ip, lsr r0
	...
  a0:	0000001c 	andeq	r0, r0, ip, lsl r0
  a4:	0c550002 	mrrceq	0, 0, r0, r5, cr2
  a8:	00040000 	andeq	r0, r4, r0
  ac:	00000000 	andeq	r0, r0, r0
  b0:	00008390 	muleq	r0, r0, r3
  b4:	00000748 	andeq	r0, r0, r8, asr #14
	...
  c0:	0000001c 	andeq	r0, r0, ip, lsl r0
  c4:	16d00002 	ldrbne	r0, [r0], r2
  c8:	00040000 	andeq	r0, r4, r0
  cc:	00000000 	andeq	r0, r0, r0
  d0:	00008ad8 	ldrdeq	r8, [r0], -r8	; <UNPREDICTABLE>
  d4:	0000002c 	andeq	r0, r0, ip, lsr #32
	...
  e0:	0000001c 	andeq	r0, r0, ip, lsl r0
  e4:	17e20002 	strbne	r0, [r2, r2]!
  e8:	00040000 	andeq	r0, r4, r0
  ec:	00000000 	andeq	r0, r0, r0
  f0:	00008b04 	andeq	r8, r0, r4, lsl #22
  f4:	00000040 	andeq	r0, r0, r0, asr #32
	...
 100:	0000001c 	andeq	r0, r0, ip, lsl r0
 104:	19220002 	stmdbne	r2!, {r1}
 108:	00040000 	andeq	r0, r4, r0
 10c:	00000000 	andeq	r0, r0, r0
 110:	00008b44 	andeq	r8, r0, r4, asr #22
 114:	00000080 	andeq	r0, r0, r0, lsl #1
	...
 120:	0000001c 	andeq	r0, r0, ip, lsl r0
 124:	1b0f0002 	blne	3c0134 <__bss_end__+0x3b6c34>
 128:	00040000 	andeq	r0, r4, r0
 12c:	00000000 	andeq	r0, r0, r0
 130:	00008bc4 	andeq	r8, r0, r4, asr #23
 134:	00000004 	andeq	r0, r0, r4
	...
 140:	0000001c 	andeq	r0, r0, ip, lsl r0
 144:	1b940002 	blne	fe500154 <__bss_end__+0xfe4f6c54>
 148:	00040000 	andeq	r0, r4, r0
 14c:	00000000 	andeq	r0, r0, r0
 150:	00008bc8 	andeq	r8, r0, r8, asr #23
 154:	00000004 	andeq	r0, r0, r4
	...
 160:	0000001c 	andeq	r0, r0, ip, lsl r0
 164:	1c190002 	ldcne	0, cr0, [r9], {2}
 168:	00040000 	andeq	r0, r4, r0
 16c:	00000000 	andeq	r0, r0, r0
 170:	00008bcc 	andeq	r8, r0, ip, asr #23
 174:	00000084 	andeq	r0, r0, r4, lsl #1
	...
 180:	0000001c 	andeq	r0, r0, ip, lsl r0
 184:	1e1d0002 	cdpne	0, 1, cr0, cr13, cr2, {0}
 188:	00040000 	andeq	r0, r4, r0
 18c:	00000000 	andeq	r0, r0, r0
 190:	00008c50 	andeq	r8, r0, r0, asr ip
 194:	000001f0 	strdeq	r0, [r0], -r0	; <UNPREDICTABLE>
	...
 1a0:	0000001c 	andeq	r0, r0, ip, lsl r0
 1a4:	23ee0002 	mvncs	r0, #2
 1a8:	00040000 	andeq	r0, r4, r0
 1ac:	00000000 	andeq	r0, r0, r0
 1b0:	00008e40 	andeq	r8, r0, r0, asr #28
 1b4:	00000020 	andeq	r0, r0, r0, lsr #32
	...
 1c0:	0000001c 	andeq	r0, r0, ip, lsl r0
 1c4:	24bf0002 	ldrtcs	r0, [pc], #2	; 1cc <__code_start__-0x7e34>
 1c8:	00040000 	andeq	r0, r4, r0
 1cc:	00000000 	andeq	r0, r0, r0
 1d0:	00008e60 	andeq	r8, r0, r0, ror #28
 1d4:	00000034 	andeq	r0, r0, r4, lsr r0
	...
 1e0:	0000001c 	andeq	r0, r0, ip, lsl r0
 1e4:	25b80002 	ldrcs	r0, [r8, #2]!
 1e8:	00040000 	andeq	r0, r4, r0
 1ec:	00000000 	andeq	r0, r0, r0
 1f0:	00008e94 	muleq	r0, r4, lr
 1f4:	00000030 	andeq	r0, r0, r0, lsr r0
	...
 200:	0000001c 	andeq	r0, r0, ip, lsl r0
 204:	26710002 	ldrbtcs	r0, [r1], -r2
 208:	00040000 	andeq	r0, r4, r0
 20c:	00000000 	andeq	r0, r0, r0
 210:	00008ec4 	andeq	r8, r0, r4, asr #29
 214:	0000002c 	andeq	r0, r0, ip, lsr #32
	...

Disassembly of section .debug_ranges:

00000000 <.debug_ranges>:
   0:	000000b0 	strheq	r0, [r0], -r0	; <UNPREDICTABLE>
   4:	00000134 	andeq	r0, r0, r4, lsr r1
   8:	00000134 	andeq	r0, r0, r4, lsr r1
   c:	00000164 	andeq	r0, r0, r4, ror #2
	...
  18:	000000b8 	strheq	r0, [r0], -r8
  1c:	00000128 	andeq	r0, r0, r8, lsr #2
  20:	00000134 	andeq	r0, r0, r4, lsr r1
  24:	00000134 	andeq	r0, r0, r4, lsr r1
  28:	00000134 	andeq	r0, r0, r4, lsr r1
  2c:	00000164 	andeq	r0, r0, r4, ror #2
	...
  38:	000000b8 	strheq	r0, [r0], -r8
  3c:	00000128 	andeq	r0, r0, r8, lsr #2
  40:	00000154 	andeq	r0, r0, r4, asr r1
  44:	00000164 	andeq	r0, r0, r4, ror #2
	...
  50:	000000b8 	strheq	r0, [r0], -r8
  54:	00000128 	andeq	r0, r0, r8, lsr #2
  58:	00000154 	andeq	r0, r0, r4, asr r1
  5c:	00000158 	andeq	r0, r0, r8, asr r1
  60:	00000160 	andeq	r0, r0, r0, ror #2
  64:	00000164 	andeq	r0, r0, r4, ror #2
	...
  70:	000000b8 	strheq	r0, [r0], -r8
  74:	000000dc 	ldrdeq	r0, [r0], -ip
  78:	000000e0 	andeq	r0, r0, r0, ror #1
  7c:	000000e4 	andeq	r0, r0, r4, ror #1
  80:	000000f0 	strdeq	r0, [r0], -r0	; <UNPREDICTABLE>
  84:	00000128 	andeq	r0, r0, r8, lsr #2
	...
  90:	00008b44 	andeq	r8, r0, r4, asr #22
  94:	00008bc4 	andeq	r8, r0, r4, asr #23
	...
  a0:	00008ec4 	andeq	r8, r0, r4, asr #29
  a4:	00008ef0 	strdeq	r8, [r0], -r0
	...

Disassembly of section .debug_line:

00000000 <.debug_line>:
       0:	00000290 	muleq	r0, r0, r2
       4:	007f0003 	rsbseq	r0, pc, r3
       8:	01020000 	mrseq	r0, (UNDEF: 2)
       c:	000d0efb 	strdeq	r0, [sp], -fp
      10:	01010101 	tsteq	r1, r1, lsl #2
      14:	01000000 	mrseq	r0, (UNDEF: 0)
      18:	2f010000 	svccs	0x00010000
      1c:	656d6f68 	strbvs	r6, [sp, #-3944]!	; 0xfffff098
      20:	7261702f 	rsbvc	r7, r1, #47	; 0x2f
      24:	76696874 			; <UNDEFINED> instruction: 0x76696874
      28:	636f442f 	cmnvs	pc, #788529152	; 0x2f000000
      2c:	6e656d75 	mcrvs	13, 3, r6, cr5, cr5, {3}
      30:	632f7374 			; <UNDEFINED> instruction: 0x632f7374
      34:	30343273 	eorscc	r3, r4, r3, ror r2
      38:	632f786c 			; <UNDEFINED> instruction: 0x632f786c
      3c:	30343273 	eorscc	r3, r4, r3, ror r2
      40:	6c2f786c 	stcvs	8, cr7, [pc], #-432	; fffffe98 <__bss_end__+0xffff6998>
      44:	69706269 	ldmdbvs	r0!, {r0, r3, r5, r6, r9, sp, lr}^
      48:	636e692f 	cmnvs	lr, #770048	; 0xbc000
      4c:	6564756c 	strbvs	r7, [r4, #-1388]!	; 0xfffffa94
      50:	63730000 	cmnvs	r3, #0
      54:	2e65706f 	cdpcs	0, 6, cr7, cr5, cr15, {3}
      58:	00000063 	andeq	r0, r0, r3, rrx
      5c:	6d617300 	stclvs	3, cr7, [r1, #-0]
      60:	73656c70 	cmnvc	r5, #112, 24	; 0x7000
      64:	0000682e 	andeq	r6, r0, lr, lsr #16
      68:	79630000 	stmdbvc	r3!, {}^	; <UNPREDICTABLE>
      6c:	2e656c63 	cdpcs	12, 6, cr6, cr5, cr3, {3}
      70:	00000068 	andeq	r0, r0, r8, rrx
      74:	69707200 	ldmdbvs	r0!, {r9, ip, sp, lr}^
      78:	0100682e 	tsteq	r0, lr, lsr #16
      7c:	70670000 	rsbvc	r0, r7, r0
      80:	682e6f69 	stmdavs	lr!, {r0, r3, r5, r6, r8, r9, sl, fp, sp, lr}
      84:	00000100 	andeq	r0, r0, r0, lsl #2
      88:	00480500 	subeq	r0, r8, r0, lsl #10
      8c:	80380205 	eorshi	r0, r8, r5, lsl #4
      90:	16030000 	strne	r0, [r3], -r0
      94:	05010601 	streq	r0, [r1, #-1537]	; 0xfffff9ff
      98:	059f0605 	ldreq	r0, [pc, #1541]	; 6a5 <__code_start__-0x795b>
      9c:	2e010617 	mcrcs	6, 0, r0, cr1, cr7, {0}
      a0:	31060505 	tstcc	r6, r5, lsl #10
      a4:	02000905 	andeq	r0, r0, #81920	; 0x14000
      a8:	05130104 	ldreq	r0, [r3, #-260]	; 0xfffffefc
      ac:	0402000a 	streq	r0, [r2], #-10
      b0:	11051101 	tstne	r5, r1, lsl #2
      b4:	01040200 	mrseq	r0, R12_usr
      b8:	0a050106 	beq	1404d8 <__bss_end__+0x136fd8>
      bc:	01040200 	mrseq	r0, R12_usr
      c0:	0605054a 	streq	r0, [r5], -sl, asr #10
      c4:	0116054f 	tsteq	r6, pc, asr #10
      c8:	01062e01 	tsteq	r6, r1, lsl #28
      cc:	15060505 	strne	r0, [r6, #-1285]	; 0xfffffafb
      d0:	060e0514 			; <UNDEFINED> instruction: 0x060e0514
      d4:	000b0510 	andeq	r0, fp, r0, lsl r5
      d8:	06010402 	streq	r0, [r1], -r2, lsl #8
      dc:	00050530 	andeq	r0, r5, r0, lsr r5
      e0:	06010402 	streq	r0, [r1], -r2, lsl #8
      e4:	06090501 	streq	r0, [r9], -r1, lsl #10
      e8:	060c054f 	streq	r0, [ip], -pc, asr #10
      ec:	06090501 	streq	r0, [r9], -r1, lsl #10
      f0:	000d0530 	andeq	r0, sp, r0, lsr r5
      f4:	13010402 	movwne	r0, #5122	; 0x1402
      f8:	02000e05 	andeq	r0, r0, #5, 28	; 0x50
      fc:	05110104 	ldreq	r0, [r1, #-260]	; 0xfffffefc
     100:	04020015 	streq	r0, [r2], #-21	; 0xffffffeb
     104:	00010601 	andeq	r0, r1, r1, lsl #12
     108:	2e010402 	cdpcs	4, 0, cr0, cr1, cr2, {0}
     10c:	02000e05 	andeq	r0, r0, #5, 28	; 0x50
     110:	052e0104 	streq	r0, [lr, #-260]!	; 0xfffffefc
     114:	054c0609 	strbeq	r0, [ip, #-1545]	; 0xfffff9f7
     118:	2e010118 	mcrcs	1, 0, r0, cr1, cr8, {0}
     11c:	01060a05 	tsteq	r6, r5, lsl #20
     120:	052e2905 	streq	r2, [lr, #-2309]!	; 0xfffff6fb
     124:	09052e16 	stmdbeq	r5, {r1, r2, r4, r9, sl, fp, sp}
     128:	10052f06 	andne	r2, r5, r6, lsl #30
     12c:	09050106 	stmdbeq	r5, {r1, r2, r8}
     130:	0d053306 	stceq	3, cr3, [r5, #-24]	; 0xffffffe8
     134:	052e0101 	streq	r0, [lr, #-257]!	; 0xfffffeff
     138:	0501061e 	streq	r0, [r1, #-1566]	; 0xfffff9e2
     13c:	16052e0b 	strne	r2, [r5], -fp, lsl #28
     140:	2e710306 	cdpcs	3, 7, cr0, cr1, cr6, {0}
     144:	01061705 	tsteq	r6, r5, lsl #14
     148:	060d052e 	streq	r0, [sp], -lr, lsr #10
     14c:	062e1003 	strteq	r1, [lr], -r3
     150:	05300682 	ldreq	r0, [r0, #-1666]!	; 0xfffff97e
     154:	05160601 	ldreq	r0, [r6, #-1537]	; 0xfffff9ff
     158:	05680614 	strbeq	r0, [r8, #-1556]!	; 0xfffff9ec
     15c:	4d134c05 	ldcmi	12, cr4, [r3, #-20]	; 0xffffffec
     160:	154a0101 	strbne	r0, [sl, #-257]	; 0xfffffeff
     164:	01090519 	tsteq	r9, r9, lsl r5
     168:	01060d05 	tsteq	r6, r5, lsl #26
     16c:	042e0505 	strteq	r0, [lr], #-1285	; 0xfffffafb
     170:	032e0502 			; <UNDEFINED> instruction: 0x032e0502
     174:	09052e4c 	stmdbeq	r5, {r2, r3, r6, r9, sl, fp, sp}
     178:	11052f06 	tstne	r5, r6, lsl #30
     17c:	09050106 	stmdbeq	r5, {r1, r2, r8}
     180:	9e063006 	cdpls	0, 0, cr3, cr6, cr6, {0}
     184:	061d054a 	ldreq	r0, [sp], -sl, asr #10
     188:	05017503 	streq	r7, [r1, #-1283]	; 0xfffffafd
     18c:	0501061e 	streq	r0, [r1, #-1566]	; 0xfffff9e2
     190:	052e330e 	streq	r3, [lr, #-782]!	; 0xfffffcf2
     194:	050d0614 	streq	r0, [sp, #-1556]	; 0xfffff9ec
     198:	05010619 	streq	r0, [r1, #-1561]	; 0xfffff9e7
     19c:	09052e05 	stmdbeq	r5, {r0, r2, r9, sl, fp, sp}
     1a0:	1a054b06 	bne	152dc0 <__bss_end__+0x1498c0>
     1a4:	14050106 	strne	r0, [r5], #-262	; 0xfffffefa
     1a8:	0609052e 	streq	r0, [r9], -lr, lsr #10
     1ac:	0612054c 	ldreq	r0, [r2], -ip, asr #10
     1b0:	06090501 	streq	r0, [r9], -r1, lsl #10
     1b4:	060e052f 	streq	r0, [lr], -pc, lsr #10
     1b8:	06090501 	streq	r0, [r9], -r1, lsl #10
     1bc:	2305142f 	movwcs	r1, #21551	; 0x542f
     1c0:	12050106 	andne	r0, r5, #-2147483647	; 0x80000001
     1c4:	09052e2e 	stmdbeq	r5, {r1, r2, r3, r5, r9, sl, fp, sp}
     1c8:	2e056706 	cdpcs	7, 0, cr6, cr5, cr6, {0}
     1cc:	05820106 	streq	r0, [r2, #262]	; 0x106
     1d0:	04020005 	streq	r0, [r2], #-5
     1d4:	00170603 	andseq	r0, r7, r3, lsl #12
     1d8:	06030402 	streq	r0, [r3], -r2, lsl #8
     1dc:	05010401 	streq	r0, [r1, #-1025]	; 0xfffffbff
     1e0:	0402001b 	streq	r0, [r2], #-27	; 0xffffffe5
     1e4:	2f030603 	svccs	0x00030603
     1e8:	001c0501 	andseq	r0, ip, r1, lsl #10
     1ec:	06030402 	streq	r0, [r3], -r2, lsl #8
     1f0:	00140501 	andseq	r0, r4, r1, lsl #10
     1f4:	06010402 	streq	r0, [r1], -r2, lsl #8
     1f8:	0005052e 	andeq	r0, r5, lr, lsr #10
     1fc:	06010402 	streq	r0, [r1], -r2, lsl #8
     200:	00090501 	andeq	r0, r9, r1, lsl #10
     204:	06030402 	streq	r0, [r3], -r2, lsl #8
     208:	0402004b 	streq	r0, [r2], #-75	; 0xffffffb5
     20c:	04010603 	streq	r0, [r1], #-1539	; 0xfffff9fd
     210:	00050503 	andeq	r0, r5, r3, lsl #10
     214:	06030402 	streq	r0, [r3], -r2, lsl #8
     218:	017fbb03 	cmneq	pc, r3, lsl #22
     21c:	03040200 	movweq	r0, #16896	; 0x4200
     220:	0501040f 	streq	r0, [r1, #-1039]	; 0xfffffbf1
     224:	04020016 	streq	r0, [r2], #-22	; 0xffffffea
     228:	c8030603 	stmdagt	r3, {r0, r1, r9, sl}
     22c:	09050100 	stmdbeq	r5, {r8}
     230:	03040200 	movweq	r0, #16896	; 0x4200
     234:	0200bb06 	andeq	fp, r0, #6144	; 0x1800
     238:	2e060304 	cdpcs	3, 0, cr0, cr6, cr4, {0}
     23c:	03040200 	movweq	r0, #16896	; 0x4200
     240:	02042f06 	andeq	r2, r4, #6, 30
     244:	02000105 	andeq	r0, r0, #1073741825	; 0x40000001
     248:	bd030304 	stclt	3, cr0, [r3, #-16]
     24c:	0505017f 	streq	r0, [r5, #-383]	; 0xfffffe81
     250:	03040200 	movweq	r0, #16896	; 0x4200
     254:	04020013 	streq	r0, [r2], #-19	; 0xffffffed
     258:	02001403 	andeq	r1, r0, #50331648	; 0x3000000
     25c:	05130304 	ldreq	r0, [r3, #-772]	; 0xfffffcfc
     260:	04020009 	streq	r0, [r2], #-9
     264:	0d050103 	stfeqs	f0, [r5, #-12]
     268:	03040200 	movweq	r0, #16896	; 0x4200
     26c:	0e050106 	adfeqs	f0, f5, f6
     270:	03040200 	movweq	r0, #16896	; 0x4200
     274:	0017052d 	andseq	r0, r7, sp, lsr #10
     278:	2c030402 	cfstrscs	mvf0, [r3], {2}
     27c:	02000505 	andeq	r0, r0, #20971520	; 0x1400000
     280:	00310304 	eorseq	r0, r1, r4, lsl #6
     284:	2e030402 	cdpcs	4, 0, cr0, cr3, cr2, {0}
     288:	03060104 	movweq	r0, #24836	; 0x6104
     28c:	020100c1 	andeq	r0, r1, #193	; 0xc1
     290:	01010008 	tsteq	r1, r8
     294:	000001c5 	andeq	r0, r0, r5, asr #3
     298:	00c90003 	sbceq	r0, r9, r3
     29c:	01020000 	mrseq	r0, (UNDEF: 2)
     2a0:	000d0efb 	strdeq	r0, [sp], -fp
     2a4:	01010101 	tsteq	r1, r1, lsl #2
     2a8:	01000000 	mrseq	r0, (UNDEF: 0)
     2ac:	2e010000 	cdpcs	0, 0, cr0, cr1, cr0, {0}
     2b0:	6372732f 	cmnvs	r2, #-1140850688	; 0xbc000000
     2b4:	6f682f00 	svcvs	0x00682f00
     2b8:	702f656d 	eorvc	r6, pc, sp, ror #10
     2bc:	68747261 	ldmdavs	r4!, {r0, r5, r6, r9, ip, sp, lr}^
     2c0:	442f7669 	strtmi	r7, [pc], #-1641	; 2c8 <__code_start__-0x7d38>
     2c4:	6d75636f 	ldclvs	3, cr6, [r5, #-444]!	; 0xfffffe44
     2c8:	73746e65 	cmnvc	r4, #1616	; 0x650
     2cc:	3273632f 	rsbscc	r6, r3, #-1140850688	; 0xbc000000
     2d0:	786c3034 	stmdavc	ip!, {r2, r4, r5, ip, sp}^
     2d4:	3273632f 	rsbscc	r6, r3, #-1140850688	; 0xbc000000
     2d8:	786c3034 	stmdavc	ip!, {r2, r4, r5, ip, sp}^
     2dc:	62696c2f 	rsbvs	r6, r9, #12032	; 0x2f00
     2e0:	692f6970 	stmdbvs	pc!, {r4, r5, r6, r8, fp, sp, lr}	; <UNPREDICTABLE>
     2e4:	756c636e 	strbvc	r6, [ip, #-878]!	; 0xfffffc92
     2e8:	2f006564 	svccs	0x00006564
     2ec:	2f727375 	svccs	0x00727375
     2f0:	2f74706f 	svccs	0x0074706f
     2f4:	2d636367 	stclcs	3, cr6, [r3, #-412]!	; 0xfffffe64
     2f8:	2d6d7261 	sfmcs	f7, 2, [sp, #-388]!	; 0xfffffe7c
     2fc:	656e6f6e 	strbvs	r6, [lr, #-3950]!	; 0xfffff092
     300:	6261652d 	rsbvs	r6, r1, #188743680	; 0xb400000
     304:	30312d69 	eorscc	r2, r1, r9, ror #26
     308:	322d332e 	eorcc	r3, sp, #-1207959552	; 0xb8000000
     30c:	2e313230 	mrccs	2, 1, r3, cr1, cr0, {1}
     310:	6c2f3031 	stcvs	0, cr3, [pc], #-196	; 254 <__code_start__-0x7dac>
     314:	672f6269 	strvs	r6, [pc, -r9, ror #4]!
     318:	612f6363 			; <UNDEFINED> instruction: 0x612f6363
     31c:	6e2d6d72 	mcrvs	13, 1, r6, cr13, cr2, {3}
     320:	2d656e6f 	stclcs	14, cr6, [r5, #-444]!	; 0xfffffe44
     324:	69626165 	stmdbvs	r2!, {r0, r2, r5, r6, r8, sp, lr}^
     328:	2e30312f 	rsfcssp	f3, f0, #10.0
     32c:	2f312e33 	svccs	0x00312e33
     330:	6c636e69 	stclvs	14, cr6, [r3], #-420	; 0xfffffe5c
     334:	00656475 	rsbeq	r6, r5, r5, ror r4
     338:	69706700 	ldmdbvs	r0!, {r8, r9, sl, sp, lr}^
     33c:	00632e6f 	rsbeq	r2, r3, pc, ror #28
     340:	72000001 	andvc	r0, r0, #1
     344:	682e6970 	stmdavs	lr!, {r4, r5, r6, r8, fp, sp, lr}
     348:	00000200 	andeq	r0, r0, r0, lsl #4
     34c:	69647473 	stmdbvs	r4!, {r0, r1, r4, r5, r6, sl, ip, sp, lr}^
     350:	672d746e 	strvs	r7, [sp, -lr, ror #8]!
     354:	682e6363 	stmdavs	lr!, {r0, r1, r5, r6, r8, r9, sp, lr}
     358:	00000300 	andeq	r0, r0, r0, lsl #6
     35c:	6f697067 	svcvs	0x00697067
     360:	0200682e 	andeq	r6, r0, #3014656	; 0x2e0000
     364:	05000000 	streq	r0, [r0, #-0]
     368:	02050038 	andeq	r0, r5, #56	; 0x38
     36c:	000081ac 	andeq	r8, r0, ip, lsr #3
     370:	05012703 	streq	r2, [r1, #-1795]	; 0xfffff8fd
     374:	07051305 	streq	r1, [r5, -r5, lsl #6]
     378:	38050106 	stmdacc	r5, {r1, r2, r8}
     37c:	06050549 	streq	r0, [r5], -r9, asr #10
     380:	0607054d 	streq	r0, [r7], -sp, asr #10
     384:	06050501 	streq	r0, [r5], -r1, lsl #10
     388:	0618054c 	ldreq	r0, [r8], -ip, asr #10
     38c:	ba0e0501 	blt	381798 <__bss_end__+0x378298>
     390:	2f060505 	svccs	0x00060505
     394:	01061c05 	tsteq	r6, r5, lsl #24
     398:	2e0e052e 	cfsh32cs	mvfx0, mvfx14, #30
     39c:	30060505 	andcc	r0, r6, r5, lsl #10
     3a0:	01061205 	tsteq	r6, r5, lsl #4
     3a4:	4b060505 	blmi	1817c0 <__bss_end__+0x1782c0>
     3a8:	01060705 	tsteq	r6, r5, lsl #14
     3ac:	4b060505 	blmi	1817c8 <__bss_end__+0x1782c8>
     3b0:	052e0613 	streq	r0, [lr, #-1555]!	; 0xfffff9ed
     3b4:	24054b01 	strcs	r4, [r5], #-2817	; 0xfffff4ff
     3b8:	01064c06 	tsteq	r6, r6, lsl #24
     3bc:	2f060505 	svccs	0x00060505
     3c0:	4b060105 	blmi	1807dc <__bss_end__+0x1772dc>
     3c4:	31062005 	tstcc	r6, r5
     3c8:	05130505 	ldreq	r0, [r3, #-1285]	; 0xfffffafb
     3cc:	05010607 	streq	r0, [r1, #-1543]	; 0xfffff9f9
     3d0:	05054920 	streq	r4, [r5, #-2336]	; 0xfffff6e0
     3d4:	66063106 	strvs	r3, [r6], -r6, lsl #2
     3d8:	052f0105 	streq	r0, [pc, #-261]!	; 2db <__code_start__-0x7d25>
     3dc:	054d0621 	strbeq	r0, [sp, #-1569]	; 0xfffff9df
     3e0:	07051305 	streq	r1, [r5, -r5, lsl #6]
     3e4:	21050106 	tstcs	r5, r6, lsl #2
     3e8:	06050549 	streq	r0, [r5], -r9, asr #10
     3ec:	05660631 	strbeq	r0, [r6, #-1585]!	; 0xfffff9cf
     3f0:	23052f01 	movwcs	r2, #24321	; 0x5f01
     3f4:	01064d06 	tsteq	r6, r6, lsl #26
     3f8:	2f060505 	svccs	0x00060505
     3fc:	4b060105 	blmi	180818 <__bss_end__+0x177318>
     400:	31062b05 	tstcc	r6, r5, lsl #22
     404:	05050106 	streq	r0, [r5, #-262]	; 0xfffffefa
     408:	07052f06 	streq	r2, [r5, -r6, lsl #30]
     40c:	09050106 	stmdbeq	r5, {r1, r2, r8}
     410:	2e064b06 	vmlacs.f64	d4, d6, d6
     414:	01053006 	tsteq	r5, r6
     418:	1d052f06 	stcne	15, cr2, [r5, #-24]	; 0xffffffe8
     41c:	05053006 	streq	r3, [r5, #-6]
     420:	06070513 			; <UNDEFINED> instruction: 0x06070513
     424:	491d0501 	ldmdbmi	sp, {r0, r8, sl}
     428:	31060505 	tstcc	r6, r5, lsl #10
     42c:	060e0513 			; <UNDEFINED> instruction: 0x060e0513
     430:	06050501 	streq	r0, [r5], -r1, lsl #10
     434:	0617052f 	ldreq	r0, [r7], -pc, lsr #10
     438:	23054a01 	movwcs	r4, #23041	; 0x5a01
     43c:	0502042e 	streq	r0, [r2, #-1070]	; 0xfffffbd2
     440:	d7030630 	smladxle	r3, r0, r6, r0
     444:	01042e00 	tsteq	r4, r0, lsl #28
     448:	03060c05 	movweq	r0, #27653	; 0x6c05
     44c:	05017fa9 	streq	r7, [r1, #-4009]	; 0xfffff057
     450:	10052f01 	andne	r2, r5, r1, lsl #30
     454:	3201052a 	andcc	r0, r1, #176160768	; 0xa800000
     458:	01000402 	tsteq	r0, r2, lsl #8
     45c:	00010d01 	andeq	r0, r1, r1, lsl #26
     460:	db000300 	blle	1068 <__code_start__-0x6f98>
     464:	02000000 	andeq	r0, r0, #0
     468:	0d0efb01 	vstreq	d15, [lr, #-4]
     46c:	01010100 	mrseq	r0, (UNDEF: 17)
     470:	00000001 	andeq	r0, r0, r1
     474:	01000001 	tsteq	r0, r1
     478:	696c2f2e 	stmdbvs	ip!, {r1, r2, r3, r5, r8, r9, sl, fp, sp}^
     47c:	2f006362 	svccs	0x00006362
     480:	2f727375 	svccs	0x00727375
     484:	2f74706f 	svccs	0x0074706f
     488:	2d636367 	stclcs	3, cr6, [r3, #-412]!	; 0xfffffe64
     48c:	2d6d7261 	sfmcs	f7, 2, [sp, #-388]!	; 0xfffffe7c
     490:	656e6f6e 	strbvs	r6, [lr, #-3950]!	; 0xfffff092
     494:	6261652d 	rsbvs	r6, r1, #188743680	; 0xb400000
     498:	30312d69 	eorscc	r2, r1, r9, ror #26
     49c:	322d332e 	eorcc	r3, sp, #-1207959552	; 0xb8000000
     4a0:	2e313230 	mrccs	2, 1, r3, cr1, cr0, {1}
     4a4:	6c2f3031 	stcvs	0, cr3, [pc], #-196	; 3e8 <__code_start__-0x7c18>
     4a8:	672f6269 	strvs	r6, [pc, -r9, ror #4]!
     4ac:	612f6363 			; <UNDEFINED> instruction: 0x612f6363
     4b0:	6e2d6d72 	mcrvs	13, 1, r6, cr13, cr2, {3}
     4b4:	2d656e6f 	stclcs	14, cr6, [r5, #-444]!	; 0xfffffe44
     4b8:	69626165 	stmdbvs	r2!, {r0, r2, r5, r6, r8, sp, lr}^
     4bc:	2e30312f 	rsfcssp	f3, f0, #10.0
     4c0:	2f312e33 	svccs	0x00312e33
     4c4:	6c636e69 	stclvs	14, cr6, [r3], #-420	; 0xfffffe5c
     4c8:	00656475 	rsbeq	r6, r5, r5, ror r4
     4cc:	6d6f682f 	stclvs	8, cr6, [pc, #-188]!	; 418 <__code_start__-0x7be8>
     4d0:	61702f65 	cmnvs	r0, r5, ror #30
     4d4:	69687472 	stmdbvs	r8!, {r1, r4, r5, r6, sl, ip, sp, lr}^
     4d8:	6f442f76 	svcvs	0x00442f76
     4dc:	656d7563 	strbvs	r7, [sp, #-1379]!	; 0xfffffa9d
     4e0:	2f73746e 	svccs	0x0073746e
     4e4:	34327363 	ldrtcc	r7, [r2], #-867	; 0xfffffc9d
     4e8:	2f786c30 	svccs	0x00786c30
     4ec:	34327363 	ldrtcc	r7, [r2], #-867	; 0xfffffc9d
     4f0:	2f786c30 	svccs	0x00786c30
     4f4:	7062696c 	rsbvc	r6, r2, ip, ror #18
     4f8:	6e692f69 	cdpvs	15, 6, cr2, cr9, cr9, {3}
     4fc:	64756c63 	ldrbtvs	r6, [r5], #-3171	; 0xfffff39d
     500:	70000065 	andvc	r0, r0, r5, rrx
     504:	746e6972 	strbtvc	r6, [lr], #-2418	; 0xfffff68e
     508:	00632e6b 	rsbeq	r2, r3, fp, ror #28
     50c:	73000001 	movwvc	r0, #1
     510:	72616474 	rsbvc	r6, r1, #116, 8	; 0x74000000
     514:	00682e67 	rsbeq	r2, r8, r7, ror #28
     518:	3c000002 	stccc	0, cr0, [r0], {2}
     51c:	6c697562 	cfstr64vs	mvdx7, [r9], #-392	; 0xfffffe78
     520:	6e692d74 	mcrvs	13, 3, r2, cr9, cr4, {3}
     524:	0000003e 	andeq	r0, r0, lr, lsr r0
     528:	69707200 	ldmdbvs	r0!, {r9, ip, sp, lr}^
     52c:	0300682e 	movweq	r6, #2094	; 0x82e
     530:	61760000 	cmnvs	r6, r0
     534:	6972702d 	ldmdbvs	r2!, {r0, r2, r3, r5, ip, sp, lr}^
     538:	2e6b746e 	cdpcs	4, 6, cr7, cr11, cr14, {3}
     53c:	00010068 	andeq	r0, r1, r8, rrx
     540:	22050000 	andcs	r0, r5, #0
     544:	c8020500 	stmdagt	r2, {r8, sl}
     548:	17000082 	strne	r0, [r0, -r2, lsl #1]
     54c:	05050106 	streq	r0, [r5, #-262]	; 0xfffffefa
     550:	14136806 	ldrne	r6, [r3], #-2054	; 0xfffff7fa
     554:	054b0905 	strbeq	r0, [fp, #-2309]	; 0xfffff6fb
     558:	05010612 	streq	r0, [r1, #-1554]	; 0xfffff9ee
     55c:	16bb0605 	ldrtne	r0, [fp], r5, lsl #12
     560:	34066606 	strcc	r6, [r6], #-1542	; 0xfffff9fa
     564:	13060105 	movwne	r0, #24837	; 0x6105
     568:	00080266 	andeq	r0, r8, r6, ror #4
     56c:	00aa0101 	adceq	r0, sl, r1, lsl #2
     570:	00030000 	andeq	r0, r3, r0
     574:	00000063 	andeq	r0, r0, r3, rrx
     578:	0efb0102 	cdpeq	1, 15, cr0, cr11, cr2, {0}
     57c:	0101000d 	tsteq	r1, sp
     580:	00000101 	andeq	r0, r0, r1, lsl #2
     584:	00000100 	andeq	r0, r0, r0, lsl #2
     588:	6c2f2e01 	stcvs	14, cr2, [pc], #-4	; 58c <__code_start__-0x7a74>
     58c:	00636269 	rsbeq	r6, r3, r9, ror #4
     590:	6d6f682f 	stclvs	8, cr6, [pc, #-188]!	; 4dc <__code_start__-0x7b24>
     594:	61702f65 	cmnvs	r0, r5, ror #30
     598:	69687472 	stmdbvs	r8!, {r1, r4, r5, r6, sl, ip, sp, lr}^
     59c:	6f442f76 	svcvs	0x00442f76
     5a0:	656d7563 	strbvs	r7, [sp, #-1379]!	; 0xfffffa9d
     5a4:	2f73746e 	svccs	0x0073746e
     5a8:	34327363 	ldrtcc	r7, [r2], #-867	; 0xfffffc9d
     5ac:	2f786c30 	svccs	0x00786c30
     5b0:	34327363 	ldrtcc	r7, [r2], #-867	; 0xfffffc9d
     5b4:	2f786c30 	svccs	0x00786c30
     5b8:	7062696c 	rsbvc	r6, r2, ip, ror #18
     5bc:	6e692f69 	cdpvs	15, 6, cr2, cr9, cr9, {3}
     5c0:	64756c63 	ldrbtvs	r6, [r5], #-3171	; 0xfffff39d
     5c4:	70000065 	andvc	r0, r0, r5, rrx
     5c8:	2e6b7475 	mcrcs	4, 3, r7, cr11, cr5, {3}
     5cc:	00010063 	andeq	r0, r1, r3, rrx
     5d0:	69707200 	ldmdbvs	r0!, {r9, ip, sp, lr}^
     5d4:	0200682e 	andeq	r6, r0, #3014656	; 0x2e0000
     5d8:	05000000 	streq	r0, [r0, #-0]
     5dc:	02050022 	andeq	r0, r5, #34	; 0x22
     5e0:	00008320 	andeq	r8, r0, r0, lsr #6
     5e4:	05010615 	streq	r0, [r1, #-1557]	; 0xfffff9eb
     5e8:	054b0605 	strbeq	r0, [fp, #-1541]	; 0xfffff9fb
     5ec:	04020009 	streq	r0, [r2], #-9
     5f0:	0f052f02 	svceq	0x00052f02
     5f4:	02040200 	andeq	r0, r4, #0, 4
     5f8:	00100565 	andseq	r0, r0, r5, ror #10
     5fc:	06020402 	streq	r0, [r2], -r2, lsl #8
     600:	000b0501 	andeq	r0, fp, r1, lsl #10
     604:	06010402 	streq	r0, [r1], -r2, lsl #8
     608:	0005052e 	andeq	r0, r5, lr, lsr #10
     60c:	06010402 	streq	r0, [r1], -r2, lsl #8
     610:	054e062e 	strbeq	r0, [lr, #-1582]	; 0xfffff9d2
     614:	02130601 	andseq	r0, r3, #1048576	; 0x100000
     618:	01010006 	tsteq	r1, r6
     61c:	000000a4 	andeq	r0, r0, r4, lsr #1
     620:	00660003 	rsbeq	r0, r6, r3
     624:	01020000 	mrseq	r0, (UNDEF: 2)
     628:	000d0efb 	strdeq	r0, [sp], -fp
     62c:	01010101 	tsteq	r1, r1, lsl #2
     630:	01000000 	mrseq	r0, (UNDEF: 0)
     634:	2e010000 	cdpcs	0, 0, cr0, cr1, cr0, {0}
     638:	62696c2f 	rsbvs	r6, r9, #12032	; 0x2f00
     63c:	682f0063 	stmdavs	pc!, {r0, r1, r5, r6}	; <UNPREDICTABLE>
     640:	2f656d6f 	svccs	0x00656d6f
     644:	74726170 	ldrbtvc	r6, [r2], #-368	; 0xfffffe90
     648:	2f766968 	svccs	0x00766968
     64c:	75636f44 	strbvc	r6, [r3, #-3908]!	; 0xfffff0bc
     650:	746e656d 	strbtvc	r6, [lr], #-1389	; 0xfffffa93
     654:	73632f73 	cmnvc	r3, #460	; 0x1cc
     658:	6c303432 	cfldrsvs	mvf3, [r0], #-200	; 0xffffff38
     65c:	73632f78 	cmnvc	r3, #120, 30	; 0x1e0
     660:	6c303432 	cfldrsvs	mvf3, [r0], #-200	; 0xffffff38
     664:	696c2f78 	stmdbvs	ip!, {r3, r4, r5, r6, r8, r9, sl, fp, sp}^
     668:	2f697062 	svccs	0x00697062
     66c:	6c636e69 	stclvs	14, cr6, [r3], #-420	; 0xfffffe5c
     670:	00656475 	rsbeq	r6, r5, r5, ror r4
     674:	74757000 	ldrbtvc	r7, [r5], #-0
     678:	72616863 	rsbvc	r6, r1, #6488064	; 0x630000
     67c:	0100632e 	tsteq	r0, lr, lsr #6
     680:	70720000 	rsbsvc	r0, r2, r0
     684:	00682e69 	rsbeq	r2, r8, r9, ror #28
     688:	00000002 	andeq	r0, r0, r2
     68c:	05002405 	streq	r2, [r0, #-1029]	; 0xfffffbfb
     690:	00835402 	addeq	r5, r3, r2, lsl #8
     694:	01061400 	tsteq	r6, r0, lsl #8
     698:	4a062605 	bmi	189eb4 <__bss_end__+0x1809b4>
     69c:	052e3405 	streq	r3, [lr, #-1029]!	; 0xfffffbfb
     6a0:	0501063e 	streq	r0, [r1, #-1598]	; 0xfffff9c2
     6a4:	054f061b 	strbeq	r0, [pc, #-1563]	; 91 <__code_start__-0x7f6f>
     6a8:	11051305 	tstne	r5, r5, lsl #6
     6ac:	01050106 	tsteq	r5, r6, lsl #2
     6b0:	06230567 	strteq	r0, [r3], -r7, ror #10
     6b4:	13050567 	movwne	r0, #21863	; 0x5567
     6b8:	01061105 	tsteq	r6, r5, lsl #2
     6bc:	024b0105 	subeq	r0, fp, #1073741825	; 0x40000001
     6c0:	01010004 	tsteq	r1, r4
     6c4:	000005da 	ldrdeq	r0, [r0], -sl
     6c8:	00df0003 	sbcseq	r0, pc, r3
     6cc:	01020000 	mrseq	r0, (UNDEF: 2)
     6d0:	000d0efb 	strdeq	r0, [sp], -fp
     6d4:	01010101 	tsteq	r1, r1, lsl #2
     6d8:	01000000 	mrseq	r0, (UNDEF: 0)
     6dc:	2e010000 	cdpcs	0, 0, cr0, cr1, cr0, {0}
     6e0:	62696c2f 	rsbvs	r6, r9, #12032	; 0x2f00
     6e4:	752f0063 	strvc	r0, [pc, #-99]!	; 689 <__code_start__-0x7977>
     6e8:	6f2f7273 	svcvs	0x002f7273
     6ec:	672f7470 			; <UNDEFINED> instruction: 0x672f7470
     6f0:	612d6363 			; <UNDEFINED> instruction: 0x612d6363
     6f4:	6e2d6d72 	mcrvs	13, 1, r6, cr13, cr2, {3}
     6f8:	2d656e6f 	stclcs	14, cr6, [r5, #-444]!	; 0xfffffe44
     6fc:	69626165 	stmdbvs	r2!, {r0, r2, r5, r6, r8, sp, lr}^
     700:	2e30312d 	rsfcssp	f3, f0, #5.0
     704:	30322d33 	eorscc	r2, r2, r3, lsr sp
     708:	312e3132 			; <UNDEFINED> instruction: 0x312e3132
     70c:	696c2f30 	stmdbvs	ip!, {r4, r5, r8, r9, sl, fp, sp}^
     710:	63672f62 	cmnvs	r7, #392	; 0x188
     714:	72612f63 	rsbvc	r2, r1, #396	; 0x18c
     718:	6f6e2d6d 	svcvs	0x006e2d6d
     71c:	652d656e 	strvs	r6, [sp, #-1390]!	; 0xfffffa92
     720:	2f696261 	svccs	0x00696261
     724:	332e3031 			; <UNDEFINED> instruction: 0x332e3031
     728:	692f312e 	stmdbvs	pc!, {r1, r2, r3, r5, r8, ip, sp}	; <UNPREDICTABLE>
     72c:	756c636e 	strbvc	r6, [ip, #-878]!	; 0xfffffc92
     730:	2f006564 	svccs	0x00006564
     734:	656d6f68 	strbvs	r6, [sp, #-3944]!	; 0xfffff098
     738:	7261702f 	rsbvc	r7, r1, #47	; 0x2f
     73c:	76696874 			; <UNDEFINED> instruction: 0x76696874
     740:	636f442f 	cmnvs	pc, #788529152	; 0x2f000000
     744:	6e656d75 	mcrvs	13, 3, r6, cr5, cr5, {3}
     748:	632f7374 			; <UNDEFINED> instruction: 0x632f7374
     74c:	30343273 	eorscc	r3, r4, r3, ror r2
     750:	632f786c 			; <UNDEFINED> instruction: 0x632f786c
     754:	30343273 	eorscc	r3, r4, r3, ror r2
     758:	6c2f786c 	stcvs	8, cr7, [pc], #-432	; 5b0 <__code_start__-0x7a50>
     75c:	69706269 	ldmdbvs	r0!, {r0, r3, r5, r6, r9, sp, lr}^
     760:	636e692f 	cmnvs	lr, #770048	; 0xbc000
     764:	6564756c 	strbvs	r7, [r4, #-1388]!	; 0xfffffa94
     768:	61760000 	cmnvs	r6, r0
     76c:	6972702d 	ldmdbvs	r2!, {r0, r2, r3, r5, ip, sp, lr}^
     770:	2e6b746e 	cdpcs	4, 6, cr7, cr11, cr14, {3}
     774:	00010063 	andeq	r0, r1, r3, rrx
     778:	64747300 	ldrbtvs	r7, [r4], #-768	; 0xfffffd00
     77c:	2d746e69 	ldclcs	14, cr6, [r4, #-420]!	; 0xfffffe5c
     780:	2e636367 	cdpcs	3, 6, cr6, cr3, cr7, {3}
     784:	00020068 	andeq	r0, r2, r8, rrx
     788:	69707200 	ldmdbvs	r0!, {r9, ip, sp, lr}^
     78c:	0300682e 	movweq	r6, #2094	; 0x82e
     790:	74730000 	ldrbtvc	r0, [r3], #-0
     794:	67726164 	ldrbvs	r6, [r2, -r4, ror #2]!
     798:	0200682e 	andeq	r6, r0, #3014656	; 0x2e0000
     79c:	623c0000 	eorsvs	r0, ip, #0
     7a0:	746c6975 	strbtvc	r6, [ip], #-2421	; 0xfffff68b
     7a4:	3e6e692d 	vmulcc.f16	s13, s28, s27	; <UNPREDICTABLE>
     7a8:	00000000 	andeq	r0, r0, r0
     7ac:	001b0500 	andseq	r0, fp, r0, lsl #10
     7b0:	83900205 	orrshi	r0, r0, #1342177280	; 0x50000000
     7b4:	26030000 	strcs	r0, [r3], -r0
     7b8:	011d0501 	tsteq	sp, r1, lsl #10
     7bc:	01062d05 	tsteq	r6, r5, lsl #26
     7c0:	4a2e3a05 	bmi	b8efdc <__bss_end__+0xb85adc>
     7c4:	51063305 	tstpl	r6, r5, lsl #6
     7c8:	05130205 	ldreq	r0, [r3, #-517]	; 0xfffffdfb
     7cc:	05010606 	streq	r0, [r1, #-1542]	; 0xfffff9fa
     7d0:	05300602 	ldreq	r0, [r0, #-1538]!	; 0xfffff9fe
     7d4:	04020003 	streq	r0, [r2], #-3
     7d8:	08052f02 	stmdaeq	r5, {r1, r8, r9, sl, fp, sp}
     7dc:	02040200 	andeq	r0, r4, #0, 4
     7e0:	15050106 	strne	r0, [r5, #-262]	; 0xfffffefa
     7e4:	02040200 	andeq	r0, r4, #0, 4
     7e8:	18054906 	stmdane	r5, {r1, r2, r8, fp, lr}
     7ec:	02040200 	andeq	r0, r4, #0, 4
     7f0:	08050106 	stmdaeq	r5, {r1, r2, r8}
     7f4:	01040200 	mrseq	r0, R12_usr
     7f8:	02052e06 	andeq	r2, r5, #6, 28	; 0x60
     7fc:	01040200 	mrseq	r0, R12_usr
     800:	4c060106 	stfmis	f0, [r6], {6}
     804:	01060505 	tsteq	r6, r5, lsl #10
     808:	4b060205 	blmi	181024 <__bss_end__+0x177b24>
     80c:	13060105 	movwne	r0, #24837	; 0x6105
     810:	31063e05 	tstcc	r6, r5, lsl #28
     814:	05140205 	ldreq	r0, [r4, #-517]	; 0xfffffdfb
     818:	0501060e 	streq	r0, [r1, #-1550]	; 0xfffff9f2
     81c:	02052e06 	andeq	r2, r5, #6, 28	; 0x60
     820:	04052f06 	streq	r2, [r5], #-3846	; 0xfffff0fa
     824:	03050106 	movweq	r0, #20742	; 0x5106
     828:	11052f06 	tstne	r5, r6, lsl #30
     82c:	09050106 	stmdbeq	r5, {r1, r2, r8}
     830:	0602052e 	streq	r0, [r2], -lr, lsr #10
     834:	07051530 	smladxeq	r5, r0, r5, r1
     838:	02050106 	andeq	r0, r5, #-2147483647	; 0x80000001
     83c:	03052e2e 	movweq	r2, #24110	; 0x5e2e
     840:	03040200 	movweq	r0, #16896	; 0x4200
     844:	0c052f06 	stceq	15, cr2, [r5], {6}
     848:	03040200 	movweq	r0, #16896	; 0x4200
     84c:	0a050106 	beq	140c6c <__bss_end__+0x13776c>
     850:	03040200 	movweq	r0, #16896	; 0x4200
     854:	0017052e 	andseq	r0, r7, lr, lsr #10
     858:	06030402 	streq	r0, [r3], -r2, lsl #8
     85c:	000b052d 	andeq	r0, fp, sp, lsr #10
     860:	01010402 	tsteq	r1, r2, lsl #8
     864:	02000205 	andeq	r0, r0, #1342177280	; 0x50000000
     868:	01060104 	tsteq	r6, r4, lsl #2
     86c:	09054c06 	stmdbeq	r5, {r1, r2, sl, fp, lr}
     870:	052e0106 	streq	r0, [lr, #-262]!	; 0xfffffefa
     874:	05300602 	ldreq	r0, [r0, #-1538]!	; 0xfffff9fe
     878:	05130601 	ldreq	r0, [r3, #-1537]	; 0xfffff9ff
     87c:	06310649 	ldrteq	r0, [r1], -r9, asr #12
     880:	06020501 	streq	r0, [r2], -r1, lsl #10
     884:	060405a0 	streq	r0, [r4], -r0, lsr #11
     888:	06030501 	streq	r0, [r3], -r1, lsl #10
     88c:	0609052f 	streq	r0, [r9], -pc, lsr #10
     890:	06020501 	streq	r0, [r2], -r1, lsl #10
     894:	0b051330 	bleq	14555c <__bss_end__+0x13c05c>
     898:	02050106 	andeq	r0, r5, #-2147483647	; 0x80000001
     89c:	2e063006 	cdpcs	0, 0, cr3, cr6, cr6, {0}
     8a0:	02060405 	andeq	r0, r6, #83886080	; 0x5000000
     8a4:	05131524 	ldreq	r1, [r3, #-1316]	; 0xfffffadc
     8a8:	2e01060f 	cfmadd32cs	mvax0, mvfx0, mvfx1, mvfx15
     8ac:	054a0605 	strbeq	r0, [sl, #-1541]	; 0xfffff9fb
     8b0:	134b0605 	movtne	r0, #46597	; 0xb605
     8b4:	01060905 	tsteq	r6, r5, lsl #18
     8b8:	2f060505 	svccs	0x00060505
     8bc:	10060b05 	andne	r0, r6, r5, lsl #22
     8c0:	02000d05 	andeq	r0, r0, #320	; 0x140
     8c4:	052c0104 	streq	r0, [ip, #-260]!	; 0xfffffefc
     8c8:	04020004 	streq	r0, [r2], #-4
     8cc:	05340601 	ldreq	r0, [r4, #-1537]!	; 0xfffff9ff
     8d0:	04020005 	streq	r0, [r2], #-5
     8d4:	1b051301 	blne	1454e0 <__bss_end__+0x13bfe0>
     8d8:	01040200 	mrseq	r0, R12_usr
     8dc:	07050106 	streq	r0, [r5, -r6, lsl #2]
     8e0:	01040200 	mrseq	r0, R12_usr
     8e4:	001805d6 			; <UNDEFINED> instruction: 0x001805d6
     8e8:	2e010402 	cdpcs	4, 0, cr0, cr1, cr2, {0}
     8ec:	02000a05 	andeq	r0, r0, #20480	; 0x5000
     8f0:	054a0104 	strbeq	r0, [sl, #-260]	; 0xfffffefc
     8f4:	0402000b 	streq	r0, [r2], #-11
     8f8:	052f0601 	streq	r0, [pc, #-1537]!	; 2ff <__code_start__-0x7d01>
     8fc:	0402000e 	streq	r0, [r2], #-14
     900:	052e0601 	streq	r0, [lr, #-1537]!	; 0xfffff9ff
     904:	04020004 	streq	r0, [r2], #-4
     908:	4b062e01 	blmi	18c114 <__bss_end__+0x182c14>
     90c:	01060605 	tsteq	r6, r5, lsl #12
     910:	2f060505 	svccs	0x00060505
     914:	01060a05 	tsteq	r6, r5, lsl #20
     918:	2e4a0705 	cdpcs	7, 4, cr0, cr10, cr5, {0}
     91c:	76030d05 	strvc	r0, [r3], -r5, lsl #26
     920:	02054a2e 	andeq	r4, r5, #188416	; 0x2e000
     924:	000d050f 	andeq	r0, sp, pc, lsl #10
     928:	06010402 	streq	r0, [r1], -r2, lsl #8
     92c:	052e1203 	streq	r1, [lr, #-515]!	; 0xfffffdfd
     930:	04020011 	streq	r0, [r2], #-17	; 0xffffffef
     934:	2d051301 	stccs	3, cr1, [r5, #-4]
     938:	01040200 	mrseq	r0, R12_usr
     93c:	2a050106 	bcs	140d5c <__bss_end__+0x13785c>
     940:	01040200 	mrseq	r0, R12_usr
     944:	0016052e 	andseq	r0, r6, lr, lsr #10
     948:	4a010402 	bmi	41958 <__bss_end__+0x38458>
     94c:	02001405 	andeq	r1, r0, #83886080	; 0x5000000
     950:	4b060104 	blmi	180d68 <__bss_end__+0x177868>
     954:	02000d05 	andeq	r0, r0, #320	; 0x140
     958:	01060104 	tsteq	r6, r4, lsl #2
     95c:	01040200 	mrseq	r0, R12_usr
     960:	052f064a 	streq	r0, [pc, #-1610]!	; 31e <__code_start__-0x7ce2>
     964:	4a010612 	bmi	421b4 <__bss_end__+0x38cb4>
     968:	2f060d05 	svccs	0x00060d05
     96c:	01061205 	tsteq	r6, r5, lsl #4
     970:	4b061905 	blmi	186d8c <__bss_end__+0x17d88c>
     974:	02000405 	andeq	r0, r0, #83886080	; 0x5000000
     978:	11030204 	tstne	r3, r4, lsl #4
     97c:	04020001 	streq	r0, [r2], #-1
     980:	02050102 	andeq	r0, r5, #-2147483648	; 0x80000000
     984:	02040200 	andeq	r0, r4, #0, 4
     988:	00090515 	andeq	r0, r9, r5, lsl r5
     98c:	06020402 	streq	r0, [r2], -r2, lsl #8
     990:	04020001 	streq	r0, [r2], #-1
     994:	01054a02 	tsteq	r5, r2, lsl #20
     998:	02040200 	andeq	r0, r4, #0, 4
     99c:	0604059f 			; <UNDEFINED> instruction: 0x0604059f
     9a0:	054a6e03 	strbeq	r6, [sl, #-3587]	; 0xfffff1fd
     9a4:	05010609 	streq	r0, [r1, #-1545]	; 0xfffff9f7
     9a8:	052f0604 	streq	r0, [pc, #-1540]!	; 3ac <__code_start__-0x7c54>
     9ac:	05110606 	ldreq	r0, [r1, #-1542]	; 0xfffff9fa
     9b0:	02052f04 	andeq	r2, r5, #4, 30
     9b4:	052e6503 	streq	r6, [lr, #-1283]!	; 0xfffffafd
     9b8:	04020019 	streq	r0, [r2], #-25	; 0xffffffe7
     9bc:	22030601 	andcs	r0, r3, #1048576	; 0x100000
     9c0:	001a052e 	andseq	r0, sl, lr, lsr #10
     9c4:	13010402 	movwne	r0, #5122	; 0x1402
     9c8:	02002805 	andeq	r2, r0, #327680	; 0x50000
     9cc:	01060104 	tsteq	r6, r4, lsl #2
     9d0:	02002505 	andeq	r2, r0, #20971520	; 0x1400000
     9d4:	052e0104 	streq	r0, [lr, #-260]!	; 0xfffffefc
     9d8:	0402001f 	streq	r0, [r2], #-31	; 0xffffffe1
     9dc:	0b054a01 	bleq	1531e8 <__bss_end__+0x149ce8>
     9e0:	01040200 	mrseq	r0, R12_usr
     9e4:	04054b06 	streq	r4, [r5], #-2822	; 0xfffff4fa
     9e8:	01040200 	mrseq	r0, R12_usr
     9ec:	02000106 	andeq	r0, r0, #-2147483647	; 0x80000001
     9f0:	004a0104 	subeq	r0, sl, r4, lsl #2
     9f4:	06010402 	streq	r0, [r1], -r2, lsl #8
     9f8:	0402004e 	streq	r0, [r2], #-78	; 0xffffffb2
     9fc:	02000101 	andeq	r0, r0, #1073741824	; 0x40000000
     a00:	00010104 	andeq	r0, r1, r4, lsl #2
     a04:	01010402 	tsteq	r1, r2, lsl #8
     a08:	01040200 	mrseq	r0, R12_usr
     a0c:	02002e06 	andeq	r2, r0, #6, 28	; 0x60
     a10:	00660104 	rsbeq	r0, r6, r4, lsl #2
     a14:	2e010402 	cdpcs	4, 0, cr0, cr1, cr2, {0}
     a18:	01040200 	mrseq	r0, R12_usr
     a1c:	48054a06 	stmdami	r5, {r1, r2, r9, fp, lr}
     a20:	087fa603 	ldmdaeq	pc!, {r0, r1, r9, sl, sp, pc}^	; <UNPREDICTABLE>
     a24:	13050520 	movwne	r0, #21792	; 0x5520
     a28:	002e0601 	eoreq	r0, lr, r1, lsl #12
     a2c:	06020402 	streq	r0, [r2], -r2, lsl #8
     a30:	0402002e 	streq	r0, [r2], #-46	; 0xffffffd2
     a34:	02000102 	andeq	r0, r0, #-2147483648	; 0x80000000
     a38:	05130204 	ldreq	r0, [r3, #-516]	; 0xfffffdfc
     a3c:	04020011 	streq	r0, [r2], #-17	; 0xffffffef
     a40:	05010602 	streq	r0, [r1, #-1538]	; 0xfffff9fe
     a44:	04020005 	streq	r0, [r2], #-5
     a48:	054b0602 	strbeq	r0, [fp, #-1538]	; 0xfffff9fe
     a4c:	04020007 	streq	r0, [r2], #-7
     a50:	05010602 	streq	r0, [r1, #-1538]	; 0xfffff9fe
     a54:	054b0609 	strbeq	r0, [fp, #-1545]	; 0xfffff9f7
     a58:	0501060e 	streq	r0, [r1, #-1550]	; 0xfffff9f2
     a5c:	04020048 	streq	r0, [r2], #-72	; 0xffffffb8
     a60:	05056201 	streq	r6, [r5, #-513]	; 0xfffffdff
     a64:	01040200 	mrseq	r0, R12_usr
     a68:	02004b06 	andeq	r4, r0, #6144	; 0x1800
     a6c:	00010104 	andeq	r0, r1, r4, lsl #2
     a70:	06010402 	streq	r0, [r1], -r2, lsl #8
     a74:	0402009e 	streq	r0, [r2], #-158	; 0xffffff62
     a78:	02002e01 	andeq	r2, r0, #1, 28
     a7c:	2e060104 	adfcss	f0, f6, f4
     a80:	e1034005 	tst	r3, r5
     a84:	0106d600 	tsteq	r6, r0, lsl #12
     a88:	9f060205 	svcls	0x00060205
     a8c:	01061e05 	tsteq	r6, r5, lsl #28
     a90:	052e1205 	streq	r1, [lr, #-517]!	; 0xfffffdfb
     a94:	052f0605 	streq	r0, [pc, #-1541]!	; 497 <__code_start__-0x7b69>
     a98:	09051402 	stmdbeq	r5, {r1, sl, ip}
     a9c:	05050106 	streq	r0, [r5, #-262]	; 0xfffffefa
     aa0:	02054b06 	andeq	r4, r5, #6144	; 0x1800
     aa4:	06080513 			; <UNDEFINED> instruction: 0x06080513
     aa8:	3302050d 	movwcc	r0, #9485	; 0x250d
     aac:	4e060805 	cdpmi	8, 0, cr0, cr6, cr5, {0}
     ab0:	01060e05 	tsteq	r6, r5, lsl #28
     ab4:	052e0a05 	streq	r0, [lr, #-2565]!	; 0xfffff5fb
     ab8:	054b0604 	strbeq	r0, [fp, #-1540]	; 0xfffff9fc
     abc:	05010609 	streq	r0, [r1, #-1545]	; 0xfffff9f7
     ac0:	052f0604 	streq	r0, [pc, #-1540]!	; 4c4 <__code_start__-0x7b3c>
     ac4:	05010607 	streq	r0, [r1, #-1543]	; 0xfffff9f9
     ac8:	7a030608 	bvc	c22f0 <__bss_end__+0xb8df0>
     acc:	0602052e 	streq	r0, [r2], -lr, lsr #10
     ad0:	000d052e 	andeq	r0, sp, lr, lsr #10
     ad4:	4a010402 	bmi	41ae4 <__bss_end__+0x385e4>
     ad8:	4b060305 	blmi	1816f4 <__bss_end__+0x1781f4>
     adc:	01060505 	tsteq	r6, r5, lsl #10
     ae0:	4b060405 	blmi	181afc <__bss_end__+0x1785fc>
     ae4:	01060f05 	tsteq	r6, r5, lsl #30
     ae8:	2e2e0905 	vmulcs.f16	s0, s28, s10	; <UNPREDICTABLE>
     aec:	34060405 	strcc	r0, [r6], #-1029	; 0xfffffbfb
     af0:	01060705 	tsteq	r6, r5, lsl #14
     af4:	30060405 	andcc	r0, r6, r5, lsl #8
     af8:	0d051413 	cfstrseq	mvf1, [r5, #-76]	; 0xffffffb4
     afc:	09051006 	stmdbeq	r5, {r1, r2, ip}
     b00:	06050530 			; <UNDEFINED> instruction: 0x06050530
     b04:	0612052f 	ldreq	r0, [r2], -pc, lsr #10
     b08:	2e160501 	cfmul32cs	mvfx0, mvfx6, mvfx1
     b0c:	052e0b05 	streq	r0, [lr, #-2821]!	; 0xfffff4fb
     b10:	052f0605 	streq	r0, [pc, #-1541]!	; 513 <__code_start__-0x7aed>
     b14:	05010608 	streq	r0, [r1, #-1544]	; 0xfffff9f8
     b18:	052c0609 	streq	r0, [ip, #-1545]!	; 0xfffff9f7
     b1c:	05010612 	streq	r0, [r1, #-1554]	; 0xfffff9ee
     b20:	09052e0a 	stmdbeq	r5, {r1, r3, r9, sl, fp, sp}
     b24:	0604054a 	streq	r0, [r4], -sl, asr #10
     b28:	014a014e 	cmpeq	sl, lr, asr #2
     b2c:	04020015 	streq	r0, [r2], #-21	; 0xffffffeb
     b30:	0f360201 	svceq	0x00360201
     b34:	01040200 	mrseq	r0, R12_usr
     b38:	04020001 	streq	r0, [r2], #-1
     b3c:	1105d601 	tstne	r5, r1, lsl #12
     b40:	00011334 	andeq	r1, r1, r4, lsr r3
     b44:	06020402 	streq	r0, [r2], -r2, lsl #8
     b48:	040200ba 	streq	r0, [r2], #-186	; 0xffffff46
     b4c:	00ba0603 	adcseq	r0, sl, r3, lsl #12
     b50:	01030402 	tsteq	r3, r2, lsl #8
     b54:	03040200 	movweq	r0, #16896	; 0x4200
     b58:	00150514 	andseq	r0, r5, r4, lsl r5
     b5c:	06030402 	streq	r0, [r3], -r2, lsl #8
     b60:	00110501 	andseq	r0, r1, r1, lsl #10
     b64:	06030402 	streq	r0, [r3], -r2, lsl #8
     b68:	001a052f 	andseq	r0, sl, pc, lsr #10
     b6c:	06030402 	streq	r0, [r3], -r2, lsl #8
     b70:	00110501 	andseq	r0, r1, r1, lsl #10
     b74:	06030402 	streq	r0, [r3], -r2, lsl #8
     b78:	040200d7 	streq	r0, [r2], #-215	; 0xffffff29
     b7c:	02001303 	andeq	r1, r0, #201326592	; 0xc000000
     b80:	00140304 	andseq	r0, r4, r4, lsl #6
     b84:	67030402 	strvs	r0, [r3, -r2, lsl #8]
     b88:	03040200 	movweq	r0, #16896	; 0x4200
     b8c:	00140568 	andseq	r0, r4, r8, ror #10
     b90:	06030402 	streq	r0, [r3], -r2, lsl #8
     b94:	00130501 	andseq	r0, r3, r1, lsl #10
     b98:	82030402 	andhi	r0, r3, #33554432	; 0x2000000
     b9c:	4e061805 	cdpmi	8, 0, cr1, cr6, cr5, {0}
     ba0:	01061b05 	tsteq	r6, r5, lsl #22
     ba4:	05821a05 	streq	r1, [r2, #2565]	; 0xa05
     ba8:	054b0609 	strbeq	r0, [fp, #-1545]	; 0xfffff9f7
     bac:	2e01060d 	cfmadd32cs	mvax0, mvfx0, mvfx1, mvfx13
     bb0:	f3060905 	vmls.i8	d0, d6, d5
     bb4:	1505ba06 	strne	fp, [r5, #-2566]	; 0xfffff5fa
     bb8:	18053006 	stmdane	r5, {r1, r2, ip, sp}
     bbc:	17050106 	strne	r0, [r5, -r6, lsl #2]
     bc0:	06190566 	ldreq	r0, [r9], -r6, ror #10
     bc4:	0615054b 	ldreq	r0, [r5], -fp, asr #10
     bc8:	05666f03 	strbeq	r6, [r6, #-3843]!	; 0xfffff0fd
     bcc:	01480611 	cmpeq	r8, r1, lsl r6
     bd0:	030905d6 	movweq	r0, #38358	; 0x95d6
     bd4:	0d052e0b 	stceq	14, cr2, [r5, #-44]	; 0xffffffd4
     bd8:	052e0106 	streq	r0, [lr, #-262]!	; 0xfffffefa
     bdc:	06f30609 	ldrbteq	r0, [r3], r9, lsl #12
     be0:	061505ba 			; <UNDEFINED> instruction: 0x061505ba
     be4:	7503062f 	strvc	r0, [r3, #-1583]	; 0xfffff9d1
     be8:	06190566 	ldreq	r0, [r9], -r6, ror #10
     bec:	054a1303 	strbeq	r1, [sl, #-771]	; 0xfffffcfd
     bf0:	6d030615 	stcvs	6, cr0, [r3, #-84]	; 0xffffffac
     bf4:	15030666 	strne	r0, [r3, #-1638]	; 0xfffff99a
     bf8:	06ba014a 	ldrteq	r0, [sl], sl, asr #2
     bfc:	0605052e 	streq	r0, [r5], -lr, lsr #10
     c00:	2e9e011a 	mrccs	1, 4, r0, cr14, cr10, {0}
     c04:	05010e03 	streq	r0, [r1, #-3587]	; 0xfffff1fd
     c08:	05010609 	streq	r0, [r1, #-1545]	; 0xfffff9f7
     c0c:	75080605 	strvc	r0, [r8, #-1541]	; 0xfffff9fb
     c10:	18030405 	stmdane	r3, {r0, r2, sl}
     c14:	06070501 	streq	r0, [r7], -r1, lsl #10
     c18:	06040501 	streq	r0, [r4], -r1, lsl #10
     c1c:	03050531 	movweq	r0, #21809	; 0x5531
     c20:	1c052e67 	stcne	14, cr2, [r5], {103}	; 0x67
     c24:	09050106 	stmdbeq	r5, {r1, r2, r8}
     c28:	06050582 	streq	r0, [r5], -r2, lsl #11
     c2c:	1c0531f3 	stfnes	f3, [r5], {243}	; 0xf3
     c30:	09050106 	stmdbeq	r5, {r1, r2, r8}
     c34:	06050582 	streq	r0, [r5], -r2, lsl #11
     c38:	1b0530f3 	blne	14d00c <__bss_end__+0x143b0c>
     c3c:	09050106 	stmdbeq	r5, {r1, r2, r8}
     c40:	06050582 	streq	r0, [r5], -r2, lsl #11
     c44:	070530f3 			; <UNDEFINED> instruction: 0x070530f3
     c48:	05050106 	streq	r0, [r5, #-262]	; 0xfffffefa
     c4c:	05308306 	ldreq	r8, [r0, #-774]!	; 0xfffffcfa
     c50:	05010609 	streq	r0, [r1, #-1545]	; 0xfffff9f7
     c54:	75080605 	strvc	r0, [r8, #-1541]	; 0xfffff9fb
     c58:	05301105 	ldreq	r1, [r0, #-261]!	; 0xfffffefb
     c5c:	05010622 	streq	r0, [r1, #-1570]	; 0xfffff9de
     c60:	054b0605 	strbeq	r0, [fp, #-1541]	; 0xfffff9fb
     c64:	05058311 	streq	r8, [r5, #-785]	; 0xfffffcef
     c68:	359e0183 	ldrcc	r0, [lr, #387]	; 0x183
     c6c:	01060e05 	tsteq	r6, r5, lsl #28
     c70:	062e0a05 	strteq	r0, [lr], -r5, lsl #20
     c74:	0604052d 	streq	r0, [r4], -sp, lsr #10
     c78:	00130501 	andseq	r0, r3, r1, lsl #10
     c7c:	4a010402 	bmi	41c8c <__bss_end__+0x3878c>
     c80:	02001005 	andeq	r1, r0, #5
     c84:	002e0104 	eoreq	r0, lr, r4, lsl #2
     c88:	66010402 	strvs	r0, [r1], -r2, lsl #8
     c8c:	16060205 	strne	r0, [r6], -r5, lsl #4
     c90:	01060705 	tsteq	r6, r5, lsl #14
     c94:	4b060205 	blmi	1814b0 <__bss_end__+0x177fb0>
     c98:	13060105 	movwne	r0, #24837	; 0x6105
     c9c:	001e0266 	andseq	r0, lr, r6, ror #4
     ca0:	008b0101 	addeq	r0, fp, r1, lsl #2
     ca4:	00030000 	andeq	r0, r3, r0
     ca8:	00000070 	andeq	r0, r0, r0, ror r0
     cac:	0efb0102 	cdpeq	1, 15, cr0, cr11, cr2, {0}
     cb0:	0101000d 	tsteq	r1, sp
     cb4:	00000101 	andeq	r0, r0, r1, lsl #2
     cb8:	00000100 	andeq	r0, r0, r0, lsl #2
     cbc:	732f2e01 			; <UNDEFINED> instruction: 0x732f2e01
     cc0:	66666174 			; <UNDEFINED> instruction: 0x66666174
     cc4:	6372732d 	cmnvs	r2, #-1275068416	; 0xb4000000
     cc8:	6f682f00 	svcvs	0x00682f00
     ccc:	702f656d 	eorvc	r6, pc, sp, ror #10
     cd0:	68747261 	ldmdavs	r4!, {r0, r5, r6, r9, ip, sp, lr}^
     cd4:	442f7669 	strtmi	r7, [pc], #-1641	; cdc <__code_start__-0x7324>
     cd8:	6d75636f 	ldclvs	3, cr6, [r5, #-444]!	; 0xfffffe44
     cdc:	73746e65 	cmnvc	r4, #1616	; 0x650
     ce0:	3273632f 	rsbscc	r6, r3, #-1140850688	; 0xbc000000
     ce4:	786c3034 	stmdavc	ip!, {r2, r4, r5, ip, sp}^
     ce8:	3273632f 	rsbscc	r6, r3, #-1140850688	; 0xbc000000
     cec:	786c3034 	stmdavc	ip!, {r2, r4, r5, ip, sp}^
     cf0:	62696c2f 	rsbvs	r6, r9, #12032	; 0x2f00
     cf4:	692f6970 	stmdbvs	pc!, {r4, r5, r6, r8, fp, sp, lr}	; <UNPREDICTABLE>
     cf8:	756c636e 	strbvc	r6, [ip, #-878]!	; 0xfffffc92
     cfc:	00006564 	andeq	r6, r0, r4, ror #10
     d00:	61656c63 	cmnvs	r5, r3, ror #24
     d04:	65722d6e 	ldrbvs	r2, [r2, #-3438]!	; 0xfffff292
     d08:	746f6f62 	strbtvc	r6, [pc], #-3938	; d10 <__code_start__-0x72f0>
     d0c:	0100632e 	tsteq	r0, lr, lsr #6
     d10:	70720000 	rsbsvc	r0, r2, r0
     d14:	00682e69 	rsbeq	r2, r8, r9, ror #28
     d18:	00000002 	andeq	r0, r0, r2
     d1c:	05001905 	streq	r1, [r0, #-2309]	; 0xfffff6fb
     d20:	008ad802 	addeq	sp, sl, r2, lsl #16
     d24:	05051500 	streq	r1, [r5, #-1280]	; 0xfffffb00
     d28:	4b2f832f 	blmi	be19ec <__bss_end__+0xbd84ec>
     d2c:	01000602 	tsteq	r0, r2, lsl #12
     d30:	0000a701 	andeq	sl, r0, r1, lsl #14
     d34:	6a000300 	bvs	193c <__code_start__-0x66c4>
     d38:	02000000 	andeq	r0, r0, #0
     d3c:	0d0efb01 	vstreq	d15, [lr, #-4]
     d40:	01010100 	mrseq	r0, (UNDEF: 17)
     d44:	00000001 	andeq	r0, r0, r1
     d48:	01000001 	tsteq	r0, r1
     d4c:	74732f2e 	ldrbtvc	r2, [r3], #-3886	; 0xfffff0d2
     d50:	2d666661 	stclcs	6, cr6, [r6, #-388]!	; 0xfffffe7c
     d54:	00637273 	rsbeq	r7, r3, r3, ror r2
     d58:	6d6f682f 	stclvs	8, cr6, [pc, #-188]!	; ca4 <__code_start__-0x735c>
     d5c:	61702f65 	cmnvs	r0, r5, ror #30
     d60:	69687472 	stmdbvs	r8!, {r1, r4, r5, r6, sl, ip, sp, lr}^
     d64:	6f442f76 	svcvs	0x00442f76
     d68:	656d7563 	strbvs	r7, [sp, #-1379]!	; 0xfffffa9d
     d6c:	2f73746e 	svccs	0x0073746e
     d70:	34327363 	ldrtcc	r7, [r2], #-867	; 0xfffffc9d
     d74:	2f786c30 	svccs	0x00786c30
     d78:	34327363 	ldrtcc	r7, [r2], #-867	; 0xfffffc9d
     d7c:	2f786c30 	svccs	0x00786c30
     d80:	7062696c 	rsbvc	r6, r2, ip, ror #18
     d84:	6e692f69 	cdpvs	15, 6, cr2, cr9, cr9, {3}
     d88:	64756c63 	ldrbtvs	r6, [r5], #-3171	; 0xfffff39d
     d8c:	63000065 	movwvs	r0, #101	; 0x65
     d90:	72617473 	rsbvc	r7, r1, #1929379840	; 0x73000000
     d94:	00632e74 	rsbeq	r2, r3, r4, ror lr
     d98:	72000001 	andvc	r0, r0, #1
     d9c:	682e6970 	stmdavs	lr!, {r4, r5, r6, r8, fp, sp, lr}
     da0:	00000200 	andeq	r0, r0, r0, lsl #4
     da4:	00100500 	andseq	r0, r0, r0, lsl #10
     da8:	8b040205 	blhi	1015c4 <__bss_end__+0xf80c4>
     dac:	05150000 	ldreq	r0, [r5, #-0]
     db0:	02052f05 	andeq	r2, r5, #5, 30
     db4:	14050513 	strne	r0, [r5], #-1299	; 0xfffffaed
     db8:	05141330 	ldreq	r1, [r4, #-816]	; 0xfffffcd0
     dbc:	310f060a 	tstcc	pc, sl, lsl #12
     dc0:	2f060905 	svccs	0x00060905
     dc4:	01061005 	tsteq	r6, r5
     dc8:	49060a05 	stmdbmi	r6, {r0, r2, r9, fp}
     dcc:	32690505 	rsbcc	r0, r9, #20971520	; 0x1400000
     dd0:	144a0101 	strbne	r0, [sl], #-257	; 0xfffffeff
     dd4:	022f0205 	eoreq	r0, pc, #1342177280	; 0x50000000
     dd8:	01010006 	tsteq	r1, r6
     ddc:	000000d9 	ldrdeq	r0, [r0], -r9
     de0:	006a0003 	rsbeq	r0, sl, r3
     de4:	01020000 	mrseq	r0, (UNDEF: 2)
     de8:	000d0efb 	strdeq	r0, [sp], -fp
     dec:	01010101 	tsteq	r1, r1, lsl #2
     df0:	01000000 	mrseq	r0, (UNDEF: 0)
     df4:	2e010000 	cdpcs	0, 0, cr0, cr1, cr0, {0}
     df8:	6174732f 	cmnvs	r4, pc, lsr #6
     dfc:	732d6666 			; <UNDEFINED> instruction: 0x732d6666
     e00:	2f006372 	svccs	0x00006372
     e04:	656d6f68 	strbvs	r6, [sp, #-3944]!	; 0xfffff098
     e08:	7261702f 	rsbvc	r7, r1, #47	; 0x2f
     e0c:	76696874 			; <UNDEFINED> instruction: 0x76696874
     e10:	636f442f 	cmnvs	pc, #788529152	; 0x2f000000
     e14:	6e656d75 	mcrvs	13, 3, r6, cr5, cr5, {3}
     e18:	632f7374 			; <UNDEFINED> instruction: 0x632f7374
     e1c:	30343273 	eorscc	r3, r4, r3, ror r2
     e20:	632f786c 			; <UNDEFINED> instruction: 0x632f786c
     e24:	30343273 	eorscc	r3, r4, r3, ror r2
     e28:	6c2f786c 	stcvs	8, cr7, [pc], #-432	; c80 <__code_start__-0x7380>
     e2c:	69706269 	ldmdbvs	r0!, {r0, r3, r5, r6, r9, sp, lr}^
     e30:	636e692f 	cmnvs	lr, #770048	; 0xbc000
     e34:	6564756c 	strbvs	r7, [r4, #-1388]!	; 0xfffffa94
     e38:	65720000 	ldrbvs	r0, [r2, #-0]!
     e3c:	746f6f62 	strbtvc	r6, [pc], #-3938	; e44 <__code_start__-0x71bc>
     e40:	0100632e 	tsteq	r0, lr, lsr #6
     e44:	70720000 	rsbsvc	r0, r2, r0
     e48:	00682e69 	rsbeq	r2, r8, r9, ror #28
     e4c:	00000002 	andeq	r0, r0, r2
     e50:	05001905 	streq	r1, [r0, #-2309]	; 0xfffff6fb
     e54:	008b4402 	addeq	r4, fp, r2, lsl #8
     e58:	010d0300 	mrseq	r0, SP_mon
     e5c:	13130505 	tstne	r3, #20971520	; 0x1400000
     e60:	06130531 			; <UNDEFINED> instruction: 0x06130531
     e64:	2f010501 	svccs	0x00010501
     e68:	85061b05 	strhi	r1, [r6, #-2821]	; 0xfffff4fb
     e6c:	14130505 	ldrne	r0, [r3], #-1285	; 0xfffffafb
     e70:	052f0905 	streq	r0, [pc, #-2309]!	; 573 <__code_start__-0x7a8d>
     e74:	05010616 	streq	r0, [r1, #-1558]	; 0xfffff9ea
     e78:	05052e0e 	streq	r2, [r5, #-3598]	; 0xfffff1f2
     e7c:	01052f06 	tsteq	r5, r6, lsl #30
     e80:	17052f06 	strne	r2, [r5, -r6, lsl #30]
     e84:	05053006 	streq	r3, [r5, #-6]
     e88:	0608052f 	streq	r0, [r8], -pc, lsr #10
     e8c:	2e070501 	cfsh32cs	mvfx0, mvfx7, #1
     e90:	50060505 	andpl	r0, r6, r5, lsl #10
     e94:	134d2f30 	movtne	r2, #57136	; 0xdf30
     e98:	67151313 			; <UNDEFINED> instruction: 0x67151313
     e9c:	01040200 	mrseq	r0, R12_usr
     ea0:	000d0567 	andeq	r0, sp, r7, ror #10
     ea4:	01010402 	tsteq	r1, r2, lsl #8
     ea8:	02000a05 	andeq	r0, r0, #20480	; 0x5000
     eac:	05010104 	streq	r0, [r1, #-260]	; 0xfffffefc
     eb0:	2e6d0309 	cdpcs	3, 6, cr0, cr13, cr9, {0}
     eb4:	01000c02 	tsteq	r0, r2, lsl #24
     eb8:	00005301 	andeq	r5, r0, r1, lsl #6
     ebc:	3b000300 	blcc	1ac4 <__code_start__-0x653c>
     ec0:	02000000 	andeq	r0, r0, #0
     ec4:	0d0efb01 	vstreq	d15, [lr, #-4]
     ec8:	01010100 	mrseq	r0, (UNDEF: 17)
     ecc:	00000001 	andeq	r0, r0, r1
     ed0:	01000001 	tsteq	r0, r1
     ed4:	74732f2e 	ldrbtvc	r2, [r3], #-3886	; 0xfffff0d2
     ed8:	2d666661 	stclcs	6, cr6, [r6, #-388]!	; 0xfffffe7c
     edc:	00637273 	rsbeq	r7, r3, r3, ror r2
     ee0:	66656400 	strbtvs	r6, [r5], -r0, lsl #8
     ee4:	746c7561 	strbtvc	r7, [ip], #-1377	; 0xfffffa9f
     ee8:	6265722d 	rsbvs	r7, r5, #-805306366	; 0xd0000002
     eec:	2d746f6f 	ldclcs	15, cr6, [r4, #-444]!	; 0xfffffe44
     ef0:	6c6c6163 	stfvse	f6, [ip], #-396	; 0xfffffe74
     ef4:	2e74756f 	cdpcs	5, 7, cr7, cr4, cr15, {3}
     ef8:	00010063 	andeq	r0, r1, r3, rrx
     efc:	1b050000 	blne	140f04 <__bss_end__+0x137a04>
     f00:	c4020500 	strgt	r0, [r2], #-1280	; 0xfffffb00
     f04:	1400008b 	strne	r0, [r0], #-139	; 0xffffff75
     f08:	02011c05 	andeq	r1, r1, #1280	; 0x500
     f0c:	01010002 	tsteq	r1, r2
     f10:	0000004a 	andeq	r0, r0, sl, asr #32
     f14:	00320003 	eorseq	r0, r2, r3
     f18:	01020000 	mrseq	r0, (UNDEF: 2)
     f1c:	000d0efb 	strdeq	r0, [sp], -fp
     f20:	01010101 	tsteq	r1, r1, lsl #2
     f24:	01000000 	mrseq	r0, (UNDEF: 0)
     f28:	2e010000 	cdpcs	0, 0, cr0, cr1, cr0, {0}
     f2c:	6174732f 	cmnvs	r4, pc, lsr #6
     f30:	732d6666 			; <UNDEFINED> instruction: 0x732d6666
     f34:	00006372 	andeq	r6, r0, r2, ror r3
     f38:	74737563 	ldrbtvc	r7, [r3], #-1379	; 0xfffffa9d
     f3c:	6c2d6d6f 	stcvs	13, cr6, [sp], #-444	; 0xfffffe44
     f40:	6564616f 	strbvs	r6, [r4, #-367]!	; 0xfffffe91
     f44:	00632e72 	rsbeq	r2, r3, r2, ror lr
     f48:	00000001 	andeq	r0, r0, r1
     f4c:	05001a05 	streq	r1, [r0, #-2565]	; 0xfffff5fb
     f50:	008bc802 	addeq	ip, fp, r2, lsl #16
     f54:	01051500 	tsteq	r5, r0, lsl #10
     f58:	00020214 	andeq	r0, r2, r4, lsl r2
     f5c:	00e00101 	rsceq	r0, r0, r1, lsl #2
     f60:	00030000 	andeq	r0, r3, r0
     f64:	00000069 	andeq	r0, r0, r9, rrx
     f68:	0efb0102 	cdpeq	1, 15, cr0, cr11, cr2, {0}
     f6c:	0101000d 	tsteq	r1, sp
     f70:	00000101 	andeq	r0, r0, r1, lsl #2
     f74:	00000100 	andeq	r0, r0, r0, lsl #2
     f78:	732f2e01 			; <UNDEFINED> instruction: 0x732f2e01
     f7c:	66666174 			; <UNDEFINED> instruction: 0x66666174
     f80:	6372732d 	cmnvs	r2, #-1275068416	; 0xb4000000
     f84:	6f682f00 	svcvs	0x00682f00
     f88:	702f656d 	eorvc	r6, pc, sp, ror #10
     f8c:	68747261 	ldmdavs	r4!, {r0, r5, r6, r9, ip, sp, lr}^
     f90:	442f7669 	strtmi	r7, [pc], #-1641	; f98 <__code_start__-0x7068>
     f94:	6d75636f 	ldclvs	3, cr6, [r5, #-444]!	; 0xfffffe44
     f98:	73746e65 	cmnvc	r4, #1616	; 0x650
     f9c:	3273632f 	rsbscc	r6, r3, #-1140850688	; 0xbc000000
     fa0:	786c3034 	stmdavc	ip!, {r2, r4, r5, ip, sp}^
     fa4:	3273632f 	rsbscc	r6, r3, #-1140850688	; 0xbc000000
     fa8:	786c3034 	stmdavc	ip!, {r2, r4, r5, ip, sp}^
     fac:	62696c2f 	rsbvs	r6, r9, #12032	; 0x2f00
     fb0:	692f6970 	stmdbvs	pc!, {r4, r5, r6, r8, fp, sp, lr}	; <UNPREDICTABLE>
     fb4:	756c636e 	strbvc	r6, [ip, #-878]!	; 0xfffffc92
     fb8:	00006564 	andeq	r6, r0, r4, ror #10
     fbc:	656d6974 	strbvs	r6, [sp, #-2420]!	; 0xfffff68c
     fc0:	00632e72 	rsbeq	r2, r3, r2, ror lr
     fc4:	72000001 	andvc	r0, r0, #1
     fc8:	682e6970 	stmdavs	lr!, {r4, r5, r6, r8, fp, sp, lr}
     fcc:	00000200 	andeq	r0, r0, r0, lsl #4
     fd0:	00230500 	eoreq	r0, r3, r0, lsl #10
     fd4:	8bcc0205 	blhi	ff3017f0 <__bss_end__+0xff2f82f0>
     fd8:	05150000 	ldreq	r0, [r5, #-0]
     fdc:	0c052f05 	stceq	15, cr2, [r5], {5}
     fe0:	01050106 	tsteq	r5, r6, lsl #2
     fe4:	061f054b 	ldreq	r0, [pc], -fp, asr #10
     fe8:	3105054d 	tstcc	r5, sp, asr #10
     fec:	0612052f 	ldreq	r0, [r2], -pc, lsr #10
     ff0:	06050501 	streq	r0, [r5], -r1, lsl #10
     ff4:	01052f4b 	tsteq	r5, fp, asr #30
     ff8:	1c051306 	stcne	3, cr1, [r5], {6}
     ffc:	01064c06 	tsteq	r6, r6, lsl #24
    1000:	4b060505 	blmi	18241c <__bss_end__+0x178f1c>
    1004:	01061305 	tsteq	r6, r5, lsl #6
    1008:	0605052e 	streq	r0, [r5], -lr, lsr #10
    100c:	1309052f 	movwne	r0, #38191	; 0x952f
    1010:	01061705 	tsteq	r6, r5, lsl #14
    1014:	2f060905 	svccs	0x00060905
    1018:	01061105 	tsteq	r6, r5, lsl #2
    101c:	052e0c05 	streq	r0, [lr, #-3077]!	; 0xfffff3fb
    1020:	066b061c 			; <UNDEFINED> instruction: 0x066b061c
    1024:	06050501 	streq	r0, [r5], -r1, lsl #10
    1028:	054a062f 	strbeq	r0, [sl, #-1583]	; 0xfffff9d1
    102c:	1e054b01 	vmlane.f64	d4, d5, d1
    1030:	01062f06 	tsteq	r6, r6, lsl #30
    1034:	2f060505 	svccs	0x00060505
    1038:	01054a06 	tsteq	r5, r6, lsl #20
    103c:	0002024b 	andeq	r0, r2, fp, asr #4
    1040:	02040101 	andeq	r0, r4, #1073741824	; 0x40000000
    1044:	00030000 	andeq	r0, r3, r0
    1048:	000000c8 	andeq	r0, r0, r8, asr #1
    104c:	0efb0102 	cdpeq	1, 15, cr0, cr11, cr2, {0}
    1050:	0101000d 	tsteq	r1, sp
    1054:	00000101 	andeq	r0, r0, r1, lsl #2
    1058:	00000100 	andeq	r0, r0, r0, lsl #2
    105c:	6f682f01 	svcvs	0x00682f01
    1060:	652f656d 	strvs	r6, [pc, #-1389]!	; afb <__code_start__-0x7505>
    1064:	656c676e 	strbvs	r6, [ip, #-1902]!	; 0xfffff892
    1068:	6c632f72 	stclvs	15, cr2, [r3], #-456	; 0xfffffe38
    106c:	2f737361 	svccs	0x00737361
    1070:	34317363 	ldrtcc	r7, [r1], #-867	; 0xfffffc9d
    1074:	322d6530 	eorcc	r6, sp, #48, 10	; 0xc000000
    1078:	6e697732 	mcrvs	7, 3, r7, cr9, cr2, {1}
    107c:	696c2f2f 	stmdbvs	ip!, {r0, r1, r2, r3, r5, r8, r9, sl, fp, sp}^
    1080:	2f697062 	svccs	0x00697062
    1084:	6c636e69 	stclvs	14, cr6, [r3], #-420	; 0xfffffe5c
    1088:	00656475 	rsbeq	r6, r5, r5, ror r4
    108c:	7273752f 	rsbsvc	r7, r3, #197132288	; 0xbc00000
    1090:	6168732f 	cmnvs	r8, pc, lsr #6
    1094:	672f6572 			; <UNDEFINED> instruction: 0x672f6572
    1098:	612d6363 			; <UNDEFINED> instruction: 0x612d6363
    109c:	6e2d6d72 	mcrvs	13, 1, r6, cr13, cr2, {3}
    10a0:	2d656e6f 	stclcs	14, cr6, [r5, #-444]!	; 0xfffffe44
    10a4:	69626165 	stmdbvs	r2!, {r0, r2, r5, r6, r8, sp, lr}^
    10a8:	2e30312d 	rsfcssp	f3, f0, #5.0
    10ac:	30322d33 	eorscc	r2, r2, r3, lsr sp
    10b0:	312e3132 			; <UNDEFINED> instruction: 0x312e3132
    10b4:	696c2f30 	stmdbvs	ip!, {r4, r5, r8, r9, sl, fp, sp}^
    10b8:	63672f62 	cmnvs	r7, #392	; 0x188
    10bc:	72612f63 	rsbvc	r2, r1, #396	; 0x18c
    10c0:	6f6e2d6d 	svcvs	0x006e2d6d
    10c4:	652d656e 	strvs	r6, [sp, #-1390]!	; 0xfffffa92
    10c8:	2f696261 	svccs	0x00696261
    10cc:	332e3031 			; <UNDEFINED> instruction: 0x332e3031
    10d0:	692f312e 	stmdbvs	pc!, {r1, r2, r3, r5, r8, ip, sp}	; <UNPREDICTABLE>
    10d4:	756c636e 	strbvc	r6, [ip, #-878]!	; 0xfffffc92
    10d8:	00006564 	andeq	r6, r0, r4, ror #10
    10dc:	74726175 	ldrbtvc	r6, [r2], #-373	; 0xfffffe8b
    10e0:	0000632e 	andeq	r6, r0, lr, lsr #6
    10e4:	61750000 	cmnvs	r5, r0
    10e8:	682e7472 	stmdavs	lr!, {r1, r4, r5, r6, sl, ip, sp, lr}
    10ec:	00000100 	andeq	r0, r0, r0, lsl #2
    10f0:	2e697072 	mcrcs	0, 3, r7, cr9, cr2, {3}
    10f4:	00010068 	andeq	r0, r1, r8, rrx
    10f8:	69706700 	ldmdbvs	r0!, {r8, r9, sl, sp, lr}^
    10fc:	00682e6f 	rsbeq	r2, r8, pc, ror #28
    1100:	73000001 	movwvc	r0, #1
    1104:	6e696474 	mcrvs	4, 3, r6, cr9, cr4, {3}
    1108:	63672d74 	cmnvs	r7, #116, 26	; 0x1d00
    110c:	00682e63 	rsbeq	r2, r8, r3, ror #28
    1110:	00000002 	andeq	r0, r0, r2
    1114:	05003905 	streq	r3, [r0, #-2309]	; 0xfffff6fb
    1118:	008c5002 	addeq	r5, ip, r2
    111c:	01300300 	teqeq	r0, r0, lsl #6
    1120:	05050106 	streq	r0, [r5, #-262]	; 0xfffffefa
    1124:	11056706 	tstne	r5, r6, lsl #14
    1128:	05050106 	streq	r0, [r5, #-262]	; 0xfffffefa
    112c:	6701052e 	strvs	r0, [r1, -lr, lsr #10]
    1130:	29063805 	stmdbcs	r6, {r0, r2, fp, ip, sp}
    1134:	05050106 	streq	r0, [r5, #-262]	; 0xfffffefa
    1138:	11056706 	tstne	r5, r6, lsl #14
    113c:	05050106 	streq	r0, [r5, #-262]	; 0xfffffefa
    1140:	6701052e 	strvs	r0, [r1, -lr, lsr #10]
    1144:	03061605 	movweq	r1, #26117	; 0x6605
    1148:	05052e15 	streq	r2, [r5, #-3605]	; 0xfffff1eb
    114c:	35686735 	strbcc	r6, [r8, #-1845]!	; 0xfffff8cb
    1150:	2e0c0368 	cdpcs	3, 0, cr0, cr12, cr8, {3}
    1154:	69696b85 	stmdbvs	r9!, {r0, r2, r7, r8, r9, fp, sp, lr}^
    1158:	13660c03 	cmnne	r6, #768	; 0x300
    115c:	0105676b 	tsteq	r5, fp, ror #14
    1160:	19052f06 	stmdbne	r5, {r1, r2, r8, r9, sl, fp, sp}
    1164:	05250806 	streq	r0, [r5, #-2054]!	; 0xfffff7fa
    1168:	0d053405 	cfstrseq	mvf3, [r5, #-20]	; 0xffffffec
    116c:	01050106 	tsteq	r5, r6, lsl #2
    1170:	0619054c 	ldreq	r0, [r9], -ip, asr #10
    1174:	36050567 	strcc	r0, [r5], -r7, ror #10
    1178:	01060d05 	tsteq	r6, r5, lsl #26
    117c:	054a2805 	strbeq	r2, [sl, #-2053]	; 0xfffff7fb
    1180:	15053001 	strne	r3, [r5, #-1]
    1184:	05058706 	streq	r8, [r5, #-1798]	; 0xfffff8fa
    1188:	09052f2f 	stmdbeq	r5, {r0, r1, r2, r3, r5, r8, r9, sl, fp, sp}
    118c:	01040200 	mrseq	r0, R12_usr
    1190:	000a0513 	andeq	r0, sl, r3, lsl r5
    1194:	11010402 	tstne	r1, r2, lsl #8
    1198:	02000c05 	andeq	r0, r0, #1280	; 0x500
    119c:	01060104 	tsteq	r6, r4, lsl #2
    11a0:	02000a05 	andeq	r0, r0, #20480	; 0x5000
    11a4:	052e0104 	streq	r0, [lr, #-260]!	; 0xfffffefc
    11a8:	054c0605 	strbeq	r0, [ip, #-1541]	; 0xfffff9fb
    11ac:	0501060e 	streq	r0, [r1, #-1550]	; 0xfffff9f2
    11b0:	05054a09 	streq	r4, [r5, #-2569]	; 0xfffff5f7
    11b4:	052f2f06 	streq	r2, [pc, #-3846]!	; 2b6 <__code_start__-0x7d4a>
    11b8:	05130601 	ldreq	r0, [r3, #-1537]	; 0xfffff9ff
    11bc:	0667061c 			; <UNDEFINED> instruction: 0x0667061c
    11c0:	06050501 	streq	r0, [r5], -r1, lsl #10
    11c4:	09052f4b 	stmdbeq	r5, {r0, r1, r3, r6, r8, r9, sl, fp, sp}
    11c8:	01040200 	mrseq	r0, R12_usr
    11cc:	000a0513 	andeq	r0, sl, r3, lsl r5
    11d0:	11010402 	tstne	r1, r2, lsl #8
    11d4:	02000c05 	andeq	r0, r0, #1280	; 0x500
    11d8:	01060104 	tsteq	r6, r4, lsl #2
    11dc:	02000a05 	andeq	r0, r0, #20480	; 0x5000
    11e0:	052e0104 	streq	r0, [lr, #-260]!	; 0xfffffefc
    11e4:	674c0605 	strbvs	r0, [ip, -r5, lsl #12]
    11e8:	2f060105 	svccs	0x00060105
    11ec:	4c061905 			; <UNDEFINED> instruction: 0x4c061905
    11f0:	052e1b05 	streq	r1, [lr, #-2821]!	; 0xfffff4fb
    11f4:	31052e2a 	tstcc	r5, sl, lsr #28
    11f8:	42050106 	andmi	r0, r5, #-2147483647	; 0x80000001
    11fc:	061c052e 	ldreq	r0, [ip], -lr, lsr #10
    1200:	2f050531 	svccs	0x00050531
    1204:	052e0903 	streq	r0, [lr, #-2307]!	; 0xfffff6fd
    1208:	0501060e 	streq	r0, [r1, #-1550]	; 0xfffff9f2
    120c:	01054a21 	tsteq	r5, r1, lsr #20
    1210:	052e0a03 	streq	r0, [lr, #-2563]!	; 0xfffff5fd
    1214:	0568061a 	strbeq	r0, [r8, #-1562]!	; 0xfffff9e6
    1218:	04020009 	streq	r0, [r2], #-9
    121c:	0a053001 	beq	14d228 <__bss_end__+0x143d28>
    1220:	01040200 	mrseq	r0, R12_usr
    1224:	000c0511 	andeq	r0, ip, r1, lsl r5
    1228:	06010402 	streq	r0, [r1], -r2, lsl #8
    122c:	000a0501 	andeq	r0, sl, r1, lsl #10
    1230:	2e010402 	cdpcs	4, 0, cr0, cr1, cr2, {0}
    1234:	03061905 	movweq	r1, #26885	; 0x6905
    1238:	05667ee8 	strbeq	r7, [r6, #-3816]!	; 0xfffff118
    123c:	2f2f2f05 	svccs	0x002f2f05
    1240:	06010567 	streq	r0, [r1], -r7, ror #10
    1244:	0004022f 	andeq	r0, r4, pc, lsr #4
    1248:	00680101 	rsbeq	r0, r8, r1, lsl #2
    124c:	00030000 	andeq	r0, r3, r0
    1250:	00000026 	andeq	r0, r0, r6, lsr #32
    1254:	0efb0102 	cdpeq	1, 15, cr0, cr11, cr2, {0}
    1258:	0101000d 	tsteq	r1, sp
    125c:	00000101 	andeq	r0, r0, r1, lsl #2
    1260:	00000100 	andeq	r0, r0, r0, lsl #2
    1264:	6c2f2e01 	stcvs	14, cr2, [pc], #-4	; 1268 <__code_start__-0x6d98>
    1268:	00636269 	rsbeq	r6, r3, r9, ror #4
    126c:	72747300 	rsbsvc	r7, r4, #0, 6
    1270:	2e797063 	cdpcs	0, 7, cr7, cr9, cr3, {3}
    1274:	00010063 	andeq	r0, r1, r3, rrx
    1278:	2a050000 	bcs	141280 <__bss_end__+0x137d80>
    127c:	40020500 	andmi	r0, r2, r0, lsl #10
    1280:	1400008e 	strne	r0, [r0], #-142	; 0xffffff72
    1284:	13130505 	tstne	r3, #20971520	; 0x1400000
    1288:	11061405 	tstne	r6, r5, lsl #8
    128c:	02002205 	andeq	r2, r0, #1342177280	; 0x50000000
    1290:	2f060104 	svccs	0x00060104
    1294:	02000b05 	andeq	r0, r0, #5120	; 0x1400
    1298:	05010104 	streq	r0, [r1, #-260]	; 0xfffffefc
    129c:	04020015 	streq	r0, [r2], #-21	; 0xffffffeb
    12a0:	05010601 	streq	r0, [r1, #-1537]	; 0xfffff9ff
    12a4:	04020013 	streq	r0, [r2], #-19	; 0xffffffed
    12a8:	0b054a01 	bleq	153ab4 <__bss_end__+0x14a5b4>
    12ac:	01040200 	mrseq	r0, R12_usr
    12b0:	0006024a 	andeq	r0, r6, sl, asr #4
    12b4:	00b10101 	adcseq	r0, r1, r1, lsl #2
    12b8:	00030000 	andeq	r0, r3, r0
    12bc:	00000026 	andeq	r0, r0, r6, lsr #32
    12c0:	0efb0102 	cdpeq	1, 15, cr0, cr11, cr2, {0}
    12c4:	0101000d 	tsteq	r1, sp
    12c8:	00000101 	andeq	r0, r0, r1, lsl #2
    12cc:	00000100 	andeq	r0, r0, r0, lsl #2
    12d0:	6c2f2e01 	stcvs	14, cr2, [pc], #-4	; 12d4 <__code_start__-0x6d2c>
    12d4:	00636269 	rsbeq	r6, r3, r9, ror #4
    12d8:	72747300 	rsbsvc	r7, r4, #0, 6
    12dc:	2e746163 	rpwcssz	f6, f4, f3
    12e0:	00010063 	andeq	r0, r1, r3, rrx
    12e4:	2c050000 	stccs	0, cr0, [r5], {-0}
    12e8:	60020500 	andvs	r0, r2, r0, lsl #10
    12ec:	1500008e 	strne	r0, [r0, #-142]	; 0xffffff72
    12f0:	13130505 	tstne	r3, #20971520	; 0x1400000
    12f4:	11060b05 	tstne	r6, r5, lsl #22
    12f8:	02000505 	andeq	r0, r0, #20971520	; 0x1400000
    12fc:	30060104 	andcc	r0, r6, r4, lsl #2
    1300:	01040200 	mrseq	r0, R12_usr
    1304:	00090515 	andeq	r0, r9, r5, lsl r5
    1308:	13010402 	movwne	r0, #5122	; 0x1402
    130c:	02001005 	andeq	r1, r0, #5
    1310:	2e060104 	adfcss	f0, f6, f4
    1314:	02000b05 	andeq	r0, r0, #5120	; 0x1400
    1318:	002e0104 	eoreq	r0, lr, r4, lsl #2
    131c:	06010402 	streq	r0, [r1], -r2, lsl #8
    1320:	0005052f 	andeq	r0, r5, pc, lsr #10
    1324:	06010402 	streq	r0, [r1], -r2, lsl #8
    1328:	054e0601 	strbeq	r0, [lr, #-1537]	; 0xfffff9ff
    132c:	05010608 	streq	r0, [r1, #-1544]	; 0xfffff9f8
    1330:	04020005 	streq	r0, [r2], #-5
    1334:	052f0601 	streq	r0, [pc, #-1537]!	; d3b <__code_start__-0x72c5>
    1338:	04020009 	streq	r0, [r2], #-9
    133c:	0b051301 	bleq	145f48 <__bss_end__+0x13ca48>
    1340:	01040200 	mrseq	r0, R12_usr
    1344:	09050106 	stmdbeq	r5, {r1, r2, r8}
    1348:	01040200 	mrseq	r0, R12_usr
    134c:	0f054b06 	svceq	0x00054b06
    1350:	01040200 	mrseq	r0, R12_usr
    1354:	0d050106 	stfeqs	f0, [r5, #-24]	; 0xffffffe8
    1358:	01040200 	mrseq	r0, R12_usr
    135c:	05052f06 	streq	r2, [r5, #-3846]	; 0xfffff0fa
    1360:	01040200 	mrseq	r0, R12_usr
    1364:	06020106 	streq	r0, [r2], -r6, lsl #2
    1368:	6e010100 	adfvss	f0, f1, f0
    136c:	03000000 	movweq	r0, #0
    1370:	00002600 	andeq	r2, r0, r0, lsl #12
    1374:	fb010200 	blx	41b7e <__bss_end__+0x3867e>
    1378:	01000d0e 	tsteq	r0, lr, lsl #26
    137c:	00010101 	andeq	r0, r1, r1, lsl #2
    1380:	00010000 	andeq	r0, r1, r0
    1384:	2f2e0100 	svccs	0x002e0100
    1388:	6362696c 	cmnvs	r2, #108, 18	; 0x1b0000
    138c:	74730000 	ldrbtvc	r0, [r3], #-0
    1390:	706d6372 	rsbvc	r6, sp, r2, ror r3
    1394:	0100632e 	tsteq	r0, lr, lsr #6
    1398:	05000000 	streq	r0, [r0, #-0]
    139c:	0205002a 	andeq	r0, r5, #42	; 0x2a
    13a0:	00008e94 	muleq	r0, r4, lr
    13a4:	13090514 	movwne	r0, #38164	; 0x9514
    13a8:	01060f05 	tsteq	r6, r5, lsl #30
    13ac:	2f061105 	svccs	0x00061105
    13b0:	2e061605 	cfmadd32cs	mvax0, mvfx1, mvfx6, mvfx5
    13b4:	2d060f05 	stccs	15, cr0, [r6, #-20]	; 0xffffffec
    13b8:	01061005 	tsteq	r6, r5
    13bc:	052e0f05 	streq	r0, [lr, #-3845]!	; 0xfffff0fb
    13c0:	0402001c 	streq	r0, [r2], #-28	; 0xffffffe4
    13c4:	13054a01 	movwne	r4, #23041	; 0x5a01
    13c8:	01040200 	mrseq	r0, R12_usr
    13cc:	0609052e 	streq	r0, [r9], -lr, lsr #10
    13d0:	0615054c 	ldreq	r0, [r5], -ip, asr #10
    13d4:	2f010501 	svccs	0x00010501
    13d8:	01000402 	tsteq	r0, r2, lsl #8
    13dc:	0000bc01 	andeq	fp, r0, r1, lsl #24
    13e0:	80000300 	andhi	r0, r0, r0, lsl #6
    13e4:	02000000 	andeq	r0, r0, #0
    13e8:	0d0efb01 	vstreq	d15, [lr, #-4]
    13ec:	01010100 	mrseq	r0, (UNDEF: 17)
    13f0:	00000001 	andeq	r0, r0, r1
    13f4:	01000001 	tsteq	r0, r1
    13f8:	696c2f2e 	stmdbvs	ip!, {r1, r2, r3, r5, r8, r9, sl, fp, sp}^
    13fc:	2f006362 	svccs	0x00006362
    1400:	2f727375 	svccs	0x00727375
    1404:	2f74706f 	svccs	0x0074706f
    1408:	2d636367 	stclcs	3, cr6, [r3, #-412]!	; 0xfffffe64
    140c:	2d6d7261 	sfmcs	f7, 2, [sp, #-388]!	; 0xfffffe7c
    1410:	656e6f6e 	strbvs	r6, [lr, #-3950]!	; 0xfffff092
    1414:	6261652d 	rsbvs	r6, r1, #188743680	; 0xb400000
    1418:	30312d69 	eorscc	r2, r1, r9, ror #26
    141c:	322d332e 	eorcc	r3, sp, #-1207959552	; 0xb8000000
    1420:	2e313230 	mrccs	2, 1, r3, cr1, cr0, {1}
    1424:	6c2f3031 	stcvs	0, cr3, [pc], #-196	; 1368 <__code_start__-0x6c98>
    1428:	672f6269 	strvs	r6, [pc, -r9, ror #4]!
    142c:	612f6363 			; <UNDEFINED> instruction: 0x612f6363
    1430:	6e2d6d72 	mcrvs	13, 1, r6, cr13, cr2, {3}
    1434:	2d656e6f 	stclcs	14, cr6, [r5, #-444]!	; 0xfffffe44
    1438:	69626165 	stmdbvs	r2!, {r0, r2, r5, r6, r8, sp, lr}^
    143c:	2e30312f 	rsfcssp	f3, f0, #10.0
    1440:	2f312e33 	svccs	0x00312e33
    1444:	6c636e69 	stclvs	14, cr6, [r3], #-420	; 0xfffffe5c
    1448:	00656475 	rsbeq	r6, r5, r5, ror r4
    144c:	72747300 	rsbsvc	r7, r4, #0, 6
    1450:	706d636e 	rsbvc	r6, sp, lr, ror #6
    1454:	0100632e 	tsteq	r0, lr, lsr #6
    1458:	74730000 	ldrbtvc	r0, [r3], #-0
    145c:	66656464 	strbtvs	r6, [r5], -r4, ror #8
    1460:	0200682e 	andeq	r6, r0, #3014656	; 0x2e0000
    1464:	05000000 	streq	r0, [r0, #-0]
    1468:	02050039 	andeq	r0, r5, #57	; 0x39
    146c:	00008ec4 	andeq	r8, r0, r4, asr #29
    1470:	13050515 	movwne	r0, #21781	; 0x5515
    1474:	010a0513 	tsteq	sl, r3, lsl r5
    1478:	054a0106 	strbeq	r0, [sl, #-262]	; 0xfffffefa
    147c:	052f0609 	streq	r0, [pc, #-1545]!	; e7b <__code_start__-0x7185>
    1480:	0501060c 	streq	r0, [r1, #-1548]	; 0xfffff9f4
    1484:	0b052e13 	bleq	14ccd8 <__bss_end__+0x1437d8>
    1488:	060d052e 	streq	r0, [sp], -lr, lsr #10
    148c:	061b054b 	ldreq	r0, [fp], -fp, asr #10
    1490:	0c052e01 	stceq	14, cr2, [r5], {1}
    1494:	2f010530 	svccs	0x00010530
    1498:	01000202 	tsteq	r0, r2, lsl #4
    149c:	Address 0x000000000000149c is out of bounds.


Disassembly of section .debug_str:

00000000 <.debug_str>:
   0:	5f78616d 	svcpl	0x0078616d
   4:	6c637963 			; <UNDEFINED> instruction: 0x6c637963
   8:	2f007365 	svccs	0x00007365
   c:	656d6f68 	strbvs	r6, [sp, #-3944]!	; 0xfffff098
  10:	7261702f 	rsbvc	r7, r1, #47	; 0x2f
  14:	76696874 			; <UNDEFINED> instruction: 0x76696874
  18:	636f442f 	cmnvs	pc, #788529152	; 0x2f000000
  1c:	6e656d75 	mcrvs	13, 3, r6, cr5, cr5, {3}
  20:	632f7374 			; <UNDEFINED> instruction: 0x632f7374
  24:	30343273 	eorscc	r3, r4, r3, ror r2
  28:	632f786c 			; <UNDEFINED> instruction: 0x632f786c
  2c:	30343273 	eorscc	r3, r4, r3, ror r2
  30:	6c2f786c 	stcvs	8, cr7, [pc], #-432	; fffffe88 <__bss_end__+0xffff6988>
  34:	2f736261 	svccs	0x00736261
  38:	69642d33 	stmdbvs	r4!, {r0, r1, r4, r5, r8, sl, fp, sp}^
  3c:	61746967 	cmnvs	r4, r7, ror #18
  40:	6e612d6c 	cdpvs	13, 6, cr2, cr1, cr12, {3}
  44:	7a796c61 	bvc	1e5b1d0 <__bss_end__+0x1e51cd0>
  48:	632f7265 			; <UNDEFINED> instruction: 0x632f7265
  4c:	2f65646f 	svccs	0x0065646f
  50:	706f6373 	rsbvc	r6, pc, r3, ror r3	; <UNPREDICTABLE>
  54:	5f6e0065 	svcpl	0x006e0065
  58:	0078616d 	rsbseq	r6, r8, sp, ror #2
  5c:	6d746f6e 	ldclvs	15, cr6, [r4, #-440]!	; 0xfffffe48
  60:	006e6961 	rsbeq	r6, lr, r1, ror #18
  64:	6f697067 	svcvs	0x00697067
  68:	6165725f 	cmnvs	r5, pc, asr r2
  6c:	6e750064 	cdpvs	0, 7, cr0, cr5, cr4, {3}
  70:	6e676973 			; <UNDEFINED> instruction: 0x6e676973
  74:	63206465 			; <UNDEFINED> instruction: 0x63206465
  78:	00726168 	rsbseq	r6, r2, r8, ror #2
  7c:	6379636e 	cmnvs	r9, #-1207959551	; 0xb8000001
  80:	0073656c 	rsbseq	r6, r3, ip, ror #10
  84:	61656c63 	cmnvs	r5, r3, ror #24
  88:	65725f6e 	ldrbvs	r5, [r2, #-3950]!	; 0xfffff092
  8c:	746f6f62 	strbtvc	r6, [pc], #-3938	; 94 <__code_start__-0x7f6c>
  90:	65736d00 	ldrbvs	r6, [r3, #-3328]!	; 0xfffff300
  94:	6f745f63 	svcvs	0x00745f63
  98:	6379635f 	cmnvs	r9, #2080374785	; 0x7c000001
  9c:	7300656c 	movwvc	r6, #1388	; 0x56c
  a0:	74726f68 	ldrbtvc	r6, [r2], #-3944	; 0xfffff098
  a4:	736e7520 	cmnvc	lr, #32, 10	; 0x8000000
  a8:	656e6769 	strbvs	r6, [lr, #-1897]!	; 0xfffff897
  ac:	6e692064 	cdpvs	0, 6, cr2, cr9, cr4, {3}
  b0:	70670074 	rsbvc	r0, r7, r4, ror r0
  b4:	735f6f69 	cmpvc	pc, #420	; 0x1a4
  b8:	695f7465 	ldmdbvs	pc, {r0, r2, r5, r6, sl, ip, sp, lr}^	; <UNPREDICTABLE>
  bc:	7475706e 	ldrbtvc	r7, [r5], #-110	; 0xffffff92
  c0:	756f5f00 	strbvc	r5, [pc, #-3840]!	; fffff1c8 <__bss_end__+0xffff5cc8>
  c4:	75640074 	strbvc	r0, [r4, #-116]!	; 0xffffff8c
  c8:	735f706d 	cmpvc	pc, #109	; 0x6d
  cc:	6c706d61 	ldclvs	13, cr6, [r0], #-388	; 0xfffffe7c
  d0:	73007365 	movwvc	r7, #869	; 0x365
  d4:	65706f63 	ldrbvs	r6, [r0, #-3939]!	; 0xfffff09d
  d8:	4700632e 	strmi	r6, [r0, -lr, lsr #6]
  dc:	4320554e 			; <UNDEFINED> instruction: 0x4320554e
  e0:	31203939 			; <UNDEFINED> instruction: 0x31203939
  e4:	2e332e30 	mrccs	14, 1, r2, cr3, cr0, {1}
  e8:	30322031 	eorscc	r2, r2, r1, lsr r0
  ec:	38303132 	ldmdacc	r0!, {r1, r4, r5, r8, ip, sp}
  f0:	28203432 	stmdacs	r0!, {r1, r4, r5, sl, ip, sp}
  f4:	656c6572 	strbvs	r6, [ip, #-1394]!	; 0xfffffa8e
  f8:	29657361 	stmdbcs	r5!, {r0, r5, r6, r8, r9, ip, sp, lr}^
  fc:	636d2d20 	cmnvs	sp, #32, 26	; 0x800
 100:	613d7570 	teqvs	sp, r0, ror r5
 104:	31316d72 	teqcc	r1, r2, ror sp
 108:	7a6a3637 	bvc	1a8d9ec <__bss_end__+0x1a844ec>
 10c:	20732d66 	rsbscs	r2, r3, r6, ror #26
 110:	75746d2d 	ldrbvc	r6, [r4, #-3373]!	; 0xfffff2d3
 114:	613d656e 	teqvs	sp, lr, ror #10
 118:	31316d72 	teqcc	r1, r2, ror sp
 11c:	7a6a3637 	bvc	1a8da00 <__bss_end__+0x1a84500>
 120:	20732d66 	rsbscs	r2, r3, r6, ror #26
 124:	6c666d2d 	stclvs	13, cr6, [r6], #-180	; 0xffffff4c
 128:	2d74616f 	ldfcse	f6, [r4, #-444]!	; 0xfffffe44
 12c:	3d696261 	sfmcc	f6, 2, [r9, #-388]!	; 0xfffffe7c
 130:	74666f73 	strbtvc	r6, [r6], #-3955	; 0xfffff08d
 134:	616d2d20 	cmnvs	sp, r0, lsr #26
 138:	2d206d72 	stccs	13, cr6, [r0, #-456]!	; 0xfffffe38
 13c:	6372616d 	cmnvs	r2, #1073741851	; 0x4000001b
 140:	72613d68 	rsbvc	r3, r1, #104, 26	; 0x1a00
 144:	6b36766d 	blvs	d9db00 <__bss_end__+0xd94600>
 148:	672d207a 			; <UNDEFINED> instruction: 0x672d207a
 14c:	20626467 	rsbcs	r6, r2, r7, ror #8
 150:	20674f2d 	rsbcs	r4, r7, sp, lsr #30
 154:	6474732d 	ldrbtvs	r7, [r4], #-813	; 0xfffffcd3
 158:	756e673d 	strbvc	r6, [lr, #-1853]!	; 0xfffff8c3
 15c:	2d203939 			; <UNDEFINED> instruction: 0x2d203939
 160:	65726666 	ldrbvs	r6, [r2, #-1638]!	; 0xfffff99a
 164:	61747365 	cmnvs	r4, r5, ror #6
 168:	6e69646e 	cdpvs	4, 6, cr6, cr9, cr14, {3}
 16c:	73750067 	cmnvc	r5, #103	; 0x67
 170:	745f6365 	ldrbvc	r6, [pc], #-869	; 178 <__code_start__-0x7e88>
 174:	79635f6f 	stmdbvc	r3!, {r0, r1, r2, r3, r5, r6, r8, r9, sl, fp, ip, lr}^
 178:	00656c63 	rsbeq	r6, r5, r3, ror #24
 17c:	676e6f6c 	strbvs	r6, [lr, -ip, ror #30]!
 180:	6e6f6c20 	cdpvs	12, 6, cr6, cr15, cr0, {1}
 184:	6e752067 	cdpvs	0, 7, cr2, cr5, cr7, {3}
 188:	6e676973 			; <UNDEFINED> instruction: 0x6e676973
 18c:	69206465 	stmdbvs	r0!, {r0, r2, r5, r6, sl, sp, lr}
 190:	7000746e 	andvc	r7, r0, lr, ror #8
 194:	6f697265 	svcvs	0x00697265
 198:	6f6c0064 	svcvs	0x006c0064
 19c:	6c20676e 	stcvs	7, cr6, [r0], #-440	; 0xfffffe48
 1a0:	20676e6f 	rsbcs	r6, r7, pc, ror #28
 1a4:	00746e69 	rsbseq	r6, r4, r9, ror #28
 1a8:	6379636e 	cmnvs	r9, #-1207959551	; 0xb8000001
 1ac:	6f687300 	svcvs	0x00687300
 1b0:	69207472 	stmdbvs	r0!, {r1, r4, r5, r6, sl, ip, sp, lr}
 1b4:	7000746e 	andvc	r7, r0, lr, ror #8
 1b8:	00766572 	rsbseq	r6, r6, r2, ror r5
 1bc:	5f676f6c 	svcpl	0x00676f6c
 1c0:	5f746e65 	svcpl	0x00746e65
 1c4:	6f740074 	svcvs	0x00740074
 1c8:	72655f74 	rsbvc	r5, r5, #116, 30	; 0x1d0
 1cc:	70670072 	rsbvc	r0, r7, r2, ror r0
 1d0:	635f6f69 	cmpvs	pc, #420	; 0x1a4
 1d4:	0030726c 	eorseq	r7, r0, ip, ror #4
 1d8:	6f697067 	svcvs	0x00697067
 1dc:	7465735f 	strbtvc	r7, [r5], #-863	; 0xfffffca1
 1e0:	682f0030 	stmdavs	pc!, {r4, r5}	; <UNPREDICTABLE>
 1e4:	2f656d6f 	svccs	0x00656d6f
 1e8:	74726170 	ldrbtvc	r6, [r2], #-368	; 0xfffffe90
 1ec:	2f766968 	svccs	0x00766968
 1f0:	75636f44 	strbvc	r6, [r3, #-3908]!	; 0xfffff0bc
 1f4:	746e656d 	strbtvc	r6, [lr], #-1389	; 0xfffffa93
 1f8:	73632f73 	cmnvc	r3, #460	; 0x1cc
 1fc:	6c303432 	cfldrsvs	mvf3, [r0], #-200	; 0xffffff38
 200:	73632f78 	cmnvc	r3, #120, 30	; 0x1e0
 204:	6c303432 	cfldrsvs	mvf3, [r0], #-200	; 0xffffff38
 208:	696c2f78 	stmdbvs	ip!, {r3, r4, r5, r6, r8, r9, sl, fp, sp}^
 20c:	00697062 	rsbeq	r7, r9, r2, rrx
 210:	4f495047 	svcmi	0x00495047
 214:	4e55465f 	mrcmi	6, 2, r4, cr5, cr15, {2}
 218:	554f5f43 	strbpl	r5, [pc, #-3907]	; fffff2dd <__bss_end__+0xffff5ddd>
 21c:	54555054 	ldrbpl	r5, [r5], #-84	; 0xffffffac
 220:	56454400 	strbpl	r4, [r5], -r0, lsl #8
 224:	4c41565f 	mcrrmi	6, 5, r5, r1, cr15
 228:	50003233 	andpl	r3, r0, r3, lsr r2
 22c:	32335455 	eorscc	r5, r3, #1426063360	; 0x55000000
 230:	54454700 	strbpl	r4, [r5], #-1792	; 0xfffff900
 234:	47003233 	smladxmi	r0, r3, r2, r3
 238:	5f4f4950 	svcpl	0x004f4950
 23c:	434e5546 	movtmi	r5, #58694	; 0xe546
 240:	544c415f 	strbpl	r4, [ip], #-351	; 0xfffffea1
 244:	50470030 	subpl	r0, r7, r0, lsr r0
 248:	465f4f49 	ldrbmi	r4, [pc], -r9, asr #30
 24c:	5f434e55 	svcpl	0x00434e55
 250:	31544c41 	cmpcc	r4, r1, asr #24
 254:	49504700 	ldmdbmi	r0, {r8, r9, sl, lr}^
 258:	55465f4f 	strbpl	r5, [r6, #-3919]	; 0xfffff0b1
 25c:	415f434e 	cmpmi	pc, lr, asr #6
 260:	0032544c 	eorseq	r5, r2, ip, asr #8
 264:	4f495047 	svcmi	0x00495047
 268:	4e55465f 	mrcmi	6, 2, r4, cr5, cr15, {2}
 26c:	4c415f43 	mcrrmi	15, 4, r5, r1, cr3
 270:	47003354 	smlsdmi	r0, r4, r3, r3
 274:	5f4f4950 	svcpl	0x004f4950
 278:	434e5546 	movtmi	r5, #58694	; 0xe546
 27c:	544c415f 	strbpl	r4, [ip], #-351	; 0xfffffea1
 280:	2f2e0035 	svccs	0x002e0035
 284:	2f637273 	svccs	0x00637273
 288:	6f697067 	svcvs	0x00697067
 28c:	6700632e 	strvs	r6, [r0, -lr, lsr #6]
 290:	5f6f6970 	svcpl	0x006f6970
 294:	5f746573 	svcpl	0x00746573
 298:	0066666f 	rsbeq	r6, r6, pc, ror #12
 29c:	6f697067 	svcvs	0x00697067
 2a0:	7465735f 	strbtvc	r7, [r5], #-863	; 0xfffffca1
 2a4:	74756f5f 	ldrbtvc	r6, [r5], #-3935	; 0xfffff0a1
 2a8:	00747570 	rsbseq	r7, r4, r0, ror r5
 2ac:	636e7566 	cmnvs	lr, #427819008	; 0x19800000
 2b0:	69706700 	ldmdbvs	r0!, {r8, r9, sl, sp, lr}^
 2b4:	75665f6f 	strbvc	r5, [r6, #-3951]!	; 0xfffff091
 2b8:	745f636e 	ldrbvc	r6, [pc], #-878	; 2c0 <__code_start__-0x7d40>
 2bc:	69706700 	ldmdbvs	r0!, {r8, r9, sl, sp, lr}^
 2c0:	656c5f6f 	strbvs	r5, [ip, #-3951]!	; 0xfffff091
 2c4:	67003076 	smlsdxvs	r0, r6, r0, r3
 2c8:	5f6f6970 	svcpl	0x006f6970
 2cc:	74697277 	strbtvc	r7, [r9], #-631	; 0xfffffd89
 2d0:	50470065 	subpl	r0, r7, r5, rrx
 2d4:	465f4f49 	ldrbmi	r4, [pc], -r9, asr #30
 2d8:	5f434e55 	svcpl	0x00434e55
 2dc:	34544c41 	ldrbcc	r4, [r4], #-3137	; 0xfffff3bf
 2e0:	6e616200 	cdpvs	2, 6, cr6, cr1, cr0, {0}
 2e4:	6975006b 	ldmdbvs	r5!, {r0, r1, r3, r5, r6}^
 2e8:	3233746e 	eorscc	r7, r3, #1845493760	; 0x6e000000
 2ec:	4700745f 	smlsdmi	r0, pc, r4, r7	; <UNPREDICTABLE>
 2f0:	5f4f4950 	svcpl	0x004f4950
 2f4:	434e5546 	movtmi	r5, #58694	; 0xe546
 2f8:	504e495f 	subpl	r4, lr, pc, asr r9
 2fc:	67005455 	smlsdvs	r0, r5, r4, r5
 300:	5f6f6970 	svcpl	0x006f6970
 304:	5f746573 	svcpl	0x00746573
 308:	636e7566 	cmnvs	lr, #427819008	; 0x19800000
 30c:	6e6f6974 			; <UNDEFINED> instruction: 0x6e6f6974
 310:	69706700 	ldmdbvs	r0!, {r8, r9, sl, sp, lr}^
 314:	65735f6f 	ldrbvs	r5, [r3, #-3951]!	; 0xfffff091
 318:	6e6f5f74 	mcrvs	15, 3, r5, cr15, cr4, {3}
 31c:	67726100 	ldrbvs	r6, [r2, -r0, lsl #2]!
 320:	61760073 	cmnvs	r6, r3, ror r0
 324:	6972705f 	ldmdbvs	r2!, {r0, r1, r2, r3, r4, r6, ip, sp, lr}^
 328:	006b746e 	rsbeq	r7, fp, lr, ror #8
 32c:	6e675f5f 	mcrvs	15, 3, r5, cr7, cr15, {2}
 330:	765f6375 			; <UNDEFINED> instruction: 0x765f6375
 334:	696c5f61 	stmdbvs	ip!, {r0, r5, r6, r8, r9, sl, fp, ip, lr}^
 338:	5f007473 	svcpl	0x00007473
 33c:	0070615f 	rsbseq	r6, r0, pc, asr r1
 340:	696c2f2e 	stmdbvs	ip!, {r1, r2, r3, r5, r8, r9, sl, fp, sp}^
 344:	702f6362 	eorvc	r6, pc, r2, ror #6
 348:	746e6972 	strbtvc	r6, [lr], #-2418	; 0xfffff68e
 34c:	00632e6b 	rsbeq	r2, r3, fp, ror #28
 350:	61765f5f 	cmnvs	r6, pc, asr pc
 354:	73696c5f 	cmnvc	r9, #24320	; 0x5f00
 358:	6e690074 	mcrvs	0, 3, r0, cr9, cr4, {3}
 35c:	6e726574 	mrcvs	5, 3, r6, cr2, cr4, {3}
 360:	705f6c61 	subsvc	r6, pc, r1, ror #24
 364:	006b7475 	rsbeq	r7, fp, r5, ror r4
 368:	5f697072 	svcpl	0x00697072
 36c:	63747570 	cmnvs	r4, #112, 10	; 0x1c000000
 370:	00726168 	rsbseq	r6, r2, r8, ror #2
 374:	696c2f2e 	stmdbvs	ip!, {r1, r2, r3, r5, r8, r9, sl, fp, sp}^
 378:	702f6362 	eorvc	r6, pc, r2, ror #6
 37c:	2e6b7475 	mcrcs	4, 3, r7, cr11, cr5, {3}
 380:	6e690063 	cdpvs	0, 6, cr0, cr9, cr3, {3}
 384:	6e726574 	mrcvs	5, 3, r6, cr2, cr4, {3}
 388:	705f6c61 	subsvc	r6, pc, r1, ror #24
 38c:	68637475 	stmdavs	r3!, {r0, r2, r4, r5, r6, sl, ip, sp, lr}^
 390:	72007261 	andvc	r7, r0, #268435462	; 0x10000006
 394:	735f6970 	cmpvc	pc, #112, 18	; 0x1c0000
 398:	705f7465 	subsvc	r7, pc, r5, ror #8
 39c:	00637475 	rsbeq	r7, r3, r5, ror r4
 3a0:	696c2f2e 	stmdbvs	ip!, {r1, r2, r3, r5, r8, r9, sl, fp, sp}^
 3a4:	702f6362 	eorvc	r6, pc, r2, ror #6
 3a8:	68637475 	stmdavs	r3!, {r0, r2, r4, r5, r6, sl, ip, sp, lr}^
 3ac:	632e7261 			; <UNDEFINED> instruction: 0x632e7261
 3b0:	72617500 	rsbvc	r7, r1, #0, 10
 3b4:	75705f74 	ldrbvc	r5, [r0, #-3956]!	; 0xfffff08c
 3b8:	72006374 	andvc	r6, r0, #116, 6	; 0xd0000001
 3bc:	725f6970 	subsvc	r6, pc, #112, 18	; 0x1c0000
 3c0:	74657365 	strbtvc	r7, [r5], #-869	; 0xfffffc9b
 3c4:	7475705f 	ldrbtvc	r7, [r5], #-95	; 0xffffffa1
 3c8:	73690063 	cmnvc	r9, #99	; 0x63
 3cc:	69676964 	stmdbvs	r7!, {r2, r5, r6, r8, fp, sp, lr}^
 3d0:	69750074 	ldmdbvs	r5!, {r2, r4, r5, r6}^
 3d4:	3436746e 	ldrtcc	r7, [r6], #-1134	; 0xfffffb92
 3d8:	2e00745f 	cfmvsrcs	mvf0, r7
 3dc:	62696c2f 	rsbvs	r6, r9, #12032	; 0x2f00
 3e0:	61762f63 	cmnvs	r6, r3, ror #30
 3e4:	6972702d 	ldmdbvs	r2!, {r0, r2, r3, r5, ip, sp, lr}^
 3e8:	2e6b746e 	cdpcs	4, 6, cr7, cr11, cr14, {3}
 3ec:	69770063 	ldmdbvs	r7!, {r0, r1, r5, r6}^
 3f0:	00687464 	rsbeq	r7, r8, r4, ror #8
 3f4:	55465f5f 	strbpl	r5, [r6, #-3935]	; 0xfffff0a1
 3f8:	4954434e 	ldmdbmi	r4, {r1, r2, r3, r6, r8, r9, lr}^
 3fc:	5f5f4e4f 	svcpl	0x005f4e4f
 400:	74757000 	ldrbtvc	r7, [r5], #-0
 404:	70665f63 	rsbvc	r5, r6, r3, ror #30
 408:	69707200 	ldmdbvs	r0!, {r9, ip, sp, lr}^
 40c:	7465735f 	strbtvc	r7, [r5], #-863	; 0xfffffca1
 410:	74756f5f 	ldrbtvc	r6, [r5], #-3935	; 0xfffff0a1
 414:	00747570 	rsbseq	r7, r4, r0, ror r5
 418:	5f746d66 	svcpl	0x00746d66
 41c:	72617473 	rsbvc	r7, r1, #1929379840	; 0x73000000
 420:	74730074 	ldrbtvc	r0, [r3], #-116	; 0xffffff8c
 424:	74616372 	strbtvc	r6, [r1], #-882	; 0xfffffc8e
 428:	72747300 	rsbsvc	r7, r4, #0, 6
 42c:	00797063 	rsbseq	r7, r9, r3, rrx
 430:	5f67656e 	svcpl	0x0067656e
 434:	6d650070 	stclvs	0, cr0, [r5, #-448]!	; 0xfffffe40
 438:	70007469 	andvc	r7, r0, r9, ror #8
 43c:	5f737475 	svcpl	0x00737475
 440:	72007066 	andvc	r7, r0, #102	; 0x66
 444:	72657665 	rsbvc	r7, r5, #105906176	; 0x6500000
 448:	73006573 	movwvc	r6, #1395	; 0x573
 44c:	6d637274 	sfmvs	f7, 2, [r3, #-464]!	; 0xfffffe30
 450:	756e0070 	strbvc	r0, [lr, #-112]!	; 0xffffff90
 454:	7300316d 	movwvc	r3, #365	; 0x16d
 458:	636e7274 	cmnvs	lr, #116, 4	; 0x40000007
 45c:	6200706d 	andvs	r7, r0, #109	; 0x6d
 460:	00657361 	rsbeq	r7, r5, r1, ror #6
 464:	6e676973 			; <UNDEFINED> instruction: 0x6e676973
 468:	705f6465 	subsvc	r6, pc, r5, ror #8
 46c:	69707200 	ldmdbvs	r0!, {r9, ip, sp, lr}^
 470:	6265725f 	rsbvs	r7, r5, #-268435451	; 0xf0000005
 474:	00746f6f 	rsbseq	r6, r4, pc, ror #30
 478:	616c6564 	cmnvs	ip, r4, ror #10
 47c:	736d5f79 	cmnvc	sp, #484	; 0x1e4
 480:	732f2e00 			; <UNDEFINED> instruction: 0x732f2e00
 484:	66666174 			; <UNDEFINED> instruction: 0x66666174
 488:	6372732d 	cmnvs	r2, #-1275068416	; 0xb4000000
 48c:	656c632f 	strbvs	r6, [ip, #-815]!	; 0xfffffcd1
 490:	722d6e61 	eorvc	r6, sp, #1552	; 0x610
 494:	6f6f6265 	svcvs	0x006f6265
 498:	00632e74 	rsbeq	r2, r3, r4, ror lr
 49c:	74726175 	ldrbtvc	r6, [r2], #-373	; 0xfffffe8b
 4a0:	756c665f 	strbvc	r6, [ip, #-1631]!	; 0xfffff9a1
 4a4:	745f6873 	ldrbvc	r6, [pc], #-2163	; 4ac <__code_start__-0x7b54>
 4a8:	5f5f0078 	svcpl	0x005f0078
 4ac:	5f737362 	svcpl	0x00737362
 4b0:	72617473 	rsbvc	r7, r1, #1929379840	; 0x73000000
 4b4:	005f5f74 	subseq	r5, pc, r4, ror pc	; <UNPREDICTABLE>
 4b8:	7473635f 	ldrbtvc	r6, [r3], #-863	; 0xfffffca1
 4bc:	00747261 	rsbseq	r7, r4, r1, ror #4
 4c0:	5f737362 	svcpl	0x00737362
 4c4:	00646e65 	rsbeq	r6, r4, r5, ror #28
 4c8:	74726175 	ldrbtvc	r6, [r2], #-373	; 0xfffffe8b
 4cc:	696e695f 	stmdbvs	lr!, {r0, r1, r2, r3, r4, r6, r8, fp, sp, lr}^
 4d0:	75630074 	strbvc	r0, [r3, #-116]!	; 0xffffff8c
 4d4:	6d6f7473 	cfstrdvs	mvd7, [pc, #-460]!	; 310 <__code_start__-0x7cf0>
 4d8:	616f6c5f 	cmnvs	pc, pc, asr ip	; <UNPREDICTABLE>
 4dc:	00726564 	rsbseq	r6, r2, r4, ror #10
 4e0:	74732f2e 	ldrbtvc	r2, [r3], #-3886	; 0xfffff0d2
 4e4:	2d666661 	stclcs	6, cr6, [r6, #-388]!	; 0xfffffe7c
 4e8:	2f637273 	svccs	0x00637273
 4ec:	61747363 	cmnvs	r4, r3, ror #6
 4f0:	632e7472 			; <UNDEFINED> instruction: 0x632e7472
 4f4:	625f5f00 	subsvs	r5, pc, #0, 30
 4f8:	655f7373 	ldrbvs	r7, [pc, #-883]	; 18d <__code_start__-0x7e73>
 4fc:	5f5f646e 	svcpl	0x005f646e
 500:	62657200 	rsbvs	r7, r5, #0, 4
 504:	5f746f6f 	svcpl	0x00746f6f
 508:	6c6c6163 	stfvse	f6, [ip], #-396	; 0xfffffe74
 50c:	0074756f 	rsbseq	r7, r4, pc, ror #10
 510:	575f4d50 			; <UNDEFINED> instruction: 0x575f4d50
 514:	00474f44 	subeq	r4, r7, r4, asr #30
 518:	5f746573 	svcpl	0x00746573
 51c:	72657375 	rsbvc	r7, r5, #-738197503	; 0xd4000001
 520:	76656c5f 			; <UNDEFINED> instruction: 0x76656c5f
 524:	2e006c65 	cdpcs	12, 0, cr6, cr0, cr5, {3}
 528:	6174732f 	cmnvs	r4, pc, lsr #6
 52c:	732d6666 			; <UNDEFINED> instruction: 0x732d6666
 530:	722f6372 	eorvc	r6, pc, #-939524095	; 0xc8000001
 534:	6f6f6265 	svcvs	0x006f6265
 538:	00632e74 	rsbeq	r2, r3, r4, ror lr
 53c:	505f4d50 	subspl	r4, pc, r0, asr sp	; <UNPREDICTABLE>
 540:	57535341 	ldrbpl	r5, [r3, -r1, asr #6]
 544:	0044524f 	subeq	r5, r4, pc, asr #4
 548:	755f7461 	ldrbvc	r7, [pc, #-1121]	; ef <__code_start__-0x7f11>
 54c:	5f726573 	svcpl	0x00726573
 550:	6576656c 	ldrbvs	r6, [r6, #-1388]!	; 0xfffffa94
 554:	4d50006c 	ldclmi	0, cr0, [r0, #-432]	; 0xfffffe50
 558:	5453525f 	ldrbpl	r5, [r3], #-607	; 0xfffffda1
 55c:	52575f43 	subspl	r5, r7, #268	; 0x10c
 560:	5f474643 	svcpl	0x00474643
 564:	4c4c5546 	cfstr64mi	mvdx5, [ip], {70}	; 0x46
 568:	5345525f 	movtpl	r5, #21087	; 0x525f
 56c:	50005445 	andpl	r5, r0, r5, asr #8
 570:	53525f4d 	cmppl	r2, #308	; 0x134
 574:	63004354 	movwvs	r4, #852	; 0x354
 578:	00727370 	rsbseq	r7, r2, r0, ror r3
 57c:	74732f2e 	ldrbtvc	r2, [r3], #-3886	; 0xfffff0d2
 580:	2d666661 	stclcs	6, cr6, [r6, #-388]!	; 0xfffffe7c
 584:	2f637273 	svccs	0x00637273
 588:	61666564 	cmnvs	r6, r4, ror #10
 58c:	2d746c75 	ldclcs	12, cr6, [r4, #-468]!	; 0xfffffe2c
 590:	6f626572 	svcvs	0x00626572
 594:	632d746f 			; <UNDEFINED> instruction: 0x632d746f
 598:	6f6c6c61 	svcvs	0x006c6c61
 59c:	632e7475 			; <UNDEFINED> instruction: 0x632e7475
 5a0:	732f2e00 			; <UNDEFINED> instruction: 0x732f2e00
 5a4:	66666174 			; <UNDEFINED> instruction: 0x66666174
 5a8:	6372732d 	cmnvs	r2, #-1275068416	; 0xb4000000
 5ac:	7375632f 	cmnvc	r5, #-1140850688	; 0xbc000000
 5b0:	2d6d6f74 	stclcs	15, cr6, [sp, #-464]!	; 0xfffffe30
 5b4:	64616f6c 	strbtvs	r6, [r1], #-3948	; 0xfffff094
 5b8:	632e7265 			; <UNDEFINED> instruction: 0x632e7265
 5bc:	76656400 	strbtvc	r6, [r5], -r0, lsl #8
 5c0:	7261625f 	rsbvc	r6, r1, #-268435451	; 0xf0000005
 5c4:	72656972 	rsbvc	r6, r5, #1867776	; 0x1c8000
 5c8:	6c656400 	cfstrdvs	mvd6, [r5], #-0
 5cc:	735f7961 	cmpvc	pc, #1589248	; 0x184000
 5d0:	2e006365 	cdpcs	3, 0, cr6, cr0, cr5, {3}
 5d4:	6174732f 	cmnvs	r4, pc, lsr #6
 5d8:	732d6666 			; <UNDEFINED> instruction: 0x732d6666
 5dc:	742f6372 	strtvc	r6, [pc], #-882	; 5e4 <__code_start__-0x7a1c>
 5e0:	72656d69 	rsbvc	r6, r5, #6720	; 0x1a40
 5e4:	7400632e 	strvc	r6, [r0], #-814	; 0xfffffcd2
 5e8:	72656d69 	rsbvc	r6, r5, #6720	; 0x1a40
 5ec:	7465675f 	strbtvc	r6, [r5], #-1887	; 0xfffff8a1
 5f0:	6573755f 	ldrbvs	r7, [r3, #-1375]!	; 0xfffffaa1
 5f4:	65640063 	strbvs	r0, [r4, #-99]!	; 0xffffff9d
 5f8:	5f79616c 	svcpl	0x0079616c
 5fc:	74007375 	strvc	r7, [r0], #-885	; 0xfffffc8b
 600:	72656d69 	rsbvc	r6, r5, #6720	; 0x1a40
 604:	7465675f 	strbtvc	r6, [r5], #-1887	; 0xfffff8a1
 608:	6573755f 	ldrbvs	r7, [r3, #-1375]!	; 0xfffffaa1
 60c:	61725f63 	cmnvs	r2, r3, ror #30
 610:	61620077 	smcvs	8199	; 0x2007
 614:	765f6475 			; <UNDEFINED> instruction: 0x765f6475
 618:	73006c61 	movwvc	r6, #3169	; 0xc61
 61c:	00746174 	rsbseq	r6, r4, r4, ror r1
 620:	74726175 	ldrbtvc	r6, [r2], #-373	; 0xfffffe8b
 624:	6e61635f 	mcrvs	3, 3, r6, cr1, cr15, {2}
 628:	7465675f 	strbtvc	r6, [r5], #-1887	; 0xfffff8a1
 62c:	61750063 	cmnvs	r5, r3, rrx
 630:	632e7472 			; <UNDEFINED> instruction: 0x632e7472
 634:	72617500 	rsbvc	r7, r1, #0, 10
 638:	61635f74 	smcvs	13812	; 0x35f4
 63c:	75705f6e 	ldrbvc	r5, [r0, #-3950]!	; 0xfffff092
 640:	75006374 	strvc	r6, [r0, #-884]	; 0xfffffc8c
 644:	00747261 	rsbseq	r7, r4, r1, ror #4
 648:	72646461 	rsbvc	r6, r4, #1627389952	; 0x61000000
 64c:	72617500 	rsbvc	r7, r1, #0, 10
 650:	78745f74 	ldmdavc	r4!, {r2, r4, r5, r6, r8, r9, sl, fp, ip, lr}^
 654:	5f73695f 	svcpl	0x0073695f
 658:	74706d65 	ldrbtvc	r6, [r0], #-3429	; 0xfffff29b
 65c:	75700079 	ldrbvc	r0, [r0, #-121]!	; 0xffffff87
 660:	00323374 	eorseq	r3, r2, r4, ror r3
 664:	64756162 	ldrbtvs	r6, [r5], #-354	; 0xfffffe9e
 668:	78756100 	ldmdavc	r5!, {r8, sp, lr}^
 66c:	616e655f 	cmnvs	lr, pc, asr r5
 670:	73656c62 	cmnvc	r5, #25088	; 0x6200
 674:	72617500 	rsbvc	r7, r1, #0, 10
 678:	65675f74 	strbvs	r5, [r7, #-3956]!	; 0xfffff08c
 67c:	63006374 	movwvs	r6, #884	; 0x374
 680:	006c746e 	rsbeq	r7, ip, lr, ror #8
 684:	74726175 	ldrbtvc	r6, [r2], #-373	; 0xfffffe8b
 688:	7369645f 	cmnvc	r9, #1593835520	; 0x5f000000
 68c:	656c6261 	strbvs	r6, [ip, #-609]!	; 0xfffffd9f
 690:	72617500 	rsbvc	r7, r1, #0, 10
 694:	61685f74 	smcvs	34292	; 0x85f4
 698:	61645f73 	smcvs	17907	; 0x45f3
 69c:	6f006174 	svcvs	0x00006174
 6a0:	6e695f72 	mcrvs	15, 3, r5, cr9, cr2, {3}
 6a4:	73003233 	movwvc	r3, #563	; 0x233
 6a8:	74617263 	strbtvc	r7, [r1], #-611	; 0xfffffd9d
 6ac:	61006863 	tstvs	r0, r3, ror #16
 6b0:	705f7875 	subsvc	r7, pc, r5, ror r8	; <UNPREDICTABLE>
 6b4:	70697265 	rsbvc	r7, r9, r5, ror #4
 6b8:	2f007368 	svccs	0x00007368
 6bc:	656d6f68 	strbvs	r6, [sp, #-3944]!	; 0xfffff098
 6c0:	676e652f 	strbvs	r6, [lr, -pc, lsr #10]!
 6c4:	2f72656c 	svccs	0x0072656c
 6c8:	73616c63 	cmnvc	r1, #25344	; 0x6300
 6cc:	73632f73 	cmnvc	r3, #460	; 0x1cc
 6d0:	65303431 	ldrvs	r3, [r0, #-1073]!	; 0xfffffbcf
 6d4:	7732322d 	ldrvc	r3, [r2, -sp, lsr #4]!
 6d8:	6c2f6e69 	stcvs	14, cr6, [pc], #-420	; 53c <__code_start__-0x7ac4>
 6dc:	69706269 	ldmdbvs	r0!, {r0, r3, r5, r6, r9, sp, lr}^
 6e0:	6174732f 	cmnvs	r4, pc, lsr #6
 6e4:	702d6666 	eorvc	r6, sp, r6, ror #12
 6e8:	61766972 	cmnvs	r6, r2, ror r9
 6ec:	61006574 	tstvs	r0, r4, ror r5
 6f0:	695f646e 	ldmdbvs	pc, {r1, r2, r3, r5, r6, sl, sp, lr}^	; <UNPREDICTABLE>
 6f4:	0032336e 	eorseq	r3, r2, lr, ror #6
 6f8:	33746567 	cmncc	r4, #432013312	; 0x19c00000
 6fc:	2f2e0032 	svccs	0x002e0032
 700:	6362696c 	cmnvs	r2, #108, 18	; 0x1b0000
 704:	7274732f 	rsbsvc	r7, r4, #-1140850688	; 0xbc000000
 708:	2e797063 	cdpcs	0, 7, cr7, cr9, cr3, {3}
 70c:	65640063 	strbvs	r0, [r4, #-99]!	; 0xffffff9d
 710:	2e007473 	mcrcs	4, 0, r7, cr0, cr3, {3}
 714:	62696c2f 	rsbvs	r6, r9, #12032	; 0x2f00
 718:	74732f63 	ldrbtvc	r2, [r3], #-3939	; 0xfffff09d
 71c:	74616372 	strbtvc	r6, [r1], #-882	; 0xfffffc8e
 720:	2e00632e 	cdpcs	3, 0, cr6, cr0, cr14, {1}
 724:	62696c2f 	rsbvs	r6, r9, #12032	; 0x2f00
 728:	74732f63 	ldrbtvc	r2, [r3], #-3939	; 0xfffff09d
 72c:	706d6372 	rsbvc	r6, sp, r2, ror r3
 730:	7300632e 	movwvc	r6, #814	; 0x32e
 734:	5f657a69 	svcpl	0x00657a69
 738:	2f2e0074 	svccs	0x002e0074
 73c:	6362696c 	cmnvs	r2, #108, 18	; 0x1b0000
 740:	7274732f 	rsbsvc	r7, r4, #-1140850688	; 0xbc000000
 744:	706d636e 	rsbvc	r6, sp, lr, ror #6
 748:	Address 0x0000000000000748 is out of bounds.


Disassembly of section .debug_frame:

00000000 <.debug_frame>:
   0:	0000000c 	andeq	r0, r0, ip
   4:	ffffffff 			; <UNDEFINED> instruction: 0xffffffff
   8:	7c020001 	stcvc	0, cr0, [r2], {1}
   c:	000d0c0e 	andeq	r0, sp, lr, lsl #24
  10:	00000020 	andeq	r0, r0, r0, lsr #32
  14:	00000000 	andeq	r0, r0, r0
  18:	00008038 	andeq	r8, r0, r8, lsr r0
  1c:	00000098 	muleq	r0, r8, r0
  20:	84200e42 	strthi	r0, [r0], #-3650	; 0xfffff1be
  24:	86078508 	strhi	r8, [r7], -r8, lsl #10
  28:	88058706 	stmdahi	r5, {r1, r2, r8, r9, sl, pc}
  2c:	8a038904 	bhi	e2444 <__bss_end__+0xd8f44>
  30:	00018e02 	andeq	r8, r1, r2, lsl #28
  34:	00000020 	andeq	r0, r0, r0, lsr #32
  38:	00000000 	andeq	r0, r0, r0
  3c:	000080d0 	ldrdeq	r8, [r0], -r0
  40:	000000dc 	ldrdeq	r0, [r0], -ip
  44:	84180e42 	ldrhi	r0, [r8], #-3650	; 0xfffff1be
  48:	86058506 	strhi	r8, [r5], -r6, lsl #10
  4c:	88038704 	stmdahi	r3, {r2, r8, r9, sl, pc}
  50:	42018e02 	andmi	r8, r1, #2, 28
  54:	0002a80e 	andeq	sl, r2, lr, lsl #16
  58:	0000000c 	andeq	r0, r0, ip
  5c:	ffffffff 			; <UNDEFINED> instruction: 0xffffffff
  60:	7c020001 	stcvc	0, cr0, [r2], {1}
  64:	000d0c0e 	andeq	r0, sp, lr, lsl #24
  68:	00000018 	andeq	r0, r0, r8, lsl r0
  6c:	00000058 	andeq	r0, r0, r8, asr r0
  70:	000081ac 	andeq	r8, r0, ip, lsr #3
  74:	00000064 	andeq	r0, r0, r4, rrx
  78:	84100e46 	ldrhi	r0, [r0], #-3654	; 0xfffff1ba
  7c:	86038504 	strhi	r8, [r3], -r4, lsl #10
  80:	00018e02 	andeq	r8, r1, r2, lsl #28
  84:	00000014 	andeq	r0, r0, r4, lsl r0
  88:	00000058 	andeq	r0, r0, r8, asr r0
  8c:	00008210 	andeq	r8, r0, r0, lsl r2
  90:	00000010 	andeq	r0, r0, r0, lsl r0
  94:	84080e42 	strhi	r0, [r8], #-3650	; 0xfffff1be
  98:	00018e02 	andeq	r8, r1, r2, lsl #28
  9c:	00000014 	andeq	r0, r0, r4, lsl r0
  a0:	00000058 	andeq	r0, r0, r8, asr r0
  a4:	00008220 	andeq	r8, r0, r0, lsr #4
  a8:	00000024 	andeq	r0, r0, r4, lsr #32
  ac:	84080e46 	strhi	r0, [r8], #-3654	; 0xfffff1ba
  b0:	00018e02 	andeq	r8, r1, r2, lsl #28
  b4:	00000014 	andeq	r0, r0, r4, lsl r0
  b8:	00000058 	andeq	r0, r0, r8, asr r0
  bc:	00008244 	andeq	r8, r0, r4, asr #4
  c0:	00000024 	andeq	r0, r0, r4, lsr #32
  c4:	84080e46 	strhi	r0, [r8], #-3654	; 0xfffff1ba
  c8:	00018e02 	andeq	r8, r1, r2, lsl #28
  cc:	00000014 	andeq	r0, r0, r4, lsl r0
  d0:	00000058 	andeq	r0, r0, r8, asr r0
  d4:	00008268 	andeq	r8, r0, r8, ror #4
  d8:	00000010 	andeq	r0, r0, r0, lsl r0
  dc:	84080e42 	strhi	r0, [r8], #-3650	; 0xfffff1be
  e0:	00018e02 	andeq	r8, r1, r2, lsl #28
  e4:	00000014 	andeq	r0, r0, r4, lsl r0
  e8:	00000058 	andeq	r0, r0, r8, asr r0
  ec:	00008278 	andeq	r8, r0, r8, ror r2
  f0:	0000001c 	andeq	r0, r0, ip, lsl r0
  f4:	84080e42 	strhi	r0, [r8], #-3650	; 0xfffff1be
  f8:	00018e02 	andeq	r8, r1, r2, lsl #28
  fc:	00000018 	andeq	r0, r0, r8, lsl r0
 100:	00000058 	andeq	r0, r0, r8, asr r0
 104:	00008294 	muleq	r0, r4, r2
 108:	00000034 	andeq	r0, r0, r4, lsr r0
 10c:	84080e46 	strhi	r0, [r8], #-3654	; 0xfffff1ba
 110:	4e018e02 	cdpmi	14, 0, cr8, cr1, cr2, {0}
 114:	cec4000e 	cdpgt	0, 12, cr0, cr4, cr14, {0}
 118:	0000000c 	andeq	r0, r0, ip
 11c:	ffffffff 			; <UNDEFINED> instruction: 0xffffffff
 120:	7c020001 	stcvc	0, cr0, [r2], {1}
 124:	000d0c0e 	andeq	r0, sp, lr, lsl #24
 128:	00000034 	andeq	r0, r0, r4, lsr r0
 12c:	00000118 	andeq	r0, r0, r8, lsl r1
 130:	000082c8 	andeq	r8, r0, r8, asr #5
 134:	00000058 	andeq	r0, r0, r8, asr r0
 138:	80100e42 	andshi	r0, r0, r2, asr #28
 13c:	82038104 	andhi	r8, r3, #4, 2
 140:	42018302 	andmi	r8, r1, #134217728	; 0x8000000
 144:	07841c0e 	streq	r1, [r4, lr, lsl #24]
 148:	058e0685 	streq	r0, [lr, #1669]	; 0x685
 14c:	5c280e42 	stcpl	14, cr0, [r8], #-264	; 0xfffffef8
 150:	ce421c0e 	cdpgt	12, 4, cr1, cr2, cr14, {0}
 154:	100ec4c5 	andne	ip, lr, r5, asr #9
 158:	c1c2c342 	bicgt	ip, r2, r2, asr #6
 15c:	00000ec0 	andeq	r0, r0, r0, asr #29
 160:	0000000c 	andeq	r0, r0, ip
 164:	ffffffff 			; <UNDEFINED> instruction: 0xffffffff
 168:	7c020001 	stcvc	0, cr0, [r2], {1}
 16c:	000d0c0e 	andeq	r0, sp, lr, lsl #24
 170:	00000014 	andeq	r0, r0, r4, lsl r0
 174:	00000160 	andeq	r0, r0, r0, ror #2
 178:	00008320 	andeq	r8, r0, r0, lsr #6
 17c:	00000034 	andeq	r0, r0, r4, lsr r0
 180:	84080e42 	strhi	r0, [r8], #-3650	; 0xfffff1be
 184:	00018e02 	andeq	r8, r1, r2, lsl #28
 188:	0000000c 	andeq	r0, r0, ip
 18c:	ffffffff 			; <UNDEFINED> instruction: 0xffffffff
 190:	7c020001 	stcvc	0, cr0, [r2], {1}
 194:	000d0c0e 	andeq	r0, sp, lr, lsl #24
 198:	00000014 	andeq	r0, r0, r4, lsl r0
 19c:	00000188 	andeq	r0, r0, r8, lsl #3
 1a0:	00008354 	andeq	r8, r0, r4, asr r3
 1a4:	00000014 	andeq	r0, r0, r4, lsl r0
 1a8:	84080e42 	strhi	r0, [r8], #-3650	; 0xfffff1be
 1ac:	00018e02 	andeq	r8, r1, r2, lsl #28
 1b0:	0000000c 	andeq	r0, r0, ip
 1b4:	00000188 	andeq	r0, r0, r8, lsl #3
 1b8:	00008368 	andeq	r8, r0, r8, ror #6
 1bc:	00000018 	andeq	r0, r0, r8, lsl r0
 1c0:	0000000c 	andeq	r0, r0, ip
 1c4:	00000188 	andeq	r0, r0, r8, lsl #3
 1c8:	00008380 	andeq	r8, r0, r0, lsl #7
 1cc:	00000010 	andeq	r0, r0, r0, lsl r0
 1d0:	0000000c 	andeq	r0, r0, ip
 1d4:	ffffffff 			; <UNDEFINED> instruction: 0xffffffff
 1d8:	7c020001 	stcvc	0, cr0, [r2], {1}
 1dc:	000d0c0e 	andeq	r0, sp, lr, lsl #24
 1e0:	0000000c 	andeq	r0, r0, ip
 1e4:	000001d0 	ldrdeq	r0, [r0], -r0	; <UNPREDICTABLE>
 1e8:	00008390 	muleq	r0, r0, r3
 1ec:	00000014 	andeq	r0, r0, r4, lsl r0
 1f0:	0000000c 	andeq	r0, r0, ip
 1f4:	000001d0 	ldrdeq	r0, [r0], -r0	; <UNPREDICTABLE>
 1f8:	000083a4 	andeq	r8, r0, r4, lsr #7
 1fc:	00000028 	andeq	r0, r0, r8, lsr #32
 200:	0000000c 	andeq	r0, r0, ip
 204:	000001d0 	ldrdeq	r0, [r0], -r0	; <UNPREDICTABLE>
 208:	000083cc 	andeq	r8, r0, ip, asr #7
 20c:	0000003c 	andeq	r0, r0, ip, lsr r0
 210:	00000024 	andeq	r0, r0, r4, lsr #32
 214:	000001d0 	ldrdeq	r0, [r0], -r0	; <UNPREDICTABLE>
 218:	00008408 	andeq	r8, r0, r8, lsl #8
 21c:	000001b4 			; <UNDEFINED> instruction: 0x000001b4
 220:	84140e42 	ldrhi	r0, [r4], #-3650	; 0xfffff1be
 224:	86048505 	strhi	r8, [r4], -r5, lsl #10
 228:	8e028703 	cdphi	7, 0, cr8, cr2, cr3, {0}
 22c:	600e4201 	andvs	r4, lr, r1, lsl #4
 230:	0e0a9a02 	vmlaeq.f32	s18, s20, s4
 234:	000b4214 	andeq	r4, fp, r4, lsl r2
 238:	00000014 	andeq	r0, r0, r4, lsl r0
 23c:	000001d0 	ldrdeq	r0, [r0], -r0	; <UNPREDICTABLE>
 240:	000085bc 			; <UNDEFINED> instruction: 0x000085bc
 244:	00000064 	andeq	r0, r0, r4, rrx
 248:	8e040e54 	mcrhi	14, 0, r0, cr4, cr4, {2}
 24c:	100e4201 	andne	r4, lr, r1, lsl #4
 250:	0000002c 	andeq	r0, r0, ip, lsr #32
 254:	000001d0 	ldrdeq	r0, [r0], -r0	; <UNPREDICTABLE>
 258:	00008620 	andeq	r8, r0, r0, lsr #12
 25c:	000004b8 			; <UNDEFINED> instruction: 0x000004b8
 260:	84240e42 	strthi	r0, [r4], #-3650	; 0xfffff1be
 264:	86088509 	strhi	r8, [r8], -r9, lsl #10
 268:	88068707 	stmdahi	r6, {r0, r1, r2, r8, r9, sl, pc}
 26c:	8a048905 	bhi	122688 <__bss_end__+0x119188>
 270:	8e028b03 	vmlahi.f64	d8, d2, d3
 274:	b80e4201 	stmdalt	lr, {r0, r9, lr}
 278:	02380302 	eorseq	r0, r8, #134217728	; 0x8000000
 27c:	0000240e 	andeq	r2, r0, lr, lsl #8
 280:	0000000c 	andeq	r0, r0, ip
 284:	ffffffff 			; <UNDEFINED> instruction: 0xffffffff
 288:	7c020001 	stcvc	0, cr0, [r2], {1}
 28c:	000d0c0e 	andeq	r0, sp, lr, lsl #24
 290:	00000014 	andeq	r0, r0, r4, lsl r0
 294:	00000280 	andeq	r0, r0, r0, lsl #5
 298:	00008ad8 	ldrdeq	r8, [r0], -r8	; <UNPREDICTABLE>
 29c:	0000002c 	andeq	r0, r0, ip, lsr #32
 2a0:	84080e42 	strhi	r0, [r8], #-3650	; 0xfffff1be
 2a4:	00018e02 	andeq	r8, r1, r2, lsl #28
 2a8:	0000000c 	andeq	r0, r0, ip
 2ac:	ffffffff 			; <UNDEFINED> instruction: 0xffffffff
 2b0:	7c020001 	stcvc	0, cr0, [r2], {1}
 2b4:	000d0c0e 	andeq	r0, sp, lr, lsl #24
 2b8:	00000014 	andeq	r0, r0, r4, lsl r0
 2bc:	000002a8 	andeq	r0, r0, r8, lsr #5
 2c0:	00008b04 	andeq	r8, r0, r4, lsl #22
 2c4:	00000040 	andeq	r0, r0, r0, asr #32
 2c8:	84080e42 	strhi	r0, [r8], #-3650	; 0xfffff1be
 2cc:	00018e02 	andeq	r8, r1, r2, lsl #28
 2d0:	0000000c 	andeq	r0, r0, ip
 2d4:	ffffffff 			; <UNDEFINED> instruction: 0xffffffff
 2d8:	7c020001 	stcvc	0, cr0, [r2], {1}
 2dc:	000d0c0e 	andeq	r0, sp, lr, lsl #24
 2e0:	0000000c 	andeq	r0, r0, ip
 2e4:	000002d0 	ldrdeq	r0, [r0], -r0	; <UNPREDICTABLE>
 2e8:	00008b44 	andeq	r8, r0, r4, asr #22
 2ec:	00000018 	andeq	r0, r0, r8, lsl r0
 2f0:	0000000c 	andeq	r0, r0, ip
 2f4:	000002d0 	ldrdeq	r0, [r0], -r0	; <UNPREDICTABLE>
 2f8:	00008b5c 	andeq	r8, r0, ip, asr fp
 2fc:	00000014 	andeq	r0, r0, r4, lsl r0
 300:	00000014 	andeq	r0, r0, r4, lsl r0
 304:	000002d0 	ldrdeq	r0, [r0], -r0	; <UNPREDICTABLE>
 308:	00008b70 	andeq	r8, r0, r0, ror fp
 30c:	00000054 	andeq	r0, r0, r4, asr r0
 310:	84080e42 	strhi	r0, [r8], #-3650	; 0xfffff1be
 314:	00018e02 	andeq	r8, r1, r2, lsl #28
 318:	0000000c 	andeq	r0, r0, ip
 31c:	ffffffff 			; <UNDEFINED> instruction: 0xffffffff
 320:	7c020001 	stcvc	0, cr0, [r2], {1}
 324:	000d0c0e 	andeq	r0, sp, lr, lsl #24
 328:	0000000c 	andeq	r0, r0, ip
 32c:	00000318 	andeq	r0, r0, r8, lsl r3
 330:	00008bc4 	andeq	r8, r0, r4, asr #23
 334:	00000004 	andeq	r0, r0, r4
 338:	0000000c 	andeq	r0, r0, ip
 33c:	ffffffff 			; <UNDEFINED> instruction: 0xffffffff
 340:	7c020001 	stcvc	0, cr0, [r2], {1}
 344:	000d0c0e 	andeq	r0, sp, lr, lsl #24
 348:	0000000c 	andeq	r0, r0, ip
 34c:	00000338 	andeq	r0, r0, r8, lsr r3
 350:	00008bc8 	andeq	r8, r0, r8, asr #23
 354:	00000004 	andeq	r0, r0, r4
 358:	0000000c 	andeq	r0, r0, ip
 35c:	ffffffff 			; <UNDEFINED> instruction: 0xffffffff
 360:	7c020001 	stcvc	0, cr0, [r2], {1}
 364:	000d0c0e 	andeq	r0, sp, lr, lsl #24
 368:	00000014 	andeq	r0, r0, r4, lsl r0
 36c:	00000358 	andeq	r0, r0, r8, asr r3
 370:	00008bcc 	andeq	r8, r0, ip, asr #23
 374:	00000014 	andeq	r0, r0, r4, lsl r0
 378:	84080e42 	strhi	r0, [r8], #-3650	; 0xfffff1be
 37c:	00018e02 	andeq	r8, r1, r2, lsl #28
 380:	00000014 	andeq	r0, r0, r4, lsl r0
 384:	00000358 	andeq	r0, r0, r8, asr r3
 388:	00008be0 	andeq	r8, r0, r0, ror #23
 38c:	0000001c 	andeq	r0, r0, ip, lsl r0
 390:	84080e42 	strhi	r0, [r8], #-3650	; 0xfffff1be
 394:	00018e02 	andeq	r8, r1, r2, lsl #28
 398:	00000018 	andeq	r0, r0, r8, lsl r0
 39c:	00000358 	andeq	r0, r0, r8, asr r3
 3a0:	00008bfc 	strdeq	r8, [r0], -ip
 3a4:	00000024 	andeq	r0, r0, r4, lsr #32
 3a8:	84100e42 	ldrhi	r0, [r0], #-3650	; 0xfffff1be
 3ac:	86038504 	strhi	r8, [r3], -r4, lsl #10
 3b0:	00018e02 	andeq	r8, r1, r2, lsl #28
 3b4:	00000014 	andeq	r0, r0, r4, lsl r0
 3b8:	00000358 	andeq	r0, r0, r8, asr r3
 3bc:	00008c20 	andeq	r8, r0, r0, lsr #24
 3c0:	00000018 	andeq	r0, r0, r8, lsl r0
 3c4:	84080e42 	strhi	r0, [r8], #-3650	; 0xfffff1be
 3c8:	00018e02 	andeq	r8, r1, r2, lsl #28
 3cc:	00000014 	andeq	r0, r0, r4, lsl r0
 3d0:	00000358 	andeq	r0, r0, r8, asr r3
 3d4:	00008c38 	andeq	r8, r0, r8, lsr ip
 3d8:	00000018 	andeq	r0, r0, r8, lsl r0
 3dc:	84080e42 	strhi	r0, [r8], #-3650	; 0xfffff1be
 3e0:	00018e02 	andeq	r8, r1, r2, lsl #28
 3e4:	0000000c 	andeq	r0, r0, ip
 3e8:	ffffffff 			; <UNDEFINED> instruction: 0xffffffff
 3ec:	7c020001 	stcvc	0, cr0, [r2], {1}
 3f0:	000d0c0e 	andeq	r0, sp, lr, lsl #24
 3f4:	00000018 	andeq	r0, r0, r8, lsl r0
 3f8:	000003e4 	andeq	r0, r0, r4, ror #7
 3fc:	00008c50 	andeq	r8, r0, r0, asr ip
 400:	00000020 	andeq	r0, r0, r0, lsr #32
 404:	84100e42 	ldrhi	r0, [r0], #-3650	; 0xfffff1be
 408:	86038504 	strhi	r8, [r3], -r4, lsl #10
 40c:	00018e02 	andeq	r8, r1, r2, lsl #28
 410:	00000018 	andeq	r0, r0, r8, lsl r0
 414:	000003e4 	andeq	r0, r0, r4, ror #7
 418:	00008c70 	andeq	r8, r0, r0, ror ip
 41c:	00000020 	andeq	r0, r0, r0, lsr #32
 420:	84100e42 	ldrhi	r0, [r0], #-3650	; 0xfffff1be
 424:	86038504 	strhi	r8, [r3], -r4, lsl #10
 428:	00018e02 	andeq	r8, r1, r2, lsl #28
 42c:	00000014 	andeq	r0, r0, r4, lsl r0
 430:	000003e4 	andeq	r0, r0, r4, ror #7
 434:	00008c90 	muleq	r0, r0, ip
 438:	000000b0 	strheq	r0, [r0], -r0	; <UNPREDICTABLE>
 43c:	84080e42 	strhi	r0, [r8], #-3650	; 0xfffff1be
 440:	00018e02 	andeq	r8, r1, r2, lsl #28
 444:	00000014 	andeq	r0, r0, r4, lsl r0
 448:	000003e4 	andeq	r0, r0, r4, ror #7
 44c:	00008d40 	andeq	r8, r0, r0, asr #26
 450:	00000018 	andeq	r0, r0, r8, lsl r0
 454:	84080e42 	strhi	r0, [r8], #-3650	; 0xfffff1be
 458:	00018e02 	andeq	r8, r1, r2, lsl #28
 45c:	00000014 	andeq	r0, r0, r4, lsl r0
 460:	000003e4 	andeq	r0, r0, r4, ror #7
 464:	00008d58 	andeq	r8, r0, r8, asr sp
 468:	00000020 	andeq	r0, r0, r0, lsr #32
 46c:	84080e42 	strhi	r0, [r8], #-3650	; 0xfffff1be
 470:	00018e02 	andeq	r8, r1, r2, lsl #28
 474:	00000014 	andeq	r0, r0, r4, lsl r0
 478:	000003e4 	andeq	r0, r0, r4, ror #7
 47c:	00008d78 	andeq	r8, r0, r8, ror sp
 480:	00000030 	andeq	r0, r0, r0, lsr r0
 484:	84080e42 	strhi	r0, [r8], #-3650	; 0xfffff1be
 488:	00018e02 	andeq	r8, r1, r2, lsl #28
 48c:	00000014 	andeq	r0, r0, r4, lsl r0
 490:	000003e4 	andeq	r0, r0, r4, ror #7
 494:	00008da8 	andeq	r8, r0, r8, lsr #27
 498:	00000030 	andeq	r0, r0, r0, lsr r0
 49c:	84080e42 	strhi	r0, [r8], #-3650	; 0xfffff1be
 4a0:	00018e02 	andeq	r8, r1, r2, lsl #28
 4a4:	00000014 	andeq	r0, r0, r4, lsl r0
 4a8:	000003e4 	andeq	r0, r0, r4, ror #7
 4ac:	00008dd8 	ldrdeq	r8, [r0], -r8	; <UNPREDICTABLE>
 4b0:	00000010 	andeq	r0, r0, r0, lsl r0
 4b4:	84080e42 	strhi	r0, [r8], #-3650	; 0xfffff1be
 4b8:	00018e02 	andeq	r8, r1, r2, lsl #28
 4bc:	00000014 	andeq	r0, r0, r4, lsl r0
 4c0:	000003e4 	andeq	r0, r0, r4, ror #7
 4c4:	00008de8 	andeq	r8, r0, r8, ror #27
 4c8:	00000020 	andeq	r0, r0, r0, lsr #32
 4cc:	84080e42 	strhi	r0, [r8], #-3650	; 0xfffff1be
 4d0:	00018e02 	andeq	r8, r1, r2, lsl #28
 4d4:	00000014 	andeq	r0, r0, r4, lsl r0
 4d8:	000003e4 	andeq	r0, r0, r4, ror #7
 4dc:	00008e08 	andeq	r8, r0, r8, lsl #28
 4e0:	00000014 	andeq	r0, r0, r4, lsl r0
 4e4:	84080e42 	strhi	r0, [r8], #-3650	; 0xfffff1be
 4e8:	00018e02 	andeq	r8, r1, r2, lsl #28
 4ec:	00000014 	andeq	r0, r0, r4, lsl r0
 4f0:	000003e4 	andeq	r0, r0, r4, ror #7
 4f4:	00008e1c 	andeq	r8, r0, ip, lsl lr
 4f8:	00000024 	andeq	r0, r0, r4, lsr #32
 4fc:	84080e42 	strhi	r0, [r8], #-3650	; 0xfffff1be
 500:	00018e02 	andeq	r8, r1, r2, lsl #28
 504:	0000000c 	andeq	r0, r0, ip
 508:	ffffffff 			; <UNDEFINED> instruction: 0xffffffff
 50c:	7c020001 	stcvc	0, cr0, [r2], {1}
 510:	000d0c0e 	andeq	r0, sp, lr, lsl #24
 514:	0000000c 	andeq	r0, r0, ip
 518:	00000504 	andeq	r0, r0, r4, lsl #10
 51c:	00008e40 	andeq	r8, r0, r0, asr #28
 520:	00000020 	andeq	r0, r0, r0, lsr #32
 524:	0000000c 	andeq	r0, r0, ip
 528:	ffffffff 			; <UNDEFINED> instruction: 0xffffffff
 52c:	7c020001 	stcvc	0, cr0, [r2], {1}
 530:	000d0c0e 	andeq	r0, sp, lr, lsl #24
 534:	0000000c 	andeq	r0, r0, ip
 538:	00000524 	andeq	r0, r0, r4, lsr #10
 53c:	00008e60 	andeq	r8, r0, r0, ror #28
 540:	00000034 	andeq	r0, r0, r4, lsr r0
 544:	0000000c 	andeq	r0, r0, ip
 548:	ffffffff 			; <UNDEFINED> instruction: 0xffffffff
 54c:	7c020001 	stcvc	0, cr0, [r2], {1}
 550:	000d0c0e 	andeq	r0, sp, lr, lsl #24
 554:	0000000c 	andeq	r0, r0, ip
 558:	00000544 	andeq	r0, r0, r4, asr #10
 55c:	00008e94 	muleq	r0, r4, lr
 560:	00000030 	andeq	r0, r0, r0, lsr r0
 564:	0000000c 	andeq	r0, r0, ip
 568:	ffffffff 			; <UNDEFINED> instruction: 0xffffffff
 56c:	7c020001 	stcvc	0, cr0, [r2], {1}
 570:	000d0c0e 	andeq	r0, sp, lr, lsl #24
 574:	0000000c 	andeq	r0, r0, ip
 578:	00000564 	andeq	r0, r0, r4, ror #10
 57c:	00008ec4 	andeq	r8, r0, r4, asr #29
 580:	0000002c 	andeq	r0, r0, ip, lsr #32
