
scope.elf:     file format elf32-littlearm


Disassembly of section .text:

00008000 <__code_start__>:
    8000:	e3a00013 	mov	r0, #19
    8004:	e3800080 	orr	r0, r0, #128	; 0x80
    8008:	e129f000 	msr	CPSR_fc, r0
    800c:	e3a01000 	mov	r1, #0
    8010:	ee071f95 	mcr	15, 0, r1, cr7, cr5, {4}
    8014:	e3a0d302 	mov	sp, #134217728	; 0x8000000
    8018:	e3a0b000 	mov	fp, #0
    801c:	eb0002db 	bl	8b90 <_cstart>
    8020:	eb0002fd 	bl	8c1c <rpi_reboot>

00008024 <PUT32>:
    8024:	e5801000 	str	r1, [r0]
    8028:	e12fff1e 	bx	lr

0000802c <GET32>:
    802c:	e5900000 	ldr	r0, [r0]
    8030:	e12fff1e 	bx	lr

00008034 <BRANCHTO>:
    8034:	e12fff10 	bx	r0

00008038 <scope>:
    8038:	e92d4070 	push	{r4, r5, r6, lr}
    803c:	e1a06000 	mov	r6, r0
    8040:	e1a05001 	mov	r5, r1
    8044:	eb0000b5 	bl	8320 <gpio_read>
    8048:	e1a04000 	mov	r4, r0
    804c:	e1a00006 	mov	r0, r6
    8050:	eb0000b2 	bl	8320 <gpio_read>
    8054:	e1540000 	cmp	r4, r0
    8058:	0afffffb 	beq	804c <scope+0x14>
    805c:	ee1f3f3c 	mrc	15, 0, r3, cr15, cr12, {1}
    8060:	ee1f3f3c 	mrc	15, 0, r3, cr15, cr12, {1}
    8064:	ee1f6f3c 	mrc	15, 0, r6, cr15, cr12, {1}
    8068:	eb000069 	bl	8214 <loop_till_21_high>
    806c:	eb000060 	bl	81f4 <loop_till_21_low>
    8070:	e5850004 	str	r0, [r5, #4]
    8074:	eb000066 	bl	8214 <loop_till_21_high>
    8078:	e585000c 	str	r0, [r5, #12]
    807c:	eb00005c 	bl	81f4 <loop_till_21_low>
    8080:	e5850014 	str	r0, [r5, #20]
    8084:	eb000062 	bl	8214 <loop_till_21_high>
    8088:	e585001c 	str	r0, [r5, #28]
    808c:	eb000058 	bl	81f4 <loop_till_21_low>
    8090:	e5850024 	str	r0, [r5, #36]	; 0x24
    8094:	eb00005e 	bl	8214 <loop_till_21_high>
    8098:	e585002c 	str	r0, [r5, #44]	; 0x2c
    809c:	eb000054 	bl	81f4 <loop_till_21_low>
    80a0:	e5850034 	str	r0, [r5, #52]	; 0x34
    80a4:	eb00005a 	bl	8214 <loop_till_21_high>
    80a8:	e585003c 	str	r0, [r5, #60]	; 0x3c
    80ac:	eb000050 	bl	81f4 <loop_till_21_low>
    80b0:	e5850044 	str	r0, [r5, #68]	; 0x44
    80b4:	eb000056 	bl	8214 <loop_till_21_high>
    80b8:	e585004c 	str	r0, [r5, #76]	; 0x4c
    80bc:	eb00004c 	bl	81f4 <loop_till_21_low>
    80c0:	e5850054 	str	r0, [r5, #84]	; 0x54
    80c4:	e595c004 	ldr	ip, [r5, #4]
    80c8:	e04cc006 	sub	ip, ip, r6
    80cc:	e24ccd5e 	sub	ip, ip, #6016	; 0x1780
    80d0:	e24cc009 	sub	ip, ip, #9
    80d4:	e3a03000 	mov	r3, #0
    80d8:	ea000007 	b	80fc <scope+0xc4>
    80dc:	e0851183 	add	r1, r5, r3, lsl #3
    80e0:	e08c2006 	add	r2, ip, r6
    80e4:	e5910004 	ldr	r0, [r1, #4]
    80e8:	e0402002 	sub	r2, r0, r2
    80ec:	e5812004 	str	r2, [r1, #4]
    80f0:	e7854183 	str	r4, [r5, r3, lsl #3]
    80f4:	e2644001 	rsb	r4, r4, #1
    80f8:	e2833001 	add	r3, r3, #1
    80fc:	e353000a 	cmp	r3, #10
    8100:	9afffff5 	bls	80dc <scope+0xa4>
    8104:	e1a01006 	mov	r1, r6
    8108:	e59f0008 	ldr	r0, [pc, #8]	; 8118 <scope+0xe0>
    810c:	eb000090 	bl	8354 <printk>
    8110:	e3a0000b 	mov	r0, #11
    8114:	e8bd8070 	pop	{r4, r5, r6, pc}
    8118:	00008fb8 			; <UNDEFINED> instruction: 0x00008fb8

0000811c <notmain>:
    811c:	e92d41f0 	push	{r4, r5, r6, r7, r8, lr}
    8120:	e24dde11 	sub	sp, sp, #272	; 0x110
    8124:	e3a00015 	mov	r0, #21
    8128:	eb000071 	bl	82f4 <gpio_set_input>
    812c:	eb0002a7 	bl	8bd0 <enable_cache>
    8130:	e3a03001 	mov	r3, #1
    8134:	ee0f3f1c 	mcr	15, 0, r3, cr15, cr12, {0}
    8138:	e3a08000 	mov	r8, #0
    813c:	ea00001c 	b	81b4 <notmain+0x98>
    8140:	e04e2004 	sub	r2, lr, r4
    8144:	e0866002 	add	r6, r6, r2
    8148:	e58d600c 	str	r6, [sp, #12]
    814c:	e58d2008 	str	r2, [sp, #8]
    8150:	e58de004 	str	lr, [sp, #4]
    8154:	e58d4000 	str	r4, [sp]
    8158:	e790200c 	ldr	r2, [r0, ip]
    815c:	e59f0084 	ldr	r0, [pc, #132]	; 81e8 <notmain+0xcc>
    8160:	eb00007b 	bl	8354 <printk>
    8164:	e1a01005 	mov	r1, r5
    8168:	e1a03004 	mov	r3, r4
    816c:	e2472001 	sub	r2, r7, #1
    8170:	e1510002 	cmp	r1, r2
    8174:	2a00000d 	bcs	81b0 <notmain+0x94>
    8178:	e1a0c181 	lsl	ip, r1, #3
    817c:	e28d0010 	add	r0, sp, #16
    8180:	e0802181 	add	r2, r0, r1, lsl #3
    8184:	e5924004 	ldr	r4, [r2, #4]
    8188:	e0443003 	sub	r3, r4, r3
    818c:	e2815001 	add	r5, r1, #1
    8190:	e0852105 	add	r2, r5, r5, lsl #2
    8194:	e0822102 	add	r2, r2, r2, lsl #2
    8198:	e0622202 	rsb	r2, r2, r2, lsl #4
    819c:	e1a0e202 	lsl	lr, r2, #4
    81a0:	e1540202 	cmp	r4, r2, lsl #4
    81a4:	9affffe5 	bls	8140 <notmain+0x24>
    81a8:	e044200e 	sub	r2, r4, lr
    81ac:	eaffffe4 	b	8144 <notmain+0x28>
    81b0:	e2888001 	add	r8, r8, #1
    81b4:	e3580003 	cmp	r8, #3
    81b8:	ca000009 	bgt	81e4 <notmain+0xc8>
    81bc:	e59f3028 	ldr	r3, [pc, #40]	; 81ec <notmain+0xd0>
    81c0:	e3a02020 	mov	r2, #32
    81c4:	e28d1010 	add	r1, sp, #16
    81c8:	e3a00015 	mov	r0, #21
    81cc:	ebffff99 	bl	8038 <scope>
    81d0:	e1a07000 	mov	r7, r0
    81d4:	e3a01000 	mov	r1, #0
    81d8:	e1a03001 	mov	r3, r1
    81dc:	e1a06001 	mov	r6, r1
    81e0:	eaffffe1 	b	816c <notmain+0x50>
    81e4:	eb00025e 	bl	8b64 <clean_reboot>
    81e8:	00008fcc 	andeq	r8, r0, ip, asr #31
    81ec:	0a6e49c0 	beq	1b9a8f4 <__bss_end__+0x1b9135c>

000081f0 <gpio_lev0>:
    81f0:	20200034 	eorcs	r0, r0, r4, lsr r0

000081f4 <loop_till_21_low>:
    81f4:	e59f0038 	ldr	r0, [pc, #56]	; 8234 <loop_till_21_high_loop+0x14>
    81f8:	e5900000 	ldr	r0, [r0]
    81fc:	eaffffff 	b	8200 <loop_till_21_low_loop>

00008200 <loop_till_21_low_loop>:
    8200:	e5901000 	ldr	r1, [r0]
    8204:	e3110602 	tst	r1, #2097152	; 0x200000
    8208:	1afffffc 	bne	8200 <loop_till_21_low_loop>
    820c:	ee1f0f3c 	mrc	15, 0, r0, cr15, cr12, {1}
    8210:	e12fff1e 	bx	lr

00008214 <loop_till_21_high>:
    8214:	e59f0018 	ldr	r0, [pc, #24]	; 8234 <loop_till_21_high_loop+0x14>
    8218:	e5900000 	ldr	r0, [r0]
    821c:	eaffffff 	b	8220 <loop_till_21_high_loop>

00008220 <loop_till_21_high_loop>:
    8220:	e5901000 	ldr	r1, [r0]
    8224:	e3110602 	tst	r1, #2097152	; 0x200000
    8228:	0afffffc 	beq	8220 <loop_till_21_high_loop>
    822c:	ee1f0f3c 	mrc	15, 0, r0, cr15, cr12, {1}
    8230:	e12fff1e 	bx	lr
    8234:	000081f0 	strdeq	r8, [r0], -r0

00008238 <gpio_set_function>:
    8238:	e350001f 	cmp	r0, #31
    823c:	812fff1e 	bxhi	lr
    8240:	e92d4070 	push	{r4, r5, r6, lr}
    8244:	e1a05001 	mov	r5, r1
    8248:	e3d13007 	bics	r3, r1, #7
    824c:	18bd8070 	popne	{r4, r5, r6, pc}
    8250:	e59f3040 	ldr	r3, [pc, #64]	; 8298 <gpio_set_function+0x60>
    8254:	e0832093 	umull	r2, r3, r3, r0
    8258:	e1a031a3 	lsr	r3, r3, #3
    825c:	e1a02003 	mov	r2, r3
    8260:	e0833103 	add	r3, r3, r3, lsl #2
    8264:	e0403083 	sub	r3, r0, r3, lsl #1
    8268:	e0834083 	add	r4, r3, r3, lsl #1
    826c:	e2820302 	add	r0, r2, #134217728	; 0x8000000
    8270:	e2800702 	add	r0, r0, #524288	; 0x80000
    8274:	e1a06100 	lsl	r6, r0, #2
    8278:	e1a00006 	mov	r0, r6
    827c:	ebffff6a 	bl	802c <GET32>
    8280:	e3a01007 	mov	r1, #7
    8284:	e1c01411 	bic	r1, r0, r1, lsl r4
    8288:	e1811415 	orr	r1, r1, r5, lsl r4
    828c:	e1a00006 	mov	r0, r6
    8290:	ebffff63 	bl	8024 <PUT32>
    8294:	e8bd8070 	pop	{r4, r5, r6, pc}
    8298:	cccccccd 	stclgt	12, cr12, [ip], {205}	; 0xcd

0000829c <gpio_set_output>:
    829c:	e92d4010 	push	{r4, lr}
    82a0:	e3a01001 	mov	r1, #1
    82a4:	ebffffe3 	bl	8238 <gpio_set_function>
    82a8:	e8bd8010 	pop	{r4, pc}

000082ac <gpio_set_on>:
    82ac:	e350001f 	cmp	r0, #31
    82b0:	812fff1e 	bxhi	lr
    82b4:	e92d4010 	push	{r4, lr}
    82b8:	e3a01001 	mov	r1, #1
    82bc:	e1a01011 	lsl	r1, r1, r0
    82c0:	e59f0004 	ldr	r0, [pc, #4]	; 82cc <gpio_set_on+0x20>
    82c4:	ebffff56 	bl	8024 <PUT32>
    82c8:	e8bd8010 	pop	{r4, pc}
    82cc:	2020001c 	eorcs	r0, r0, ip, lsl r0

000082d0 <gpio_set_off>:
    82d0:	e350001f 	cmp	r0, #31
    82d4:	812fff1e 	bxhi	lr
    82d8:	e92d4010 	push	{r4, lr}
    82dc:	e3a01001 	mov	r1, #1
    82e0:	e1a01011 	lsl	r1, r1, r0
    82e4:	e59f0004 	ldr	r0, [pc, #4]	; 82f0 <gpio_set_off+0x20>
    82e8:	ebffff4d 	bl	8024 <PUT32>
    82ec:	e8bd8010 	pop	{r4, pc}
    82f0:	20200028 	eorcs	r0, r0, r8, lsr #32

000082f4 <gpio_set_input>:
    82f4:	e92d4010 	push	{r4, lr}
    82f8:	e3a01000 	mov	r1, #0
    82fc:	ebffffcd 	bl	8238 <gpio_set_function>
    8300:	e8bd8010 	pop	{r4, pc}

00008304 <gpio_write>:
    8304:	e92d4010 	push	{r4, lr}
    8308:	e3510000 	cmp	r1, #0
    830c:	0a000001 	beq	8318 <gpio_write+0x14>
    8310:	ebffffe5 	bl	82ac <gpio_set_on>
    8314:	e8bd8010 	pop	{r4, pc}
    8318:	ebffffec 	bl	82d0 <gpio_set_off>
    831c:	e8bd8010 	pop	{r4, pc}

00008320 <gpio_read>:
    8320:	e350001f 	cmp	r0, #31
    8324:	8a000007 	bhi	8348 <gpio_read+0x28>
    8328:	e92d4010 	push	{r4, lr}
    832c:	e200401f 	and	r4, r0, #31
    8330:	e59f3018 	ldr	r3, [pc, #24]	; 8350 <gpio_read+0x30>
    8334:	e08302a0 	add	r0, r3, r0, lsr #5
    8338:	ebffff3b 	bl	802c <GET32>
    833c:	e1a00430 	lsr	r0, r0, r4
    8340:	e2000001 	and	r0, r0, #1
    8344:	e8bd8010 	pop	{r4, pc}
    8348:	e3e00000 	mvn	r0, #0
    834c:	e12fff1e 	bx	lr
    8350:	20200034 	eorcs	r0, r0, r4, lsr r0

00008354 <printk>:
    8354:	e92d000f 	push	{r0, r1, r2, r3}
    8358:	e92d4030 	push	{r4, r5, lr}
    835c:	e24dd00c 	sub	sp, sp, #12
    8360:	e28d301c 	add	r3, sp, #28
    8364:	e58d3004 	str	r3, [sp, #4]
    8368:	e59f5034 	ldr	r5, [pc, #52]	; 83a4 <printk+0x50>
    836c:	e59d2018 	ldr	r2, [sp, #24]
    8370:	e3a01b01 	mov	r1, #1024	; 0x400
    8374:	e1a00005 	mov	r0, r5
    8378:	eb0000cb 	bl	86ac <va_printk>
    837c:	e1a04000 	mov	r4, r0
    8380:	e59f3020 	ldr	r3, [pc, #32]	; 83a8 <printk+0x54>
    8384:	e5933000 	ldr	r3, [r3]
    8388:	e1a00005 	mov	r0, r5
    838c:	e12fff33 	blx	r3
    8390:	e1a00004 	mov	r0, r4
    8394:	e28dd00c 	add	sp, sp, #12
    8398:	e8bd4030 	pop	{r4, r5, lr}
    839c:	e28dd010 	add	sp, sp, #16
    83a0:	e12fff1e 	bx	lr
    83a4:	00009198 	muleq	r0, r8, r1
    83a8:	00009190 	muleq	r0, r0, r1

000083ac <internal_putk>:
    83ac:	e92d4010 	push	{r4, lr}
    83b0:	e1a04000 	mov	r4, r0
    83b4:	ea000003 	b	83c8 <internal_putk+0x1c>
    83b8:	e59f301c 	ldr	r3, [pc, #28]	; 83dc <internal_putk+0x30>
    83bc:	e5933000 	ldr	r3, [r3]
    83c0:	e12fff33 	blx	r3
    83c4:	e2844001 	add	r4, r4, #1
    83c8:	e5d40000 	ldrb	r0, [r4]
    83cc:	e3500000 	cmp	r0, #0
    83d0:	1afffff8 	bne	83b8 <internal_putk+0xc>
    83d4:	e3a00001 	mov	r0, #1
    83d8:	e8bd8010 	pop	{r4, pc}
    83dc:	00009194 	muleq	r0, r4, r1

000083e0 <internal_putchar>:
    83e0:	e92d4010 	push	{r4, lr}
    83e4:	e1a04000 	mov	r4, r0
    83e8:	eb000299 	bl	8e54 <uart_putc>
    83ec:	e1a00004 	mov	r0, r4
    83f0:	e8bd8010 	pop	{r4, pc}

000083f4 <rpi_reset_putc>:
    83f4:	e59f3008 	ldr	r3, [pc, #8]	; 8404 <rpi_reset_putc+0x10>
    83f8:	e59f2008 	ldr	r2, [pc, #8]	; 8408 <rpi_reset_putc+0x14>
    83fc:	e5832000 	str	r2, [r3]
    8400:	e12fff1e 	bx	lr
    8404:	00009194 	muleq	r0, r4, r1
    8408:	000083e0 	andeq	r8, r0, r0, ror #7

0000840c <rpi_set_putc>:
    840c:	e59f3004 	ldr	r3, [pc, #4]	; 8418 <rpi_set_putc+0xc>
    8410:	e5830000 	str	r0, [r3]
    8414:	e12fff1e 	bx	lr
    8418:	00009194 	muleq	r0, r4, r1

0000841c <isdigit>:
    841c:	e2400030 	sub	r0, r0, #48	; 0x30
    8420:	e3500009 	cmp	r0, #9
    8424:	83a00000 	movhi	r0, #0
    8428:	93a00001 	movls	r0, #1
    842c:	e12fff1e 	bx	lr

00008430 <pad>:
    8430:	e0401001 	sub	r1, r0, r1
    8434:	ea000002 	b	8444 <pad+0x14>
    8438:	e3a03020 	mov	r3, #32
    843c:	e4c03001 	strb	r3, [r0], #1
    8440:	e2811001 	add	r1, r1, #1
    8444:	e1510002 	cmp	r1, r2
    8448:	bafffffa 	blt	8438 <pad+0x8>
    844c:	e3a03000 	mov	r3, #0
    8450:	e5c03000 	strb	r3, [r0]
    8454:	e12fff1e 	bx	lr

00008458 <reverse>:
    8458:	e042c003 	sub	ip, r2, r3
    845c:	e28cc001 	add	ip, ip, #1
    8460:	e15c0001 	cmp	ip, r1
    8464:	c04cc001 	subgt	ip, ip, r1
    8468:	c083300c 	addgt	r3, r3, ip
    846c:	e2421001 	sub	r1, r2, #1
    8470:	e1a02000 	mov	r2, r0
    8474:	ea000001 	b	8480 <reverse+0x28>
    8478:	e451c001 	ldrb	ip, [r1], #-1
    847c:	e4c2c001 	strb	ip, [r2], #1
    8480:	e1510003 	cmp	r1, r3
    8484:	2afffffb 	bcs	8478 <reverse+0x20>
    8488:	e3a03000 	mov	r3, #0
    848c:	e5c23000 	strb	r3, [r2]
    8490:	e12fff1e 	bx	lr

00008494 <emit>:
    8494:	e92d40f0 	push	{r4, r5, r6, r7, lr}
    8498:	e24dd04c 	sub	sp, sp, #76	; 0x4c
    849c:	e1a05001 	mov	r5, r1
    84a0:	e1a04002 	mov	r4, r2
    84a4:	e59d2060 	ldr	r2, [sp, #96]	; 0x60
    84a8:	e1520004 	cmp	r2, r4
    84ac:	c2442001 	subgt	r2, r4, #1
    84b0:	e1a0c003 	mov	ip, r3
    84b4:	e2400002 	sub	r0, r0, #2
    84b8:	e350000e 	cmp	r0, #14
    84bc:	979ff100 	ldrls	pc, [pc, r0, lsl #2]
    84c0:	ea000050 	b	8608 <emit+0x174>
    84c4:	000085e0 	andeq	r8, r0, r0, ror #11
    84c8:	00008608 	andeq	r8, r0, r8, lsl #12
    84cc:	00008608 	andeq	r8, r0, r8, lsl #12
    84d0:	00008608 	andeq	r8, r0, r8, lsl #12
    84d4:	00008608 	andeq	r8, r0, r8, lsl #12
    84d8:	00008608 	andeq	r8, r0, r8, lsl #12
    84dc:	000085d4 	ldrdeq	r8, [r0], -r4
    84e0:	00008608 	andeq	r8, r0, r8, lsl #12
    84e4:	00008500 	andeq	r8, r0, r0, lsl #10
    84e8:	00008608 	andeq	r8, r0, r8, lsl #12
    84ec:	00008608 	andeq	r8, r0, r8, lsl #12
    84f0:	00008608 	andeq	r8, r0, r8, lsl #12
    84f4:	00008608 	andeq	r8, r0, r8, lsl #12
    84f8:	00008608 	andeq	r8, r0, r8, lsl #12
    84fc:	00008578 	andeq	r8, r0, r8, ror r5
    8500:	e59d1064 	ldr	r1, [sp, #100]	; 0x64
    8504:	e2511000 	subs	r1, r1, #0
    8508:	13a01001 	movne	r1, #1
    850c:	e0111fa3 	ands	r1, r1, r3, lsr #31
    8510:	0a000016 	beq	8570 <emit+0xdc>
    8514:	e263c000 	rsb	ip, r3, #0
    8518:	e3a06001 	mov	r6, #1
    851c:	e28d0008 	add	r0, sp, #8
    8520:	e59f3100 	ldr	r3, [pc, #256]	; 8628 <emit+0x194>
    8524:	e0831c93 	umull	r1, r3, r3, ip
    8528:	e1a031a3 	lsr	r3, r3, #3
    852c:	e1a0e003 	mov	lr, r3
    8530:	e0833103 	add	r3, r3, r3, lsl #2
    8534:	e04c3083 	sub	r3, ip, r3, lsl #1
    8538:	e1a01000 	mov	r1, r0
    853c:	e2800001 	add	r0, r0, #1
    8540:	e59f70e4 	ldr	r7, [pc, #228]	; 862c <emit+0x198>
    8544:	e7d73003 	ldrb	r3, [r7, r3]
    8548:	e5c13000 	strb	r3, [r1]
    854c:	e1a0300c 	mov	r3, ip
    8550:	e1a0c00e 	mov	ip, lr
    8554:	e3530009 	cmp	r3, #9
    8558:	8afffff0 	bhi	8520 <emit+0x8c>
    855c:	e3560000 	cmp	r6, #0
    8560:	13a0302d 	movne	r3, #45	; 0x2d
    8564:	15c03000 	strbne	r3, [r0]
    8568:	12810002 	addne	r0, r1, #2
    856c:	ea00000f 	b	85b0 <emit+0x11c>
    8570:	e3a06000 	mov	r6, #0
    8574:	eaffffe8 	b	851c <emit+0x88>
    8578:	e28d1008 	add	r1, sp, #8
    857c:	e20c000f 	and	r0, ip, #15
    8580:	e59fe0a8 	ldr	lr, [pc, #168]	; 8630 <emit+0x19c>
    8584:	e7de0000 	ldrb	r0, [lr, r0]
    8588:	e5c10000 	strb	r0, [r1]
    858c:	e2811001 	add	r1, r1, #1
    8590:	e35c000f 	cmp	ip, #15
    8594:	e1a0c22c 	lsr	ip, ip, #4
    8598:	8afffff7 	bhi	857c <emit+0xe8>
    859c:	e1a00001 	mov	r0, r1
    85a0:	e3a03078 	mov	r3, #120	; 0x78
    85a4:	e4c03002 	strb	r3, [r0], #2
    85a8:	e3a03030 	mov	r3, #48	; 0x30
    85ac:	e5c13001 	strb	r3, [r1, #1]
    85b0:	e28d1008 	add	r1, sp, #8
    85b4:	ebffff9d 	bl	8430 <pad>
    85b8:	e1a02000 	mov	r2, r0
    85bc:	e28d3008 	add	r3, sp, #8
    85c0:	e1a01004 	mov	r1, r4
    85c4:	e1a00005 	mov	r0, r5
    85c8:	ebffffa2 	bl	8458 <reverse>
    85cc:	e28dd04c 	add	sp, sp, #76	; 0x4c
    85d0:	e8bd80f0 	pop	{r4, r5, r6, r7, pc}
    85d4:	e5cd3008 	strb	r3, [sp, #8]
    85d8:	e28d0009 	add	r0, sp, #9
    85dc:	eafffff3 	b	85b0 <emit+0x11c>
    85e0:	e28d0008 	add	r0, sp, #8
    85e4:	e20c1001 	and	r1, ip, #1
    85e8:	e59fe044 	ldr	lr, [pc, #68]	; 8634 <emit+0x1a0>
    85ec:	e7de1001 	ldrb	r1, [lr, r1]
    85f0:	e5c01000 	strb	r1, [r0]
    85f4:	e2800001 	add	r0, r0, #1
    85f8:	e35c0001 	cmp	ip, #1
    85fc:	e1a0c0ac 	lsr	ip, ip, #1
    8600:	8afffff7 	bhi	85e4 <emit+0x150>
    8604:	eaffffe9 	b	85b0 <emit+0x11c>
    8608:	e59f3028 	ldr	r3, [pc, #40]	; 8638 <emit+0x1a4>
    860c:	e58d3000 	str	r3, [sp]
    8610:	e3a03079 	mov	r3, #121	; 0x79
    8614:	e59f2020 	ldr	r2, [pc, #32]	; 863c <emit+0x1a8>
    8618:	e59f1020 	ldr	r1, [pc, #32]	; 8640 <emit+0x1ac>
    861c:	e59f0020 	ldr	r0, [pc, #32]	; 8644 <emit+0x1b0>
    8620:	ebffff4b 	bl	8354 <printk>
    8624:	eb00014e 	bl	8b64 <clean_reboot>
    8628:	cccccccd 	stclgt	12, cr12, [ip], {205}	; 0xcd
    862c:	00009034 	andeq	r9, r0, r4, lsr r0
    8630:	00009040 	andeq	r9, r0, r0, asr #32
    8634:	00009054 	andeq	r9, r0, r4, asr r0
    8638:	00009030 	andeq	r9, r0, r0, lsr r0
    863c:	00009160 	andeq	r9, r0, r0, ror #2
    8640:	00009008 	andeq	r9, r0, r8
    8644:	0000901c 	andeq	r9, r0, ip, lsl r0

00008648 <rpi_set_output>:
    8648:	e3500000 	cmp	r0, #0
    864c:	0a000006 	beq	866c <rpi_set_output+0x24>
    8650:	e59f303c 	ldr	r3, [pc, #60]	; 8694 <rpi_set_output+0x4c>
    8654:	e5830000 	str	r0, [r3]
    8658:	e3510000 	cmp	r1, #0
    865c:	012fff1e 	bxeq	lr
    8660:	e59f3030 	ldr	r3, [pc, #48]	; 8698 <rpi_set_output+0x50>
    8664:	e5831000 	str	r1, [r3]
    8668:	e12fff1e 	bx	lr
    866c:	e52de004 	push	{lr}		; (str lr, [sp, #-4]!)
    8670:	e24dd00c 	sub	sp, sp, #12
    8674:	e59f3020 	ldr	r3, [pc, #32]	; 869c <rpi_set_output+0x54>
    8678:	e58d3000 	str	r3, [sp]
    867c:	e3a03020 	mov	r3, #32
    8680:	e59f2018 	ldr	r2, [pc, #24]	; 86a0 <rpi_set_output+0x58>
    8684:	e59f1018 	ldr	r1, [pc, #24]	; 86a4 <rpi_set_output+0x5c>
    8688:	e59f0018 	ldr	r0, [pc, #24]	; 86a8 <rpi_set_output+0x60>
    868c:	ebffff30 	bl	8354 <printk>
    8690:	eb000133 	bl	8b64 <clean_reboot>
    8694:	00009194 	muleq	r0, r4, r1
    8698:	00009190 	muleq	r0, r0, r1
    869c:	00009058 	andeq	r9, r0, r8, asr r0
    86a0:	00009168 	andeq	r9, r0, r8, ror #2
    86a4:	00009008 	andeq	r9, r0, r8
    86a8:	0000901c 	andeq	r9, r0, ip, lsl r0

000086ac <va_printk>:
    86ac:	e92d4ff0 	push	{r4, r5, r6, r7, r8, r9, sl, fp, lr}
    86b0:	e24ddf45 	sub	sp, sp, #276	; 0x114
    86b4:	e1a09000 	mov	r9, r0
    86b8:	e58d2008 	str	r2, [sp, #8]
    86bc:	e58d300c 	str	r3, [sp, #12]
    86c0:	e2411001 	sub	r1, r1, #1
    86c4:	e0808001 	add	r8, r0, r1
    86c8:	e3a03000 	mov	r3, #0
    86cc:	e5c03000 	strb	r3, [r0]
    86d0:	e1a04000 	mov	r4, r0
    86d4:	e1a06002 	mov	r6, r2
    86d8:	ea000004 	b	86f0 <va_printk+0x44>
    86dc:	e5d62001 	ldrb	r2, [r6, #1]
    86e0:	e3520025 	cmp	r2, #37	; 0x25
    86e4:	1a00000b 	bne	8718 <va_printk+0x6c>
    86e8:	e4c43001 	strb	r3, [r4], #1
    86ec:	e2866002 	add	r6, r6, #2
    86f0:	e5d63000 	ldrb	r3, [r6]
    86f4:	e3530000 	cmp	r3, #0
    86f8:	0a000105 	beq	8b14 <va_printk+0x468>
    86fc:	e1540008 	cmp	r4, r8
    8700:	2a000103 	bcs	8b14 <va_printk+0x468>
    8704:	e3530025 	cmp	r3, #37	; 0x25
    8708:	0afffff3 	beq	86dc <va_printk+0x30>
    870c:	e2866001 	add	r6, r6, #1
    8710:	e4c43001 	strb	r3, [r4], #1
    8714:	eafffff5 	b	86f0 <va_printk+0x44>
    8718:	e2866001 	add	r6, r6, #1
    871c:	e3a05000 	mov	r5, #0
    8720:	ea000003 	b	8734 <va_printk+0x88>
    8724:	e0855105 	add	r5, r5, r5, lsl #2
    8728:	e0875085 	add	r5, r7, r5, lsl #1
    872c:	e2455030 	sub	r5, r5, #48	; 0x30
    8730:	e2866001 	add	r6, r6, #1
    8734:	e5d67000 	ldrb	r7, [r6]
    8738:	e1a00007 	mov	r0, r7
    873c:	ebffff36 	bl	841c <isdigit>
    8740:	e3500000 	cmp	r0, #0
    8744:	1afffff6 	bne	8724 <va_printk+0x78>
    8748:	e355001f 	cmp	r5, #31
    874c:	8a00001a 	bhi	87bc <va_printk+0x110>
    8750:	e2473062 	sub	r3, r7, #98	; 0x62
    8754:	e3530016 	cmp	r3, #22
    8758:	979ff103 	ldrls	pc, [pc, r3, lsl #2]
    875c:	ea0000d4 	b	8ab4 <va_printk+0x408>
    8760:	00008a38 	andeq	r8, r0, r8, lsr sl
    8764:	00008a80 	andeq	r8, r0, r0, lsl #21
    8768:	00008998 	muleq	r0, r8, r9
    876c:	00008ab4 			; <UNDEFINED> instruction: 0x00008ab4
    8770:	00008980 	andeq	r8, r0, r0, lsl #19
    8774:	00008ab4 			; <UNDEFINED> instruction: 0x00008ab4
    8778:	00008ab4 			; <UNDEFINED> instruction: 0x00008ab4
    877c:	00008ab4 			; <UNDEFINED> instruction: 0x00008ab4
    8780:	00008ab4 			; <UNDEFINED> instruction: 0x00008ab4
    8784:	00008ab4 			; <UNDEFINED> instruction: 0x00008ab4
    8788:	000087dc 	ldrdeq	r8, [r0], -ip
    878c:	00008ab4 			; <UNDEFINED> instruction: 0x00008ab4
    8790:	00008ab4 			; <UNDEFINED> instruction: 0x00008ab4
    8794:	00008ab4 			; <UNDEFINED> instruction: 0x00008ab4
    8798:	00008a04 	andeq	r8, r0, r4, lsl #20
    879c:	00008ab4 			; <UNDEFINED> instruction: 0x00008ab4
    87a0:	00008ab4 			; <UNDEFINED> instruction: 0x00008ab4
    87a4:	00008a6c 	andeq	r8, r0, ip, ror #20
    87a8:	00008ab4 			; <UNDEFINED> instruction: 0x00008ab4
    87ac:	000089d0 	ldrdeq	r8, [r0], -r0
    87b0:	00008ab4 			; <UNDEFINED> instruction: 0x00008ab4
    87b4:	00008ab4 			; <UNDEFINED> instruction: 0x00008ab4
    87b8:	00008a04 	andeq	r8, r0, r4, lsl #20
    87bc:	e59f3364 	ldr	r3, [pc, #868]	; 8b28 <va_printk+0x47c>
    87c0:	e58d3000 	str	r3, [sp]
    87c4:	e3a03098 	mov	r3, #152	; 0x98
    87c8:	e59f235c 	ldr	r2, [pc, #860]	; 8b2c <va_printk+0x480>
    87cc:	e59f135c 	ldr	r1, [pc, #860]	; 8b30 <va_printk+0x484>
    87d0:	e59f035c 	ldr	r0, [pc, #860]	; 8b34 <va_printk+0x488>
    87d4:	ebfffede 	bl	8354 <printk>
    87d8:	eb0000e1 	bl	8b64 <clean_reboot>
    87dc:	e3a02003 	mov	r2, #3
    87e0:	e59f1350 	ldr	r1, [pc, #848]	; 8b38 <va_printk+0x48c>
    87e4:	e1a00006 	mov	r0, r6
    87e8:	eb0001e0 	bl	8f70 <strncmp>
    87ec:	e3500000 	cmp	r0, #0
    87f0:	0a000005 	beq	880c <va_printk+0x160>
    87f4:	e3a02003 	mov	r2, #3
    87f8:	e59f133c 	ldr	r1, [pc, #828]	; 8b3c <va_printk+0x490>
    87fc:	e1a00006 	mov	r0, r6
    8800:	eb0001da 	bl	8f70 <strncmp>
    8804:	e3500000 	cmp	r0, #0
    8808:	1a000033 	bne	88dc <va_printk+0x230>
    880c:	e286b002 	add	fp, r6, #2
    8810:	e59d300c 	ldr	r3, [sp, #12]
    8814:	e2833007 	add	r3, r3, #7
    8818:	e3c33007 	bic	r3, r3, #7
    881c:	e2832008 	add	r2, r3, #8
    8820:	e58d200c 	str	r2, [sp, #12]
    8824:	e593a000 	ldr	sl, [r3]
    8828:	e5937004 	ldr	r7, [r3, #4]
    882c:	e1a01007 	mov	r1, r7
    8830:	e59f0308 	ldr	r0, [pc, #776]	; 8b40 <va_printk+0x494>
    8834:	ebfffec6 	bl	8354 <printk>
    8838:	e1a0100a 	mov	r1, sl
    883c:	e59f0300 	ldr	r0, [pc, #768]	; 8b44 <va_printk+0x498>
    8840:	ebfffec3 	bl	8354 <printk>
    8844:	e3a02003 	mov	r2, #3
    8848:	e59f12e8 	ldr	r1, [pc, #744]	; 8b38 <va_printk+0x48c>
    884c:	e1a00006 	mov	r0, r6
    8850:	eb0001c6 	bl	8f70 <strncmp>
    8854:	e3500000 	cmp	r0, #0
    8858:	0a000027 	beq	88fc <va_printk+0x250>
    885c:	e3a02003 	mov	r2, #3
    8860:	e59f12d4 	ldr	r1, [pc, #724]	; 8b3c <va_printk+0x490>
    8864:	e1a00006 	mov	r0, r6
    8868:	eb0001c0 	bl	8f70 <strncmp>
    886c:	e3500000 	cmp	r0, #0
    8870:	1a00003b 	bne	8964 <va_printk+0x2b8>
    8874:	e3a06000 	mov	r6, #0
    8878:	e58d6004 	str	r6, [sp, #4]
    887c:	e58d5000 	str	r5, [sp]
    8880:	e1a03007 	mov	r3, r7
    8884:	e3a02080 	mov	r2, #128	; 0x80
    8888:	e28d1010 	add	r1, sp, #16
    888c:	e3a0000a 	mov	r0, #10
    8890:	ebfffeff 	bl	8494 <emit>
    8894:	e1a07000 	mov	r7, r0
    8898:	e58d6004 	str	r6, [sp, #4]
    889c:	e58d5000 	str	r5, [sp]
    88a0:	e1a0300a 	mov	r3, sl
    88a4:	e3a02080 	mov	r2, #128	; 0x80
    88a8:	e28d1090 	add	r1, sp, #144	; 0x90
    88ac:	e3a0000a 	mov	r0, #10
    88b0:	ebfffef7 	bl	8494 <emit>
    88b4:	e59f128c 	ldr	r1, [pc, #652]	; 8b48 <va_printk+0x49c>
    88b8:	e28d0010 	add	r0, sp, #16
    88bc:	eb00019f 	bl	8f40 <strcmp>
    88c0:	e1500006 	cmp	r0, r6
    88c4:	1a000021 	bne	8950 <va_printk+0x2a4>
    88c8:	e28d1090 	add	r1, sp, #144	; 0x90
    88cc:	e28d0010 	add	r0, sp, #16
    88d0:	eb000185 	bl	8eec <strcpy>
    88d4:	e1a0600b 	mov	r6, fp
    88d8:	ea00003a 	b	89c8 <va_printk+0x31c>
    88dc:	e59f3268 	ldr	r3, [pc, #616]	; 8b4c <va_printk+0x4a0>
    88e0:	e58d3000 	str	r3, [sp]
    88e4:	e3a0309f 	mov	r3, #159	; 0x9f
    88e8:	e59f223c 	ldr	r2, [pc, #572]	; 8b2c <va_printk+0x480>
    88ec:	e59f123c 	ldr	r1, [pc, #572]	; 8b30 <va_printk+0x484>
    88f0:	e59f023c 	ldr	r0, [pc, #572]	; 8b34 <va_printk+0x488>
    88f4:	ebfffe96 	bl	8354 <printk>
    88f8:	eb000099 	bl	8b64 <clean_reboot>
    88fc:	e3a06000 	mov	r6, #0
    8900:	e58d6004 	str	r6, [sp, #4]
    8904:	e58d5000 	str	r5, [sp]
    8908:	e1a03007 	mov	r3, r7
    890c:	e3a02080 	mov	r2, #128	; 0x80
    8910:	e28d1010 	add	r1, sp, #16
    8914:	e3a00010 	mov	r0, #16
    8918:	ebfffedd 	bl	8494 <emit>
    891c:	e1a07000 	mov	r7, r0
    8920:	e58d6004 	str	r6, [sp, #4]
    8924:	e58d5000 	str	r5, [sp]
    8928:	e1a0300a 	mov	r3, sl
    892c:	e3a02080 	mov	r2, #128	; 0x80
    8930:	e28d1090 	add	r1, sp, #144	; 0x90
    8934:	e3a00010 	mov	r0, #16
    8938:	ebfffed5 	bl	8494 <emit>
    893c:	e28d1092 	add	r1, sp, #146	; 0x92
    8940:	e28d0010 	add	r0, sp, #16
    8944:	eb000170 	bl	8f0c <strcat>
    8948:	e1a0600b 	mov	r6, fp
    894c:	ea00001d 	b	89c8 <va_printk+0x31c>
    8950:	e28d1090 	add	r1, sp, #144	; 0x90
    8954:	e28d0010 	add	r0, sp, #16
    8958:	eb00016b 	bl	8f0c <strcat>
    895c:	e1a0600b 	mov	r6, fp
    8960:	ea000018 	b	89c8 <va_printk+0x31c>
    8964:	e58d6000 	str	r6, [sp]
    8968:	e3a030b6 	mov	r3, #182	; 0xb6
    896c:	e59f21b8 	ldr	r2, [pc, #440]	; 8b2c <va_printk+0x480>
    8970:	e59f11b8 	ldr	r1, [pc, #440]	; 8b30 <va_printk+0x484>
    8974:	e59f01d4 	ldr	r0, [pc, #468]	; 8b50 <va_printk+0x4a4>
    8978:	ebfffe75 	bl	8354 <printk>
    897c:	eb000078 	bl	8b64 <clean_reboot>
    8980:	e3a030be 	mov	r3, #190	; 0xbe
    8984:	e59f21a0 	ldr	r2, [pc, #416]	; 8b2c <va_printk+0x480>
    8988:	e59f11a0 	ldr	r1, [pc, #416]	; 8b30 <va_printk+0x484>
    898c:	e59f01c0 	ldr	r0, [pc, #448]	; 8b54 <va_printk+0x4a8>
    8990:	ebfffe6f 	bl	8354 <printk>
    8994:	eb000072 	bl	8b64 <clean_reboot>
    8998:	e59d300c 	ldr	r3, [sp, #12]
    899c:	e2832004 	add	r2, r3, #4
    89a0:	e58d200c 	str	r2, [sp, #12]
    89a4:	e5933000 	ldr	r3, [r3]
    89a8:	e3a02001 	mov	r2, #1
    89ac:	e58d2004 	str	r2, [sp, #4]
    89b0:	e58d5000 	str	r5, [sp]
    89b4:	e3a02080 	mov	r2, #128	; 0x80
    89b8:	e28d1010 	add	r1, sp, #16
    89bc:	e3a0000a 	mov	r0, #10
    89c0:	ebfffeb3 	bl	8494 <emit>
    89c4:	e1a07000 	mov	r7, r0
    89c8:	e2866001 	add	r6, r6, #1
    89cc:	ea00004a 	b	8afc <va_printk+0x450>
    89d0:	e59d300c 	ldr	r3, [sp, #12]
    89d4:	e2832004 	add	r2, r3, #4
    89d8:	e58d200c 	str	r2, [sp, #12]
    89dc:	e5933000 	ldr	r3, [r3]
    89e0:	e3a02000 	mov	r2, #0
    89e4:	e58d2004 	str	r2, [sp, #4]
    89e8:	e58d5000 	str	r5, [sp]
    89ec:	e3a02080 	mov	r2, #128	; 0x80
    89f0:	e28d1010 	add	r1, sp, #16
    89f4:	e3a0000a 	mov	r0, #10
    89f8:	ebfffea5 	bl	8494 <emit>
    89fc:	e1a07000 	mov	r7, r0
    8a00:	eafffff0 	b	89c8 <va_printk+0x31c>
    8a04:	e59d300c 	ldr	r3, [sp, #12]
    8a08:	e2832004 	add	r2, r3, #4
    8a0c:	e58d200c 	str	r2, [sp, #12]
    8a10:	e5933000 	ldr	r3, [r3]
    8a14:	e3a02000 	mov	r2, #0
    8a18:	e58d2004 	str	r2, [sp, #4]
    8a1c:	e58d5000 	str	r5, [sp]
    8a20:	e3a02080 	mov	r2, #128	; 0x80
    8a24:	e28d1010 	add	r1, sp, #16
    8a28:	e3a00010 	mov	r0, #16
    8a2c:	ebfffe98 	bl	8494 <emit>
    8a30:	e1a07000 	mov	r7, r0
    8a34:	eaffffe3 	b	89c8 <va_printk+0x31c>
    8a38:	e59d300c 	ldr	r3, [sp, #12]
    8a3c:	e2832004 	add	r2, r3, #4
    8a40:	e58d200c 	str	r2, [sp, #12]
    8a44:	e5933000 	ldr	r3, [r3]
    8a48:	e3a02000 	mov	r2, #0
    8a4c:	e58d2004 	str	r2, [sp, #4]
    8a50:	e58d5000 	str	r5, [sp]
    8a54:	e3a02080 	mov	r2, #128	; 0x80
    8a58:	e28d1010 	add	r1, sp, #16
    8a5c:	e3a00002 	mov	r0, #2
    8a60:	ebfffe8b 	bl	8494 <emit>
    8a64:	e1a07000 	mov	r7, r0
    8a68:	eaffffd6 	b	89c8 <va_printk+0x31c>
    8a6c:	e59d300c 	ldr	r3, [sp, #12]
    8a70:	e2832004 	add	r2, r3, #4
    8a74:	e58d200c 	str	r2, [sp, #12]
    8a78:	e5937000 	ldr	r7, [r3]
    8a7c:	eaffffd1 	b	89c8 <va_printk+0x31c>
    8a80:	e59d300c 	ldr	r3, [sp, #12]
    8a84:	e2832004 	add	r2, r3, #4
    8a88:	e58d200c 	str	r2, [sp, #12]
    8a8c:	e5933000 	ldr	r3, [r3]
    8a90:	e3a02000 	mov	r2, #0
    8a94:	e58d2004 	str	r2, [sp, #4]
    8a98:	e58d5000 	str	r5, [sp]
    8a9c:	e3a02080 	mov	r2, #128	; 0x80
    8aa0:	e28d1010 	add	r1, sp, #16
    8aa4:	e3a00008 	mov	r0, #8
    8aa8:	ebfffe79 	bl	8494 <emit>
    8aac:	e1a07000 	mov	r7, r0
    8ab0:	eaffffc4 	b	89c8 <va_printk+0x31c>
    8ab4:	e3a03000 	mov	r3, #0
    8ab8:	e5c63001 	strb	r3, [r6, #1]
    8abc:	e1a02007 	mov	r2, r7
    8ac0:	e1a01007 	mov	r1, r7
    8ac4:	e59f008c 	ldr	r0, [pc, #140]	; 8b58 <va_printk+0x4ac>
    8ac8:	ebfffe21 	bl	8354 <printk>
    8acc:	e59f3088 	ldr	r3, [pc, #136]	; 8b5c <va_printk+0x4b0>
    8ad0:	e5933000 	ldr	r3, [r3]
    8ad4:	e59d0008 	ldr	r0, [sp, #8]
    8ad8:	e12fff33 	blx	r3
    8adc:	e3a030e2 	mov	r3, #226	; 0xe2
    8ae0:	e59f2044 	ldr	r2, [pc, #68]	; 8b2c <va_printk+0x480>
    8ae4:	e59f1044 	ldr	r1, [pc, #68]	; 8b30 <va_printk+0x484>
    8ae8:	e59f0070 	ldr	r0, [pc, #112]	; 8b60 <va_printk+0x4b4>
    8aec:	ebfffe18 	bl	8354 <printk>
    8af0:	eb00001b 	bl	8b64 <clean_reboot>
    8af4:	e2877001 	add	r7, r7, #1
    8af8:	e4c43001 	strb	r3, [r4], #1
    8afc:	e1540008 	cmp	r4, r8
    8b00:	2afffefa 	bcs	86f0 <va_printk+0x44>
    8b04:	e5d73000 	ldrb	r3, [r7]
    8b08:	e3530000 	cmp	r3, #0
    8b0c:	1afffff8 	bne	8af4 <va_printk+0x448>
    8b10:	eafffef6 	b	86f0 <va_printk+0x44>
    8b14:	e3a03000 	mov	r3, #0
    8b18:	e4c43001 	strb	r3, [r4], #1
    8b1c:	e0440009 	sub	r0, r4, r9
    8b20:	e28ddf45 	add	sp, sp, #276	; 0x114
    8b24:	e8bd8ff0 	pop	{r4, r5, r6, r7, r8, r9, sl, fp, pc}
    8b28:	00009060 	andeq	r9, r0, r0, rrx
    8b2c:	00009178 	andeq	r9, r0, r8, ror r1
    8b30:	00009008 	andeq	r9, r0, r8
    8b34:	0000901c 	andeq	r9, r0, ip, lsl r0
    8b38:	0000906c 	andeq	r9, r0, ip, rrx
    8b3c:	00009070 	andeq	r9, r0, r0, ror r0
    8b40:	00009074 	andeq	r9, r0, r4, ror r0
    8b44:	0000907c 	andeq	r9, r0, ip, ror r0
    8b48:	00009030 	andeq	r9, r0, r0, lsr r0
    8b4c:	00009084 	andeq	r9, r0, r4, lsl #1
    8b50:	000090c0 	andeq	r9, r0, r0, asr #1
    8b54:	000090e8 	andeq	r9, r0, r8, ror #1
    8b58:	00009110 	andeq	r9, r0, r0, lsl r1
    8b5c:	00009190 	muleq	r0, r0, r1
    8b60:	00009140 	andeq	r9, r0, r0, asr #2

00008b64 <clean_reboot>:
    8b64:	e92d4010 	push	{r4, lr}
    8b68:	e59f3018 	ldr	r3, [pc, #24]	; 8b88 <clean_reboot+0x24>
    8b6c:	e5933000 	ldr	r3, [r3]
    8b70:	e59f0014 	ldr	r0, [pc, #20]	; 8b8c <clean_reboot+0x28>
    8b74:	e12fff33 	blx	r3
    8b78:	eb0000cd 	bl	8eb4 <uart_flush_tx>
    8b7c:	e3a0000a 	mov	r0, #10
    8b80:	eb000051 	bl	8ccc <delay_ms>
    8b84:	eb000024 	bl	8c1c <rpi_reboot>
    8b88:	00009190 	muleq	r0, r0, r1
    8b8c:	00009184 	andeq	r9, r0, r4, lsl #3

00008b90 <_cstart>:
    8b90:	e92d4010 	push	{r4, lr}
    8b94:	eb000036 	bl	8c74 <custom_loader>
    8b98:	e59f3028 	ldr	r3, [pc, #40]	; 8bc8 <_cstart+0x38>
    8b9c:	ea000001 	b	8ba8 <_cstart+0x18>
    8ba0:	e3a02000 	mov	r2, #0
    8ba4:	e4832004 	str	r2, [r3], #4
    8ba8:	e59f201c 	ldr	r2, [pc, #28]	; 8bcc <_cstart+0x3c>
    8bac:	e1530002 	cmp	r3, r2
    8bb0:	3afffffa 	bcc	8ba0 <_cstart+0x10>
    8bb4:	eb000060 	bl	8d3c <uart_init>
    8bb8:	e3a03001 	mov	r3, #1
    8bbc:	ee0f3f1c 	mcr	15, 0, r3, cr15, cr12, {0}
    8bc0:	ebfffd55 	bl	811c <notmain>
    8bc4:	ebffffe6 	bl	8b64 <clean_reboot>
    8bc8:	00009198 	muleq	r0, r8, r1
    8bcc:	00009598 	muleq	r0, r8, r5

00008bd0 <enable_cache>:
    8bd0:	ee113f10 	mrc	15, 0, r3, cr1, cr0, {0}
    8bd4:	e3833b06 	orr	r3, r3, #6144	; 0x1800
    8bd8:	ee013f10 	mcr	15, 0, r3, cr1, cr0, {0}
    8bdc:	e12fff1e 	bx	lr

00008be0 <disable_cache>:
    8be0:	ee113f10 	mrc	15, 0, r3, cr1, cr0, {0}
    8be4:	e3c33b06 	bic	r3, r3, #6144	; 0x1800
    8be8:	ee013f10 	mcr	15, 0, r3, cr1, cr0, {0}
    8bec:	e12fff1e 	bx	lr

00008bf0 <at_user_level>:
    8bf0:	e10f0000 	mrs	r0, CPSR
    8bf4:	e200001f 	and	r0, r0, #31
    8bf8:	e3500010 	cmp	r0, #16
    8bfc:	13a00000 	movne	r0, #0
    8c00:	03a00001 	moveq	r0, #1
    8c04:	e12fff1e 	bx	lr

00008c08 <set_user_level>:
    8c08:	e10f3000 	mrs	r3, CPSR
    8c0c:	e3c3301f 	bic	r3, r3, #31
    8c10:	e3833010 	orr	r3, r3, #16
    8c14:	e129f003 	msr	CPSR_fc, r3
    8c18:	e12fff1e 	bx	lr

00008c1c <rpi_reboot>:
    8c1c:	e92d4010 	push	{r4, lr}
    8c20:	ebfffff2 	bl	8bf0 <at_user_level>
    8c24:	e3500000 	cmp	r0, #0
    8c28:	1a00000a 	bne	8c58 <rpi_reboot+0x3c>
    8c2c:	eb00000f 	bl	8c70 <reboot_callout>
    8c30:	eb00009f 	bl	8eb4 <uart_flush_tx>
    8c34:	e3a0000a 	mov	r0, #10
    8c38:	eb000023 	bl	8ccc <delay_ms>
    8c3c:	e59f101c 	ldr	r1, [pc, #28]	; 8c60 <rpi_reboot+0x44>
    8c40:	e59f001c 	ldr	r0, [pc, #28]	; 8c64 <rpi_reboot+0x48>
    8c44:	ebfffcf6 	bl	8024 <PUT32>
    8c48:	e59f1018 	ldr	r1, [pc, #24]	; 8c68 <rpi_reboot+0x4c>
    8c4c:	e59f0018 	ldr	r0, [pc, #24]	; 8c6c <rpi_reboot+0x50>
    8c50:	ebfffcf3 	bl	8024 <PUT32>
    8c54:	eafffffe 	b	8c54 <rpi_reboot+0x38>
    8c58:	ebffffea 	bl	8c08 <set_user_level>
    8c5c:	eafffff2 	b	8c2c <rpi_reboot+0x10>
    8c60:	5a000001 	bpl	8c6c <rpi_reboot+0x50>
    8c64:	20100024 	andscs	r0, r0, r4, lsr #32
    8c68:	5a000020 	bpl	8cf0 <delay_sec+0xc>
    8c6c:	2010001c 	andscs	r0, r0, ip, lsl r0

00008c70 <reboot_callout>:
    8c70:	e12fff1e 	bx	lr

00008c74 <custom_loader>:
    8c74:	e12fff1e 	bx	lr

00008c78 <timer_get_usec_raw>:
    8c78:	e92d4010 	push	{r4, lr}
    8c7c:	e59f0004 	ldr	r0, [pc, #4]	; 8c88 <timer_get_usec_raw+0x10>
    8c80:	ebfffce9 	bl	802c <GET32>
    8c84:	e8bd8010 	pop	{r4, pc}
    8c88:	20003004 	andcs	r3, r0, r4

00008c8c <timer_get_usec>:
    8c8c:	e92d4010 	push	{r4, lr}
    8c90:	eb0000c1 	bl	8f9c <dev_barrier>
    8c94:	ebfffff7 	bl	8c78 <timer_get_usec_raw>
    8c98:	e1a04000 	mov	r4, r0
    8c9c:	eb0000be 	bl	8f9c <dev_barrier>
    8ca0:	e1a00004 	mov	r0, r4
    8ca4:	e8bd8010 	pop	{r4, pc}

00008ca8 <delay_us>:
    8ca8:	e92d4070 	push	{r4, r5, r6, lr}
    8cac:	e1a05000 	mov	r5, r0
    8cb0:	ebfffff5 	bl	8c8c <timer_get_usec>
    8cb4:	e1a04000 	mov	r4, r0
    8cb8:	ebfffff3 	bl	8c8c <timer_get_usec>
    8cbc:	e0400004 	sub	r0, r0, r4
    8cc0:	e1500005 	cmp	r0, r5
    8cc4:	3afffffb 	bcc	8cb8 <delay_us+0x10>
    8cc8:	e8bd8070 	pop	{r4, r5, r6, pc}

00008ccc <delay_ms>:
    8ccc:	e92d4010 	push	{r4, lr}
    8cd0:	e0603280 	rsb	r3, r0, r0, lsl #5
    8cd4:	e0800103 	add	r0, r0, r3, lsl #2
    8cd8:	e1a00180 	lsl	r0, r0, #3
    8cdc:	ebfffff1 	bl	8ca8 <delay_us>
    8ce0:	e8bd8010 	pop	{r4, pc}

00008ce4 <delay_sec>:
    8ce4:	e92d4010 	push	{r4, lr}
    8ce8:	e0603280 	rsb	r3, r0, r0, lsl #5
    8cec:	e0800103 	add	r0, r0, r3, lsl #2
    8cf0:	e1a00180 	lsl	r0, r0, #3
    8cf4:	ebfffff4 	bl	8ccc <delay_ms>
    8cf8:	e8bd8010 	pop	{r4, pc}

00008cfc <and_in32>:
    8cfc:	e92d4070 	push	{r4, r5, r6, lr}
    8d00:	e1a04000 	mov	r4, r0
    8d04:	e1a05001 	mov	r5, r1
    8d08:	ebfffcc7 	bl	802c <GET32>
    8d0c:	e0001005 	and	r1, r0, r5
    8d10:	e1a00004 	mov	r0, r4
    8d14:	ebfffcc2 	bl	8024 <PUT32>
    8d18:	e8bd8070 	pop	{r4, r5, r6, pc}

00008d1c <or_in32>:
    8d1c:	e92d4070 	push	{r4, r5, r6, lr}
    8d20:	e1a04000 	mov	r4, r0
    8d24:	e1a05001 	mov	r5, r1
    8d28:	ebfffcbf 	bl	802c <GET32>
    8d2c:	e1801005 	orr	r1, r0, r5
    8d30:	e1a00004 	mov	r0, r4
    8d34:	ebfffcba 	bl	8024 <PUT32>
    8d38:	e8bd8070 	pop	{r4, r5, r6, pc}

00008d3c <uart_init>:
    8d3c:	e92d4010 	push	{r4, lr}
    8d40:	e3a01002 	mov	r1, #2
    8d44:	e3a0000e 	mov	r0, #14
    8d48:	ebfffd3a 	bl	8238 <gpio_set_function>
    8d4c:	e3a01002 	mov	r1, #2
    8d50:	e3a0000f 	mov	r0, #15
    8d54:	ebfffd37 	bl	8238 <gpio_set_function>
    8d58:	eb00008f 	bl	8f9c <dev_barrier>
    8d5c:	e3a01001 	mov	r1, #1
    8d60:	e59f0064 	ldr	r0, [pc, #100]	; 8dcc <uart_init+0x90>
    8d64:	ebffffec 	bl	8d1c <or_in32>
    8d68:	eb00008b 	bl	8f9c <dev_barrier>
    8d6c:	e59f405c 	ldr	r4, [pc, #92]	; 8dd0 <uart_init+0x94>
    8d70:	e3a01000 	mov	r1, #0
    8d74:	e1a00004 	mov	r0, r4
    8d78:	ebfffca9 	bl	8024 <PUT32>
    8d7c:	e3a01000 	mov	r1, #0
    8d80:	e59f004c 	ldr	r0, [pc, #76]	; 8dd4 <uart_init+0x98>
    8d84:	ebfffca6 	bl	8024 <PUT32>
    8d88:	e3a01003 	mov	r1, #3
    8d8c:	e59f0044 	ldr	r0, [pc, #68]	; 8dd8 <uart_init+0x9c>
    8d90:	ebfffca3 	bl	8024 <PUT32>
    8d94:	e3a01000 	mov	r1, #0
    8d98:	e59f003c 	ldr	r0, [pc, #60]	; 8ddc <uart_init+0xa0>
    8d9c:	ebfffca0 	bl	8024 <PUT32>
    8da0:	e3a010c7 	mov	r1, #199	; 0xc7
    8da4:	e59f0034 	ldr	r0, [pc, #52]	; 8de0 <uart_init+0xa4>
    8da8:	ebfffc9d 	bl	8024 <PUT32>
    8dac:	e59f1030 	ldr	r1, [pc, #48]	; 8de4 <uart_init+0xa8>
    8db0:	e59f0030 	ldr	r0, [pc, #48]	; 8de8 <uart_init+0xac>
    8db4:	ebfffc9a 	bl	8024 <PUT32>
    8db8:	e3a01003 	mov	r1, #3
    8dbc:	e1a00004 	mov	r0, r4
    8dc0:	ebfffc97 	bl	8024 <PUT32>
    8dc4:	eb000074 	bl	8f9c <dev_barrier>
    8dc8:	e8bd8010 	pop	{r4, pc}
    8dcc:	20215004 	eorcs	r5, r1, r4
    8dd0:	20215060 	eorcs	r5, r1, r0, rrx
    8dd4:	20215044 	eorcs	r5, r1, r4, asr #32
    8dd8:	2021504c 	eorcs	r5, r1, ip, asr #32
    8ddc:	20215050 	eorcs	r5, r1, r0, asr r0
    8de0:	20215048 	eorcs	r5, r1, r8, asr #32
    8de4:	0000010e 	andeq	r0, r0, lr, lsl #2
    8de8:	20215068 	eorcs	r5, r1, r8, rrx

00008dec <uart_can_getc>:
    8dec:	e92d4010 	push	{r4, lr}
    8df0:	e59f0008 	ldr	r0, [pc, #8]	; 8e00 <uart_can_getc+0x14>
    8df4:	ebfffc8c 	bl	802c <GET32>
    8df8:	e2000001 	and	r0, r0, #1
    8dfc:	e8bd8010 	pop	{r4, pc}
    8e00:	20215064 	eorcs	r5, r1, r4, rrx

00008e04 <uart_can_putc>:
    8e04:	e92d4010 	push	{r4, lr}
    8e08:	e59f0010 	ldr	r0, [pc, #16]	; 8e20 <uart_can_putc+0x1c>
    8e0c:	ebfffc86 	bl	802c <GET32>
    8e10:	e3100002 	tst	r0, #2
    8e14:	13a00001 	movne	r0, #1
    8e18:	03a00000 	moveq	r0, #0
    8e1c:	e8bd8010 	pop	{r4, pc}
    8e20:	20215064 	eorcs	r5, r1, r4, rrx

00008e24 <uart_getc>:
    8e24:	e92d4010 	push	{r4, lr}
    8e28:	eb00005b 	bl	8f9c <dev_barrier>
    8e2c:	ebffffee 	bl	8dec <uart_can_getc>
    8e30:	e3500000 	cmp	r0, #0
    8e34:	0afffffc 	beq	8e2c <uart_getc+0x8>
    8e38:	e59f0010 	ldr	r0, [pc, #16]	; 8e50 <uart_getc+0x2c>
    8e3c:	ebfffc7a 	bl	802c <GET32>
    8e40:	e6ef4070 	uxtb	r4, r0
    8e44:	eb000054 	bl	8f9c <dev_barrier>
    8e48:	e1a00004 	mov	r0, r4
    8e4c:	e8bd8010 	pop	{r4, pc}
    8e50:	20215040 	eorcs	r5, r1, r0, asr #32

00008e54 <uart_putc>:
    8e54:	e92d4010 	push	{r4, lr}
    8e58:	e1a04000 	mov	r4, r0
    8e5c:	eb00004e 	bl	8f9c <dev_barrier>
    8e60:	ebffffe7 	bl	8e04 <uart_can_putc>
    8e64:	e3500000 	cmp	r0, #0
    8e68:	0afffffc 	beq	8e60 <uart_putc+0xc>
    8e6c:	e6ef1074 	uxtb	r1, r4
    8e70:	e59f0008 	ldr	r0, [pc, #8]	; 8e80 <uart_putc+0x2c>
    8e74:	ebfffc6a 	bl	8024 <PUT32>
    8e78:	eb000047 	bl	8f9c <dev_barrier>
    8e7c:	e8bd8010 	pop	{r4, pc}
    8e80:	20215040 	eorcs	r5, r1, r0, asr #32

00008e84 <uart_has_data>:
    8e84:	e92d4010 	push	{r4, lr}
    8e88:	eb000043 	bl	8f9c <dev_barrier>
    8e8c:	ebffffd6 	bl	8dec <uart_can_getc>
    8e90:	e8bd8010 	pop	{r4, pc}

00008e94 <uart_tx_is_empty>:
    8e94:	e92d4010 	push	{r4, lr}
    8e98:	eb00003f 	bl	8f9c <dev_barrier>
    8e9c:	e59f000c 	ldr	r0, [pc, #12]	; 8eb0 <uart_tx_is_empty+0x1c>
    8ea0:	ebfffc61 	bl	802c <GET32>
    8ea4:	e1a004a0 	lsr	r0, r0, #9
    8ea8:	e2000001 	and	r0, r0, #1
    8eac:	e8bd8010 	pop	{r4, pc}
    8eb0:	20215064 	eorcs	r5, r1, r4, rrx

00008eb4 <uart_flush_tx>:
    8eb4:	e92d4010 	push	{r4, lr}
    8eb8:	ebfffff5 	bl	8e94 <uart_tx_is_empty>
    8ebc:	e3500000 	cmp	r0, #0
    8ec0:	0afffffc 	beq	8eb8 <uart_flush_tx+0x4>
    8ec4:	e8bd8010 	pop	{r4, pc}

00008ec8 <uart_disable>:
    8ec8:	e92d4010 	push	{r4, lr}
    8ecc:	ebfffff8 	bl	8eb4 <uart_flush_tx>
    8ed0:	eb000031 	bl	8f9c <dev_barrier>
    8ed4:	e3e01001 	mvn	r1, #1
    8ed8:	e59f0008 	ldr	r0, [pc, #8]	; 8ee8 <uart_disable+0x20>
    8edc:	ebffff86 	bl	8cfc <and_in32>
    8ee0:	eb00002d 	bl	8f9c <dev_barrier>
    8ee4:	e8bd8010 	pop	{r4, pc}
    8ee8:	20215004 	eorcs	r5, r1, r4

00008eec <strcpy>:
    8eec:	e1a0c000 	mov	ip, r0
    8ef0:	e5d12000 	ldrb	r2, [r1]
    8ef4:	e2811001 	add	r1, r1, #1
    8ef8:	e5cc2000 	strb	r2, [ip]
    8efc:	e28cc001 	add	ip, ip, #1
    8f00:	e3520000 	cmp	r2, #0
    8f04:	1afffff9 	bne	8ef0 <strcpy+0x4>
    8f08:	e12fff1e 	bx	lr

00008f0c <strcat>:
    8f0c:	e1a02000 	mov	r2, r0
    8f10:	e1a03002 	mov	r3, r2
    8f14:	e2822001 	add	r2, r2, #1
    8f18:	e5d3c000 	ldrb	ip, [r3]
    8f1c:	e35c0000 	cmp	ip, #0
    8f20:	1afffffa 	bne	8f10 <strcat+0x4>
    8f24:	e2433001 	sub	r3, r3, #1
    8f28:	e5d12000 	ldrb	r2, [r1]
    8f2c:	e2811001 	add	r1, r1, #1
    8f30:	e5e32001 	strb	r2, [r3, #1]!
    8f34:	e3520000 	cmp	r2, #0
    8f38:	1afffffa 	bne	8f28 <strcat+0x1c>
    8f3c:	e12fff1e 	bx	lr

00008f40 <strcmp>:
    8f40:	ea000001 	b	8f4c <strcmp+0xc>
    8f44:	e2800001 	add	r0, r0, #1
    8f48:	e2811001 	add	r1, r1, #1
    8f4c:	e5d03000 	ldrb	r3, [r0]
    8f50:	e3530000 	cmp	r3, #0
    8f54:	0a000002 	beq	8f64 <strcmp+0x24>
    8f58:	e5d12000 	ldrb	r2, [r1]
    8f5c:	e1530002 	cmp	r3, r2
    8f60:	0afffff7 	beq	8f44 <strcmp+0x4>
    8f64:	e5d10000 	ldrb	r0, [r1]
    8f68:	e0430000 	sub	r0, r3, r0
    8f6c:	e12fff1e 	bx	lr

00008f70 <strncmp>:
    8f70:	e3520000 	cmp	r2, #0
    8f74:	e2422001 	sub	r2, r2, #1
    8f78:	0a000005 	beq	8f94 <strncmp+0x24>
    8f7c:	e4d03001 	ldrb	r3, [r0], #1
    8f80:	e4d1c001 	ldrb	ip, [r1], #1
    8f84:	e153000c 	cmp	r3, ip
    8f88:	0afffff8 	beq	8f70 <strncmp>
    8f8c:	e043000c 	sub	r0, r3, ip
    8f90:	e12fff1e 	bx	lr
    8f94:	e3a00000 	mov	r0, #0
    8f98:	e12fff1e 	bx	lr

00008f9c <dev_barrier>:
    8f9c:	ea000002 	b	8fac <dsb>

00008fa0 <dmb>:
    8fa0:	e3a00000 	mov	r0, #0
    8fa4:	ee070fba 	mcr	15, 0, r0, cr7, cr10, {5}
    8fa8:	e12fff1e 	bx	lr

00008fac <dsb>:
    8fac:	ee070f9a 	mcr	15, 0, r0, cr7, cr10, {4}
    8fb0:	e12fff1e 	bx	lr

00008fb4 <__code_end__>:
    8fb4:	00000000 	andeq	r0, r0, r0

Disassembly of section .rodata:

00008fb8 <__FUNCTION__.0-0x1a8>:
    8fb8:	656d6974 	strbvs	r6, [sp, #-2420]!	; 0xfffff68c
    8fbc:	2174756f 	cmncs	r4, pc, ror #10
    8fc0:	61747320 	cmnvs	r4, r0, lsr #6
    8fc4:	253d7472 	ldrcs	r7, [sp, #-1138]!	; 0xfffffb8e
    8fc8:	00000a64 	andeq	r0, r0, r4, ror #20
    8fcc:	3a642520 	bcc	1912454 <__bss_end__+0x1908ebc>
    8fd0:	6c617620 	stclvs	6, cr7, [r1], #-128	; 0xffffff80
    8fd4:	2c64253d 	cfstr64cs	mvdx2, [r4], #-244	; 0xffffff0c
    8fd8:	6d697420 	cfstrdvs	mvd7, [r9, #-128]!	; 0xffffff80
    8fdc:	64253d65 	strtvs	r3, [r5], #-3429	; 0xfffff29b
    8fe0:	6f74202c 	svcvs	0x0074202c
    8fe4:	64253d74 	strtvs	r3, [r5], #-3444	; 0xfffff28c
    8fe8:	7865203a 	stmdavc	r5!, {r1, r3, r4, r5, sp}^
    8fec:	64253d70 	strtvs	r3, [r5], #-3440	; 0xfffff290
    8ff0:	72652820 	rsbvc	r2, r5, #32, 16	; 0x200000
    8ff4:	64253d72 	strtvs	r3, [r5], #-3442	; 0xfffff28e
    8ff8:	6f74202c 	svcvs	0x0074202c
    8ffc:	72726574 	rsbsvc	r6, r2, #116, 10	; 0x1d000000
    9000:	2964253d 	stmdbcs	r4!, {r0, r2, r3, r4, r5, r8, sl, sp}^
    9004:	0000000a 	andeq	r0, r0, sl
    9008:	696c2f2e 	stmdbvs	ip!, {r1, r2, r3, r5, r8, r9, sl, fp, sp}^
    900c:	762f6362 	strtvc	r6, [pc], -r2, ror #6
    9010:	72702d61 	rsbsvc	r2, r0, #6208	; 0x1840
    9014:	6b746e69 	blvs	1d249c0 <__bss_end__+0x1d1b428>
    9018:	0000632e 	andeq	r6, r0, lr, lsr #6
    901c:	494e4150 	stmdbmi	lr, {r4, r6, r8, lr}^
    9020:	73253a43 			; <UNDEFINED> instruction: 0x73253a43
    9024:	3a73253a 	bcc	1cd2514 <__bss_end__+0x1cc8f7c>
    9028:	253a6425 	ldrcs	r6, [sl, #-1061]!	; 0xfffffbdb
    902c:	00000a73 	andeq	r0, r0, r3, ror sl
    9030:	00000030 	andeq	r0, r0, r0, lsr r0
    9034:	33323130 	teqcc	r2, #48, 2
    9038:	37363534 			; <UNDEFINED> instruction: 0x37363534
    903c:	00003938 	andeq	r3, r0, r8, lsr r9
    9040:	33323130 	teqcc	r2, #48, 2
    9044:	37363534 			; <UNDEFINED> instruction: 0x37363534
    9048:	62613938 	rsbvs	r3, r1, #56, 18	; 0xe0000
    904c:	66656463 	strbtvs	r6, [r5], -r3, ror #8
    9050:	00000000 	andeq	r0, r0, r0
    9054:	00003130 	andeq	r3, r0, r0, lsr r1
    9058:	63747570 	cmnvs	r4, #112, 10	; 0x1c000000
    905c:	0070665f 	rsbseq	r6, r0, pc, asr r6
    9060:	74646977 	strbtvc	r6, [r4], #-2423	; 0xfffff689
    9064:	203c2068 	eorscs	r2, ip, r8, rrx
    9068:	00003233 	andeq	r3, r0, r3, lsr r2
    906c:	00786c6c 	rsbseq	r6, r8, ip, ror #24
    9070:	00646c6c 	rsbeq	r6, r4, ip, ror #24
    9074:	253d3078 	ldrcs	r3, [sp, #-120]!	; 0xffffff88
    9078:	00000a78 	andeq	r0, r0, r8, ror sl
    907c:	253d3178 	ldrcs	r3, [sp, #-376]!	; 0xfffffe88
    9080:	00000a78 	andeq	r0, r0, r8, ror sl
    9084:	6e727473 	mrcvs	4, 3, r7, cr2, cr3, {3}
    9088:	28706d63 	ldmdacs	r0!, {r0, r1, r5, r6, r8, sl, fp, sp, lr}^
    908c:	202c7974 	eorcs	r7, ip, r4, ror r9
    9090:	786c6c22 	stmdavc	ip!, {r1, r5, sl, fp, sp, lr}^
    9094:	33202c22 			; <UNDEFINED> instruction: 0x33202c22
    9098:	3d3d2029 	ldccc	0, cr2, [sp, #-164]!	; 0xffffff5c
    909c:	7c203020 	stcvc	0, cr3, [r0], #-128	; 0xffffff80
    90a0:	7473207c 	ldrbtvc	r2, [r3], #-124	; 0xffffff84
    90a4:	6d636e72 	stclvs	14, cr6, [r3, #-456]!	; 0xfffffe38
    90a8:	79742870 	ldmdbvc	r4!, {r4, r5, r6, fp, sp}^
    90ac:	6c22202c 	stcvs	0, cr2, [r2], #-176	; 0xffffff50
    90b0:	2c22646c 	cfstrscs	mvf6, [r2], #-432	; 0xfffffe50
    90b4:	20293320 	eorcs	r3, r9, r0, lsr #6
    90b8:	30203d3d 	eorcc	r3, r0, sp, lsr sp
    90bc:	00000000 	andeq	r0, r0, r0
    90c0:	494e4150 	stmdbmi	lr, {r4, r6, r8, lr}^
    90c4:	73253a43 			; <UNDEFINED> instruction: 0x73253a43
    90c8:	3a73253a 	bcc	1cd25b8 <__bss_end__+0x1cc9020>
    90cc:	693a6425 	ldmdbvs	sl!, {r0, r2, r5, sl, sp, lr}
    90d0:	736f706d 	cmnvc	pc, #109	; 0x6d
    90d4:	6c626973 			; <UNDEFINED> instruction: 0x6c626973
    90d8:	66203a65 	strtvs	r3, [r0], -r5, ror #20
    90dc:	3c3d746d 	cfldrscc	mvf7, [sp], #-436	; 0xfffffe4c
    90e0:	0a3e7325 	beq	fa5d7c <__bss_end__+0xf9c7e4>
    90e4:	0000000a 	andeq	r0, r0, sl
    90e8:	494e4150 	stmdbmi	lr, {r4, r6, r8, lr}^
    90ec:	73253a43 			; <UNDEFINED> instruction: 0x73253a43
    90f0:	3a73253a 	bcc	1cd25e0 <__bss_end__+0x1cc9048>
    90f4:	663a6425 	ldrtvs	r6, [sl], -r5, lsr #8
    90f8:	74616f6c 	strbtvc	r6, [r1], #-3948	; 0xfffff094
    90fc:	746f6e20 	strbtvc	r6, [pc], #-3616	; 9104 <__code_end__+0x150>
    9100:	616e6520 	cmnvs	lr, r0, lsr #10
    9104:	64656c62 	strbtvs	r6, [r5], #-3170	; 0xfffff39e
    9108:	0a212121 	beq	851594 <__bss_end__+0x847ffc>
    910c:	00000000 	andeq	r0, r0, r0
    9110:	6e697270 	mcrvs	2, 3, r7, cr9, cr0, {3}
    9114:	203a6b74 	eorscs	r6, sl, r4, ror fp
    9118:	20746f6e 	rsbscs	r6, r4, lr, ror #30
    911c:	646e6168 	strbtvs	r6, [lr], #-360	; 0xfffffe98
    9120:	676e696c 	strbvs	r6, [lr, -ip, ror #18]!
    9124:	65707320 	ldrbvs	r7, [r0, #-800]!	; 0xfffffce0
    9128:	69666963 	stmdbvs	r6!, {r0, r1, r5, r6, r8, fp, sp, lr}^
    912c:	27207265 	strcs	r7, [r0, -r5, ror #4]!
    9130:	20276325 	eorcs	r6, r7, r5, lsr #6
    9134:	63736128 	cmnvs	r3, #40, 2
    9138:	253d6969 	ldrcs	r6, [sp, #-2409]!	; 0xfffff697
    913c:	000a2964 	andeq	r2, sl, r4, ror #18
    9140:	494e4150 	stmdbmi	lr, {r4, r6, r8, lr}^
    9144:	73253a43 			; <UNDEFINED> instruction: 0x73253a43
    9148:	3a73253a 	bcc	1cd2638 <__bss_end__+0x1cc90a0>
    914c:	703a6425 	eorsvc	r6, sl, r5, lsr #8
    9150:	746e6972 	strbtvc	r6, [lr], #-2418	; 0xfffff68e
    9154:	7265206b 	rsbvc	r2, r5, #107	; 0x6b
    9158:	0a726f72 	beq	1ca4f28 <__bss_end__+0x1c9b990>
    915c:	0000000a 	andeq	r0, r0, sl

00009160 <__FUNCTION__.0>:
    9160:	74696d65 	strbtvc	r6, [r9], #-3429	; 0xfffff29b
    9164:	00000000 	andeq	r0, r0, r0

00009168 <__FUNCTION__.2>:
    9168:	5f697072 	svcpl	0x00697072
    916c:	5f746573 	svcpl	0x00746573
    9170:	7074756f 	rsbsvc	r7, r4, pc, ror #10
    9174:	00007475 	andeq	r7, r0, r5, ror r4

00009178 <__FUNCTION__.1>:
    9178:	705f6176 	subsvc	r6, pc, r6, ror r1	; <UNPREDICTABLE>
    917c:	746e6972 	strbtvc	r6, [lr], #-2418	; 0xfffff68e
    9180:	0000006b 	andeq	r0, r0, fp, rrx
    9184:	454e4f44 	strbmi	r4, [lr, #-3908]	; 0xfffff0bc
    9188:	0a212121 	beq	851614 <__bss_end__+0x84807c>
	...

Disassembly of section .data:

00009190 <putk>:
    9190:	000083ac 	andeq	r8, r0, ip, lsr #7

00009194 <rpi_putchar>:
    9194:	000083e0 	andeq	r8, r0, r0, ror #7

Disassembly of section .bss:

00009198 <buf.0>:
	...

Disassembly of section .ARM.attributes:

00000000 <.ARM.attributes>:
   0:	00002a41 	andeq	r2, r0, r1, asr #20
   4:	61656100 	cmnvs	r5, r0, lsl #2
   8:	01006962 	tsteq	r0, r2, ror #18
   c:	00000020 	andeq	r0, r0, r0, lsr #32
  10:	4b5a3605 	blmi	168d82c <__bss_end__+0x1684294>
  14:	08070600 	stmdaeq	r7, {r9, sl}
  18:	12010901 	andne	r0, r1, #16384	; 0x4000
  1c:	15011404 	strne	r1, [r1, #-1028]	; 0xfffffbfc
  20:	18031701 	stmdane	r3, {r0, r8, r9, sl, ip}
  24:	22011a01 	andcs	r1, r1, #4096	; 0x1000
  28:	Address 0x0000000000000028 is out of bounds.


Disassembly of section .comment:

00000000 <.comment>:
   0:	3a434347 	bcc	10d0d24 <__bss_end__+0x10c778c>
   4:	4e472820 	cdpmi	8, 4, cr2, cr7, cr0, {1}
   8:	72412055 	subvc	r2, r1, #85	; 0x55
   c:	6d45206d 	stclvs	0, cr2, [r5, #-436]	; 0xfffffe4c
  10:	64646562 	strbtvs	r6, [r4], #-1378	; 0xfffffa9e
  14:	54206465 	strtpl	r6, [r0], #-1125	; 0xfffffb9b
  18:	636c6f6f 	cmnvs	ip, #444	; 0x1bc
  1c:	6e696168 	powvsez	f6, f1, #0.0
  20:	2e303120 	rsfcssp	f3, f0, f0
  24:	30322d33 	eorscc	r2, r2, r3, lsr sp
  28:	312e3132 			; <UNDEFINED> instruction: 0x312e3132
  2c:	31202930 			; <UNDEFINED> instruction: 0x31202930
  30:	2e332e30 	mrccs	14, 1, r2, cr3, cr0, {1}
  34:	30322031 	eorscc	r2, r2, r1, lsr r0
  38:	38303132 	ldmdacc	r0!, {r1, r4, r5, r8, ip, sp}
  3c:	28203432 	stmdacs	r0!, {r1, r4, r5, sl, ip, sp}
  40:	656c6572 	strbvs	r6, [ip, #-1394]!	; 0xfffffa8e
  44:	29657361 	stmdbcs	r5!, {r0, r5, r6, r8, r9, ip, sp, lr}^
	...

Disassembly of section .debug_info:

00000000 <.debug_info>:
       0:	000005bb 			; <UNDEFINED> instruction: 0x000005bb
       4:	00000004 	andeq	r0, r0, r4
       8:	01040000 	mrseq	r0, (UNDEF: 4)
       c:	00000103 	andeq	r0, r0, r3, lsl #2
      10:	0000fb0c 	andeq	pc, r0, ip, lsl #22
      14:	00001300 	andeq	r1, r0, r0, lsl #6
      18:	00803800 	addeq	r3, r0, r0, lsl #16
      1c:	0001b800 	andeq	fp, r1, r0, lsl #16
      20:	00000000 	andeq	r0, r0, r0
      24:	05040200 	streq	r0, [r4, #-512]	; 0xfffffe00
      28:	00746e69 	rsbseq	r6, r4, r9, ror #28
      2c:	ae070403 	cdpge	4, 0, cr0, cr7, cr3, {0}
      30:	03000001 	movweq	r0, #1
      34:	007d0601 	rsbseq	r0, sp, r1, lsl #12
      38:	02030000 	andeq	r0, r3, #0
      3c:	0001e205 	andeq	lr, r1, r5, lsl #4
      40:	05040300 	streq	r0, [r4, #-768]	; 0xfffffd00
      44:	000001c7 	andeq	r0, r0, r7, asr #3
      48:	c2050803 	andgt	r0, r5, #196608	; 0x30000
      4c:	03000001 	movweq	r0, #1
      50:	007b0801 	rsbseq	r0, fp, r1, lsl #16
      54:	02030000 	andeq	r0, r3, #0
      58:	0000ac07 	andeq	sl, r0, r7, lsl #24
      5c:	07040300 	streq	r0, [r4, -r0, lsl #6]
      60:	000001a9 	andeq	r0, r0, r9, lsr #3
      64:	a4070803 	strge	r0, [r7], #-2051	; 0xfffff7fd
      68:	03000001 	movweq	r0, #1
      6c:	00840801 	addeq	r0, r4, r1, lsl #16
      70:	08040000 	stmdaeq	r4, {}	; <UNPREDICTABLE>
      74:	94090602 	strls	r0, [r9], #-1538	; 0xfffff9fe
      78:	05000000 	streq	r0, [r0, #-0]
      7c:	07020076 	smlsdxeq	r2, r6, r0, r0
      80:	00002c0e 	andeq	r2, r0, lr, lsl #24
      84:	89060000 	stmdbhi	r6, {}	; <UNPREDICTABLE>
      88:	02000000 	andeq	r0, r0, #0
      8c:	002c1007 	eoreq	r1, ip, r7
      90:	00040000 	andeq	r0, r4, r0
      94:	00020307 	andeq	r0, r2, r7, lsl #6
      98:	03080200 	movweq	r0, #33280	; 0x8200
      9c:	00000072 	andeq	r0, r0, r2, ror r0
      a0:	00006908 	andeq	r6, r0, r8, lsl #18
      a4:	06490100 	strbeq	r0, [r9], -r0, lsl #2
      a8:	0000811c 	andeq	r8, r0, ip, lsl r1
      ac:	000000d4 	ldrdeq	r0, [r0], -r4
      b0:	02669c01 	rsbeq	r9, r6, #256	; 0x100
      b4:	70090000 	andvc	r0, r9, r0
      b8:	01006e69 	tsteq	r0, r9, ror #28
      bc:	002c0e4b 	eoreq	r0, ip, fp, asr #28
      c0:	0a150000 	beq	5400c8 <__bss_end__+0x536b30>
      c4:	00676f6c 	rsbeq	r6, r7, ip, ror #30
      c8:	660f5301 	strvs	r5, [pc], -r1, lsl #6
      cc:	03000002 	movweq	r0, #2
      d0:	0b7de891 	bleq	1f7a31c <__bss_end__+0x1f70d84>
      d4:	00008130 	andeq	r8, r0, r0, lsr r1
      d8:	00000008 	andeq	r0, r0, r8
      dc:	000000ed 	andeq	r0, r0, sp, ror #1
      e0:	006e6909 	rsbeq	r6, lr, r9, lsl #18
      e4:	2c055001 	stccs	0, cr5, [r5], {1}
      e8:	01000000 	mrseq	r0, (UNDEF: 0)
      ec:	00000c00 	andeq	r0, r0, r0, lsl #24
      f0:	02400000 	subeq	r0, r0, #0
      f4:	690d0000 	stmdbvs	sp, {}	; <UNPREDICTABLE>
      f8:	0d5a0100 	ldfeqe	f0, [sl, #-0]
      fc:	00000025 	andeq	r0, r0, r5, lsr #32
     100:	00000004 	andeq	r0, r0, r4
     104:	00000000 	andeq	r0, r0, r0
     108:	0000180e 	andeq	r1, r0, lr, lsl #16
     10c:	006e0d00 	rsbeq	r0, lr, r0, lsl #26
     110:	2c125b01 			; <UNDEFINED> instruction: 0x2c125b01
     114:	27000000 	strcs	r0, [r0, -r0]
     118:	23000000 	movwcs	r0, #0
     11c:	0f000000 	svceq	0x00000000
     120:	000004d8 	ldrdeq	r0, [r0], -r8
     124:	000081d4 	ldrdeq	r8, [r0], -r4
     128:	00003801 	andeq	r3, r0, r1, lsl #16
     12c:	095c0100 	ldmdbeq	ip, {r8}^
     130:	00000219 	andeq	r0, r0, r9, lsl r2
     134:	0004fd10 	andeq	pc, r4, r0, lsl sp	; <UNPREDICTABLE>
     138:	00004900 	andeq	r4, r0, r0, lsl #18
     13c:	00004500 	andeq	r4, r0, r0, lsl #10
     140:	04f31000 	ldrbteq	r1, [r3], #0
     144:	00710000 	rsbseq	r0, r1, r0
     148:	006d0000 	rsbeq	r0, sp, r0
     14c:	e9100000 	ldmdb	r0, {}	; <UNPREDICTABLE>
     150:	93000004 	movwls	r0, #4
     154:	8f000000 	svchi	0x00000000
     158:	0e000000 	cdpeq	0, 0, cr0, cr0, cr0, {0}
     15c:	00000038 	andeq	r0, r0, r8, lsr r0
     160:	00050911 	andeq	r0, r5, r1, lsl r9
     164:	0000bd00 	andeq	fp, r0, r0, lsl #26
     168:	0000b700 	andeq	fp, r0, r0, lsl #14
     16c:	05151100 	ldreq	r1, [r5, #-256]	; 0xffffff00
     170:	00eb0000 	rsceq	r0, fp, r0
     174:	00e70000 	rsceq	r0, r7, r0
     178:	21110000 	tstcs	r1, r0
     17c:	14000005 	strne	r0, [r0], #-5
     180:	0a000001 	beq	18c <__code_start__-0x7e74>
     184:	12000001 	andne	r0, r0, #1
     188:	0000052d 	andeq	r0, r0, sp, lsr #10
     18c:	00000050 	andeq	r0, r0, r0, asr r0
     190:	00052e11 	andeq	r2, r5, r1, lsl lr
     194:	00015e00 	andeq	r5, r1, r0, lsl #28
     198:	00015400 	andeq	r5, r1, r0, lsl #8
     19c:	05381200 	ldreq	r1, [r8, #-512]!	; 0xfffffe00
     1a0:	00700000 	rsbseq	r0, r0, r0
     1a4:	39110000 	ldmdbcc	r1, {}	; <UNPREDICTABLE>
     1a8:	a8000005 	stmdage	r0, {r0, r2}
     1ac:	a0000001 	andge	r0, r0, r1
     1b0:	11000001 	tstne	r0, r1
     1b4:	00000543 	andeq	r0, r0, r3, asr #10
     1b8:	00000203 	andeq	r0, r0, r3, lsl #4
     1bc:	000001fd 	strdeq	r0, [r0], -sp
     1c0:	00054f11 	andeq	r4, r5, r1, lsl pc
     1c4:	00023200 	andeq	r3, r2, r0, lsl #4
     1c8:	00022c00 	andeq	r2, r2, r0, lsl #24
     1cc:	055b1100 	ldrbeq	r1, [fp, #-256]	; 0xffffff00
     1d0:	02740000 	rsbseq	r0, r4, #0
     1d4:	02700000 	rsbseq	r0, r0, #0
     1d8:	64130000 	ldrvs	r0, [r3], #-0
     1dc:	6a000081 	bvs	3e8 <__code_start__-0x7c18>
     1e0:	14000005 	strne	r0, [r0], #-5
     1e4:	03055001 	movweq	r5, #20481	; 0x5001
     1e8:	00008fcc 	andeq	r8, r0, ip, asr #31
     1ec:	007d0214 	rsbseq	r0, sp, r4, lsl r2
     1f0:	14007402 	strne	r7, [r0], #-1026	; 0xfffffbfe
     1f4:	15047d02 	strne	r7, [r4, #-3330]	; 0xfffff2fe
     1f8:	24320075 	ldrtcs	r0, [r2], #-117	; 0xffffff8b
     1fc:	75220075 	strvc	r0, [r2, #-117]!	; 0xffffff8b
     200:	75243200 	strvc	r3, [r4, #-512]!	; 0xfffffe00
     204:	24322200 	ldrtcs	r2, [r2], #-512	; 0xfffffe00
     208:	341e3f22 	ldrcc	r3, [lr], #-3874	; 0xfffff0de
     20c:	7d021424 	cfstrsvc	mvf1, [r2, #-144]	; 0xffffff70
     210:	0076020c 	rsbseq	r0, r6, ip, lsl #4
     214:	00000000 	andeq	r0, r0, r0
     218:	81d01300 	bicshi	r1, r0, r0, lsl #6
     21c:	02760000 	rsbseq	r0, r6, #0
     220:	01140000 	tsteq	r4, r0
     224:	14450150 	strbne	r0, [r5], #-336	; 0xfffffeb0
     228:	91035101 	tstls	r3, r1, lsl #2
     22c:	01147de0 	tsteq	r4, r0, ror #27
     230:	20080252 	andcs	r0, r8, r2, asr r2
     234:	05530114 	ldrbeq	r0, [r3, #-276]	; 0xfffffeec
     238:	6e49c00c 	cdpvs	0, 4, cr12, cr9, cr12, {0}
     23c:	0000000a 	andeq	r0, r0, sl
     240:	00812c15 	addeq	r2, r1, r5, lsl ip
     244:	00057600 	andeq	r7, r5, r0, lsl #12
     248:	00025300 	andeq	r5, r2, r0, lsl #6
     24c:	50011400 	andpl	r1, r1, r0, lsl #8
     250:	16004501 	strne	r4, [r0], -r1, lsl #10
     254:	00008130 	andeq	r8, r0, r0, lsr r1
     258:	00000582 	andeq	r0, r0, r2, lsl #11
     25c:	0081e816 	addeq	lr, r1, r6, lsl r8
     260:	00058e00 	andeq	r8, r5, r0, lsl #28
     264:	94170000 	ldrls	r0, [r7], #-0
     268:	76000000 	strvc	r0, [r0], -r0
     26c:	18000002 	stmdane	r0, {r1}
     270:	0000002c 	andeq	r0, r0, ip, lsr #32
     274:	5819001f 	ldmdapl	r9, {r0, r1, r2, r3, r4}
     278:	01000000 	mrseq	r0, (UNDEF: 0)
     27c:	002c0119 	eoreq	r0, ip, r9, lsl r1
     280:	80380000 	eorshi	r0, r8, r0
     284:	00e40000 	rsceq	r0, r4, r0
     288:	9c010000 	stcls	0, cr0, [r1], {-0}
     28c:	00000498 	muleq	r0, r8, r4
     290:	6e69701a 	mcrvs	0, 3, r7, cr9, cr10, {0}
     294:	10190100 	andsne	r0, r9, r0, lsl #2
     298:	0000002c 	andeq	r0, r0, ip, lsr #32
     29c:	0000029a 	muleq	r0, sl, r2
     2a0:	00000294 	muleq	r0, r4, r2
     2a4:	01006c1a 	tsteq	r0, sl, lsl ip
     2a8:	04982019 	ldreq	r2, [r8], #25
     2ac:	02ca0000 	sbceq	r0, sl, #0
     2b0:	02c60000 	sbceq	r0, r6, #0
     2b4:	631b0000 	tstvs	fp, #0
     2b8:	01000000 	mrseq	r0, (UNDEF: 0)
     2bc:	002c2c19 	eoreq	r2, ip, r9, lsl ip
     2c0:	02ec0000 	rsceq	r0, ip, #0
     2c4:	02e80000 	rsceq	r0, r8, #0
     2c8:	001b0000 	andseq	r0, fp, r0
     2cc:	01000000 	mrseq	r0, (UNDEF: 0)
     2d0:	002c3c19 	eoreq	r3, ip, r9, lsl ip
     2d4:	03110000 	tsteq	r1, #0
     2d8:	030d0000 	movweq	r0, #53248	; 0xd000
     2dc:	760d0000 	strvc	r0, [sp], -r0
     2e0:	1a010031 	bne	403ac <__bss_end__+0x36e14>
     2e4:	00002c0e 	andeq	r2, r0, lr, lsl #24
     2e8:	00033400 	andeq	r3, r3, r0, lsl #8
     2ec:	00033200 	andeq	r3, r3, r0, lsl #4
     2f0:	30760d00 	rsbscc	r0, r6, r0, lsl #26
     2f4:	121a0100 	andsne	r0, sl, #0, 2
     2f8:	0000002c 	andeq	r0, r0, ip, lsr #32
     2fc:	0000034b 	andeq	r0, r0, fp, asr #6
     300:	00000347 	andeq	r0, r0, r7, asr #6
     304:	3164721c 	cmncc	r4, ip, lsl r2
     308:	0e200100 	sufeqs	f0, f0, f0
     30c:	0000002c 	andeq	r0, r0, ip, lsr #32
     310:	3264721c 	rsbcc	r7, r4, #28, 4	; 0xc0000001
     314:	0e210100 	sufeqs	f0, f1, f0
     318:	0000002c 	andeq	r0, r0, ip, lsr #32
     31c:	0000e41d 	andeq	lr, r0, sp, lsl r4
     320:	0e220100 	sufeqs	f0, f2, f0
     324:	0000002c 	andeq	r0, r0, ip, lsr #32
     328:	00045b1e 	andeq	r5, r4, lr, lsl fp
     32c:	0e250100 	sufeqs	f0, f5, f0
     330:	0000002c 	andeq	r0, r0, ip, lsr #32
     334:	0000036b 	andeq	r0, r0, fp, ror #6
     338:	00000369 	andeq	r0, r0, r9, ror #6
     33c:	0100740d 	tsteq	r0, sp, lsl #8
     340:	002c2825 	eoreq	r2, ip, r5, lsr #16
     344:	036b0000 	cmneq	fp, #0
     348:	03690000 	cmneq	r9, #0
     34c:	6e0d0000 	cdpvs	0, 0, cr0, cr13, cr0, {0}
     350:	0e280100 	sufeqe	f0, f0, f0
     354:	0000002c 	andeq	r0, r0, ip, lsr #32
     358:	00000396 	muleq	r0, r6, r3
     35c:	0000037e 	andeq	r0, r0, lr, ror r3
     360:	0001fe1e 	andeq	pc, r1, lr, lsl lr	; <UNPREDICTABLE>
     364:	093c0100 	ldmdbeq	ip!, {r8}
     368:	00000025 	andeq	r0, r0, r5, lsr #32
     36c:	00000430 	andeq	r0, r0, r0, lsr r4
     370:	0000042e 	andeq	r0, r0, lr, lsr #8
     374:	00805c0b 	addeq	r5, r0, fp, lsl #24
     378:	00000400 	andeq	r0, r0, r0, lsl #8
     37c:	00038e00 	andeq	r8, r3, r0, lsl #28
     380:	00ce1d00 	sbceq	r1, lr, r0, lsl #26
     384:	20010000 	andcs	r0, r1, r0
     388:	00002c14 	andeq	r2, r0, r4, lsl ip
     38c:	600b0000 	andvs	r0, fp, r0
     390:	04000080 	streq	r0, [r0], #-128	; 0xffffff80
     394:	a8000000 	stmdage	r0, {}	; <UNPREDICTABLE>
     398:	1d000003 	stcne	0, cr0, [r0, #-12]
     39c:	000000ce 	andeq	r0, r0, lr, asr #1
     3a0:	2c142101 	ldfcss	f2, [r4], {1}
     3a4:	00000000 	andeq	r0, r0, r0
     3a8:	0080640b 	addeq	r6, r0, fp, lsl #8
     3ac:	00000400 	andeq	r0, r0, r0, lsl #8
     3b0:	0003ca00 	andeq	ip, r3, r0, lsl #20
     3b4:	00ce1e00 	sbceq	r1, lr, r0, lsl #28
     3b8:	25010000 	strcs	r0, [r1, #-0]
     3bc:	00002c16 	andeq	r2, r0, r6, lsl ip
     3c0:	00044500 	andeq	r4, r4, r0, lsl #10
     3c4:	00044300 	andeq	r4, r4, r0, lsl #6
     3c8:	d40b0000 	strle	r0, [fp], #-0
     3cc:	30000080 	andcc	r0, r0, r0, lsl #1
     3d0:	ea000000 	b	3d8 <__code_start__-0x7c28>
     3d4:	0d000003 	stceq	0, cr0, [r0, #-12]
     3d8:	3e010069 	cdpcc	0, 0, cr0, cr1, cr9, {3}
     3dc:	0000250e 	andeq	r2, r0, lr, lsl #10
     3e0:	00045c00 	andeq	r5, r4, r0, lsl #24
     3e4:	00045800 	andeq	r5, r4, r0, lsl #16
     3e8:	48150000 	ldmdami	r5, {}	; <UNPREDICTABLE>
     3ec:	9a000080 	bls	5f4 <__code_start__-0x7a0c>
     3f0:	fe000005 	cdp2	0, 0, cr0, cr0, cr5, {0}
     3f4:	14000003 	strne	r0, [r0], #-3
     3f8:	76025001 	strvc	r5, [r2], -r1
     3fc:	54150000 	ldrpl	r0, [r5], #-0
     400:	9a000080 	bls	608 <__code_start__-0x79f8>
     404:	12000005 	andne	r0, r0, #5
     408:	14000004 	strne	r0, [r0], #-4
     40c:	76025001 	strvc	r5, [r2], -r1
     410:	6c160000 	ldcvs	0, cr0, [r6], {-0}
     414:	a6000080 	strge	r0, [r0], -r0, lsl #1
     418:	16000005 	strne	r0, [r0], -r5
     41c:	00008070 	andeq	r8, r0, r0, ror r0
     420:	000005b2 			; <UNDEFINED> instruction: 0x000005b2
     424:	00807816 	addeq	r7, r0, r6, lsl r8
     428:	0005a600 	andeq	sl, r5, r0, lsl #12
     42c:	80801600 	addhi	r1, r0, r0, lsl #12
     430:	05b20000 	ldreq	r0, [r2, #0]!
     434:	88160000 	ldmdahi	r6, {}	; <UNPREDICTABLE>
     438:	a6000080 	strge	r0, [r0], -r0, lsl #1
     43c:	16000005 	strne	r0, [r0], -r5
     440:	00008090 	muleq	r0, r0, r0
     444:	000005b2 			; <UNDEFINED> instruction: 0x000005b2
     448:	00809816 	addeq	r9, r0, r6, lsl r8
     44c:	0005a600 	andeq	sl, r5, r0, lsl #12
     450:	80a01600 	adchi	r1, r0, r0, lsl #12
     454:	05b20000 	ldreq	r0, [r2, #0]!
     458:	a8160000 	ldmdage	r6, {}	; <UNPREDICTABLE>
     45c:	a6000080 	strge	r0, [r0], -r0, lsl #1
     460:	16000005 	strne	r0, [r0], -r5
     464:	000080b0 	strheq	r8, [r0], -r0
     468:	000005b2 			; <UNDEFINED> instruction: 0x000005b2
     46c:	0080b816 	addeq	fp, r0, r6, lsl r8
     470:	0005a600 	andeq	sl, r5, r0, lsl #12
     474:	80c01600 	sbchi	r1, r0, r0, lsl #12
     478:	05b20000 	ldreq	r0, [r2, #0]!
     47c:	10130000 	andsne	r0, r3, r0
     480:	6a000081 	bvs	68c <__code_start__-0x7974>
     484:	14000005 	strne	r0, [r0], #-5
     488:	03055001 	movweq	r5, #20481	; 0x5001
     48c:	00008fb8 			; <UNDEFINED> instruction: 0x00008fb8
     490:	02510114 	subseq	r0, r1, #20, 2
     494:	00000076 	andeq	r0, r0, r6, ror r0
     498:	0094041f 	addseq	r0, r4, pc, lsl r4
     49c:	9e200000 	cdpls	0, 2, cr0, cr0, cr0, {0}
     4a0:	03000000 	movweq	r0, #0
     4a4:	002c1808 	eoreq	r1, ip, r8, lsl #16
     4a8:	bb030000 	bllt	c04b0 <__bss_end__+0xb6f18>
     4ac:	21000004 	tstcs	r0, r4
     4b0:	0300736d 	movweq	r7, #877	; 0x36d
     4b4:	002c2f08 	eoreq	r2, ip, r8, lsl #30
     4b8:	20000000 	andcs	r0, r0, r0
     4bc:	00000196 	muleq	r0, r6, r1
     4c0:	2c180503 	cfldr32cs	mvfx0, [r8], {3}
     4c4:	03000000 	movweq	r0, #0
     4c8:	000004d8 	ldrdeq	r0, [r0], -r8
     4cc:	00737521 	rsbseq	r7, r3, r1, lsr #10
     4d0:	2c2f0503 	cfstr32cs	mvfx0, [pc], #-12	; 4cc <__code_start__-0x7b34>
     4d4:	00000000 	andeq	r0, r0, r0
     4d8:	0000ee20 	andeq	lr, r0, r0, lsr #28
     4dc:	010d0200 	mrseq	r0, SP_fiq
     4e0:	0000002c 	andeq	r0, r0, ip, lsr #32
     4e4:	00056a03 	andeq	r6, r5, r3, lsl #20
     4e8:	006c2100 	rsbeq	r2, ip, r0, lsl #2
     4ec:	98190d02 	ldmdals	r9, {r1, r8, sl, fp}
     4f0:	21000004 	tstcs	r0, r4
     4f4:	0d02006e 	stceq	0, cr0, [r2, #-440]	; 0xfffffe48
     4f8:	00002c25 	andeq	r2, r0, r5, lsr #24
     4fc:	01bb2200 			; <UNDEFINED> instruction: 0x01bb2200
     500:	0d020000 	stceq	0, cr0, [r2, #-0]
     504:	00002c31 	andeq	r2, r0, r1, lsr ip
     508:	6f741c00 	svcvs	0x00741c00
     50c:	0e020074 	mcreq	0, 0, r0, cr2, cr4, {3}
     510:	00002c0e 	andeq	r2, r0, lr, lsl #24
     514:	000b1d00 	andeq	r1, fp, r0, lsl #26
     518:	0e020000 	cdpeq	0, 0, cr0, cr2, cr0, {0}
     51c:	00002c17 	andeq	r2, r0, r7, lsl ip
     520:	01d01d00 	bicseq	r1, r0, r0, lsl #26
     524:	10020000 	andne	r0, r2, r0
     528:	00002c0e 	andeq	r2, r0, lr, lsl #24
     52c:	691c2300 	ldmdbvs	ip, {r8, r9, sp}
     530:	0d110200 	lfmeq	f0, 4, [r1, #-0]
     534:	00000025 	andeq	r0, r0, r5, lsr #32
     538:	00651c23 	rsbeq	r1, r5, r3, lsr #24
     53c:	98141202 	ldmdals	r4, {r1, r9, ip}
     540:	1d000004 	stcne	0, cr0, [r0, #-16]
     544:	0000005e 	andeq	r0, r0, lr, asr r0
     548:	2c121402 	cfldrscs	mvf1, [r2], {2}
     54c:	1c000000 	stcne	0, cr0, [r0], {-0}
     550:	00707865 	rsbseq	r7, r0, r5, ror #16
     554:	2c121802 	ldccs	8, cr1, [r2], {2}
     558:	1c000000 	stcne	0, cr0, [r0], {-0}
     55c:	00727265 	rsbseq	r7, r2, r5, ror #4
     560:	2c121902 			; <UNDEFINED> instruction: 0x2c121902
     564:	00000000 	andeq	r0, r0, r0
     568:	64240000 	strtvs	r0, [r4], #-0
     56c:	64000003 	strvs	r0, [r0], #-3
     570:	04000003 	streq	r0, [r0], #-3
     574:	bf240628 	svclt	0x00240628
     578:	bf000000 	svclt	0x00000000
     57c:	05000000 	streq	r0, [r0, #-0]
     580:	d524061c 	strle	r0, [r4, #-1564]!	; 0xfffff9e4
     584:	d5000001 	strle	r0, [r0, #-1]
     588:	04000001 	streq	r0, [r0], #-1
     58c:	912406a0 	smulwbls	r4, r0, r6
     590:	91000000 	mrsls	r0, (UNDEF: 0)
     594:	04000000 	streq	r0, [r0], #-0
     598:	7124066e 			; <UNDEFINED> instruction: 0x7124066e
     59c:	71000000 	mrsvc	r0, (UNDEF: 0)
     5a0:	05000000 	streq	r0, [r0, #-0]
     5a4:	ec240524 	cfstr32	mvfx0, [r4], #-144	; 0xffffff70
     5a8:	ec000001 	stc	0, cr0, [r0], {1}
     5ac:	06000001 	streq	r0, [r0], -r1
     5b0:	d3240501 			; <UNDEFINED> instruction: 0xd3240501
     5b4:	d3000000 	movwle	r0, #0
     5b8:	06000000 	streq	r0, [r0], -r0
     5bc:	a5000502 	strge	r0, [r0, #-1282]	; 0xfffffafe
     5c0:	04000003 	streq	r0, [r0], #-3
     5c4:	00021b00 	andeq	r1, r2, r0, lsl #22
     5c8:	03010400 	movweq	r0, #5120	; 0x1400
     5cc:	0c000001 	stceq	0, cr0, [r0], {1}
     5d0:	000002c1 	andeq	r0, r0, r1, asr #5
     5d4:	00000221 	andeq	r0, r0, r1, lsr #4
     5d8:	00008238 	andeq	r8, r0, r8, lsr r2
     5dc:	0000011c 	andeq	r0, r0, ip, lsl r1
     5e0:	000002d6 	ldrdeq	r0, [r0], -r6
     5e4:	69050402 	stmdbvs	r5, {r1, sl}
     5e8:	0300746e 	movweq	r7, #1134	; 0x46e
     5ec:	01ae0704 			; <UNDEFINED> instruction: 0x01ae0704
     5f0:	2c040000 	stccs	0, cr0, [r4], {-0}
     5f4:	03000000 	movweq	r0, #0
     5f8:	007d0601 	rsbseq	r0, sp, r1, lsl #12
     5fc:	02030000 	andeq	r0, r3, #0
     600:	0001e205 	andeq	lr, r1, r5, lsl #4
     604:	05040300 	streq	r0, [r4, #-768]	; 0xfffffd00
     608:	000001c7 	andeq	r0, r0, r7, asr #3
     60c:	c2050803 	andgt	r0, r5, #196608	; 0x30000
     610:	03000001 	movweq	r0, #1
     614:	007b0801 	rsbseq	r0, fp, r1, lsl #16
     618:	02030000 	andeq	r0, r3, #0
     61c:	0000ac07 	andeq	sl, r0, r7, lsl #24
     620:	03250500 			; <UNDEFINED> instruction: 0x03250500
     624:	34030000 	strcc	r0, [r3], #-0
     628:	00006e19 	andeq	r6, r0, r9, lsl lr
     62c:	07040300 	streq	r0, [r4, -r0, lsl #6]
     630:	000001a9 	andeq	r0, r0, r9, lsr #3
     634:	a4070803 	strge	r0, [r7], #-2051	; 0xfffff7fd
     638:	03000001 	movweq	r0, #1
     63c:	00840801 	addeq	r0, r4, r1, lsl #16
     640:	07060000 	streq	r0, [r6, -r0]
     644:	00005401 	andeq	r5, r0, r1, lsl #8
     648:	0e0c0400 	cfcpyseq	mvf0, mvf12
     64c:	000000c2 	andeq	r0, r0, r2, asr #1
     650:	00032e07 	andeq	r2, r3, r7, lsl #28
     654:	4f070000 	svcmi	0x00070000
     658:	01000002 	tsteq	r0, r2
     65c:	00027607 	andeq	r7, r2, r7, lsl #12
     660:	85070400 	strhi	r0, [r7, #-1024]	; 0xfffffc00
     664:	05000002 	streq	r0, [r0, #-2]
     668:	00029407 	andeq	r9, r2, r7, lsl #8
     66c:	a3070600 	movwge	r0, #30208	; 0x7600
     670:	07000002 	streq	r0, [r0, -r2]
     674:	00031107 	andeq	r1, r3, r7, lsl #2
     678:	b2070300 	andlt	r0, r7, #0, 6
     67c:	02000002 	andeq	r0, r0, #2
     680:	02f00500 	rscseq	r0, r0, #0, 10
     684:	15040000 	strne	r0, [r4, #-0]
     688:	00008303 	andeq	r8, r0, r3, lsl #6
     68c:	02170800 	andseq	r0, r7, #0, 16
     690:	1d010000 	stcne	0, cr0, [r1, #-0]
     694:	00003317 	andeq	r3, r0, r7, lsl r3
     698:	20001c00 	andcs	r1, r0, r0, lsl #24
     69c:	020d0820 	andeq	r0, sp, #32, 16	; 0x200000
     6a0:	1e010000 	cdpne	0, 0, cr0, cr1, cr0, {0}
     6a4:	00003317 	andeq	r3, r0, r7, lsl r3
     6a8:	20002800 	andcs	r2, r0, r0, lsl #16
     6ac:	02fc0820 	rscseq	r0, ip, #32, 16	; 0x200000
     6b0:	1f010000 	svcne	0x00010000
     6b4:	00003317 	andeq	r3, r0, r7, lsl r3
     6b8:	20003400 	andcs	r3, r0, r0, lsl #8
     6bc:	00710920 	rsbseq	r0, r1, r0, lsr #18
     6c0:	55010000 	strpl	r0, [r1, #-0]
     6c4:	00002505 	andeq	r2, r0, r5, lsl #10
     6c8:	00832000 	addeq	r2, r3, r0
     6cc:	00003400 	andeq	r3, r0, r0, lsl #8
     6d0:	6e9c0100 	fmlvse	f0, f4, f0
     6d4:	0a000001 	beq	6e0 <__code_start__-0x7920>
     6d8:	006e6970 	rsbeq	r6, lr, r0, ror r9
     6dc:	2c185501 	cfldr32cs	mvfx5, [r8], {1}
     6e0:	83000000 	movwhi	r0, #0
     6e4:	7b000004 	blvc	6fc <__code_start__-0x7904>
     6e8:	0b000004 	bleq	700 <__code_start__-0x7900>
     6ec:	00000320 	andeq	r0, r0, r0, lsr #6
     6f0:	2c0e5801 	stccs	8, cr5, [lr], {1}
     6f4:	c3000000 	movwgt	r0, #0
     6f8:	bd000004 	stclt	0, cr0, [r0, #-16]
     6fc:	0c000004 	stceq	0, cr0, [r0], {4}
     700:	0066666f 	rsbeq	r6, r6, pc, ror #12
     704:	2c0e5901 			; <UNDEFINED> instruction: 0x2c0e5901
     708:	03000000 	movweq	r0, #0
     70c:	01000005 	tsteq	r0, r5
     710:	0d000005 	stceq	0, cr0, [r0, #-20]	; 0xffffffec
     714:	0000833c 	andeq	r8, r0, ip, lsr r3
     718:	00000390 	muleq	r0, r0, r3
     71c:	0b50010e 	bleq	1400b5c <__bss_end__+0x13f75c4>
     720:	355001f3 	ldrbcc	r0, [r0, #-499]	; 0xfffffe0d
     724:	80b42325 	adcshi	r2, r4, r5, lsr #6
     728:	00028180 	andeq	r8, r2, r0, lsl #3
     72c:	03060f00 	movweq	r0, #28416	; 0x6f00
     730:	4e010000 	cdpmi	0, 0, cr0, cr1, cr0, {0}
     734:	00830406 	addeq	r0, r3, r6, lsl #8
     738:	00001c00 	andeq	r1, r0, r0, lsl #24
     73c:	c99c0100 	ldmibgt	ip, {r8}
     740:	0a000001 	beq	74c <__code_start__-0x78b4>
     744:	006e6970 	rsbeq	r6, lr, r0, ror r9
     748:	2c1a4e01 	ldccs	14, cr4, [sl], {1}
     74c:	1e000000 	cdpne	0, 0, cr0, cr0, cr0, {0}
     750:	16000005 	strne	r0, [r0], -r5
     754:	0a000005 	beq	770 <__code_start__-0x7890>
     758:	4e010076 	mcrmi	0, 0, r0, cr1, cr6, {3}
     75c:	00002c28 	andeq	r2, r0, r8, lsr #24
     760:	00056000 	andeq	r6, r5, r0
     764:	00055800 	andeq	r5, r5, r0, lsl #16
     768:	83141000 	tsthi	r4, #0
     76c:	02510000 	subseq	r0, r1, #0
     770:	01bf0000 			; <UNDEFINED> instruction: 0x01bf0000
     774:	010e0000 	mrseq	r0, (UNDEF: 14)
     778:	01f30350 	mvnseq	r0, r0, asr r3
     77c:	1c110050 	ldcne	0, cr0, [r1], {80}	; 0x50
     780:	0a000083 	beq	994 <__code_start__-0x766c>
     784:	00000002 	andeq	r0, r0, r2
     788:	0000bf0f 	andeq	fp, r0, pc, lsl #30
     78c:	06490100 	strbeq	r0, [r9], -r0, lsl #2
     790:	000082f4 	strdeq	r8, [r0], -r4
     794:	00000010 	andeq	r0, r0, r0, lsl r0
     798:	020a9c01 	andeq	r9, sl, #256	; 0x100
     79c:	700a0000 	andvc	r0, sl, r0
     7a0:	01006e69 	tsteq	r0, r9, ror #28
     7a4:	002c1e49 	eoreq	r1, ip, r9, asr #28
     7a8:	059e0000 	ldreq	r0, [lr]
     7ac:	059a0000 	ldreq	r0, [sl]
     7b0:	000d0000 	andeq	r0, sp, r0
     7b4:	d9000083 	stmdble	r0, {r0, r1, r7}
     7b8:	0e000002 	cdpeq	0, 0, cr0, cr0, cr2, {0}
     7bc:	f3035001 	vhadd.u8	d5, d3, d1
     7c0:	010e5001 	tsteq	lr, r1
     7c4:	00300151 	eorseq	r0, r0, r1, asr r1
     7c8:	02ce0f00 	sbceq	r0, lr, #0, 30
     7cc:	42010000 	andmi	r0, r1, #0
     7d0:	0082d006 	addeq	sp, r2, r6
     7d4:	00002400 	andeq	r2, r0, r0, lsl #8
     7d8:	519c0100 	orrspl	r0, ip, r0, lsl #2
     7dc:	0a000002 	beq	7ec <__code_start__-0x7814>
     7e0:	006e6970 	rsbeq	r6, lr, r0, ror r9
     7e4:	2c1c4201 	lfmcs	f4, 4, [ip], {1}
     7e8:	c3000000 	movwgt	r0, #0
     7ec:	bf000005 	svclt	0x00000005
     7f0:	0d000005 	stceq	0, cr0, [r0, #-20]	; 0xffffffec
     7f4:	000082ec 	andeq	r8, r0, ip, ror #5
     7f8:	0000039c 	muleq	r0, ip, r3
     7fc:	0550010e 	ldrbeq	r0, [r0, #-270]	; 0xfffffef2
     800:	2000280c 	andcs	r2, r0, ip, lsl #16
     804:	51010e20 	tstpl	r1, r0, lsr #28
     808:	01f33105 	mvnseq	r3, r5, lsl #2
     80c:	00002450 	andeq	r2, r0, r0, asr r4
     810:	0003500f 	andeq	r5, r3, pc
     814:	063b0100 	ldrteq	r0, [fp], -r0, lsl #2
     818:	000082ac 	andeq	r8, r0, ip, lsr #5
     81c:	00000024 	andeq	r0, r0, r4, lsr #32
     820:	02989c01 	addseq	r9, r8, #256	; 0x100
     824:	700a0000 	andvc	r0, sl, r0
     828:	01006e69 	tsteq	r0, r9, ror #28
     82c:	002c1b3b 	eoreq	r1, ip, fp, lsr fp
     830:	05e80000 	strbeq	r0, [r8, #0]!
     834:	05e40000 	strbeq	r0, [r4, #0]!
     838:	c80d0000 	stmdagt	sp, {}	; <UNPREDICTABLE>
     83c:	9c000082 	stcls	0, cr0, [r0], {130}	; 0x82
     840:	0e000003 	cdpeq	0, 0, cr0, cr0, cr3, {0}
     844:	0c055001 	stceq	0, cr5, [r5], {1}
     848:	2020001c 	eorcs	r0, r0, ip, lsl r0
     84c:	0551010e 	ldrbeq	r0, [r1, #-270]	; 0xfffffef2
     850:	5001f331 	andpl	pc, r1, r1, lsr r3	; <UNPREDICTABLE>
     854:	0f000024 	svceq	0x00000024
     858:	000002db 	ldrdeq	r0, [r0], -fp
     85c:	9c063601 	stcls	6, cr3, [r6], {1}
     860:	10000082 	andne	r0, r0, r2, lsl #1
     864:	01000000 	mrseq	r0, (UNDEF: 0)
     868:	0002d99c 	muleq	r2, ip, r9
     86c:	69700a00 	ldmdbvs	r0!, {r9, fp}^
     870:	3601006e 	strcc	r0, [r1], -lr, rrx
     874:	00002c1f 	andeq	r2, r0, pc, lsl ip
     878:	00060d00 	andeq	r0, r6, r0, lsl #26
     87c:	00060900 	andeq	r0, r6, r0, lsl #18
     880:	82a80d00 	adchi	r0, r8, #0, 26
     884:	02d90000 	sbcseq	r0, r9, #0
     888:	010e0000 	mrseq	r0, (UNDEF: 14)
     88c:	01f30350 	mvnseq	r0, r0, asr r3
     890:	51010e50 	tstpl	r1, r0, asr lr
     894:	00003101 	andeq	r3, r0, r1, lsl #2
     898:	00033e0f 	andeq	r3, r3, pc, lsl #28
     89c:	06280100 	strteq	r0, [r8], -r0, lsl #2
     8a0:	00008238 	andeq	r8, r0, r8, lsr r2
     8a4:	00000064 	andeq	r0, r0, r4, rrx
     8a8:	03749c01 	cmneq	r4, #256	; 0x100
     8ac:	700a0000 	andvc	r0, sl, r0
     8b0:	01006e69 	tsteq	r0, r9, ror #28
     8b4:	002c2128 	eoreq	r2, ip, r8, lsr #2
     8b8:	06320000 	ldrteq	r0, [r2], -r0
     8bc:	062e0000 	strteq	r0, [lr], -r0
     8c0:	eb120000 	bl	4808c8 <__bss_end__+0x477330>
     8c4:	01000002 	tsteq	r0, r2
     8c8:	00c23228 	sbceq	r3, r2, r8, lsr #4
     8cc:	06570000 	ldrbeq	r0, [r7], -r0
     8d0:	06530000 	ldrbeq	r0, [r3], -r0
     8d4:	6f0c0000 	svcvs	0x000c0000
     8d8:	01006666 	tsteq	r0, r6, ror #12
     8dc:	002c0e2d 	eoreq	r0, ip, sp, lsr #28
     8e0:	067a0000 	ldrbteq	r0, [sl], -r0
     8e4:	06780000 	ldrbteq	r0, [r8], -r0
     8e8:	670c0000 	strvs	r0, [ip, -r0]
     8ec:	0e2e0100 	sufeqe	f0, f6, f0
     8f0:	0000002c 	andeq	r0, r0, ip, lsr #32
     8f4:	0000068f 	andeq	r0, r0, pc, lsl #13
     8f8:	0000068d 	andeq	r0, r0, sp, lsl #13
     8fc:	0100760c 	tsteq	r0, ip, lsl #12
     900:	002c0e30 	eoreq	r0, ip, r0, lsr lr
     904:	06aa0000 	strteq	r0, [sl], r0
     908:	06a20000 	strteq	r0, [r2], r0
     90c:	80100000 	andshi	r0, r0, r0
     910:	90000082 	andls	r0, r0, r2, lsl #1
     914:	63000003 	movwvs	r0, #3
     918:	0e000003 	cdpeq	0, 0, cr0, cr0, cr3, {0}
     91c:	76025001 	strvc	r5, [r2], -r1
     920:	940d0000 	strls	r0, [sp], #-0
     924:	9c000082 	stcls	0, cr0, [r0], {130}	; 0x82
     928:	0e000003 	cdpeq	0, 0, cr0, cr0, cr3, {0}
     92c:	76025001 	strvc	r5, [r2], -r1
     930:	13000000 	movwne	r0, #0
     934:	00000260 	andeq	r0, r0, r0, ror #4
     938:	6218b102 	andsvs	fp, r8, #-2147483648	; 0x80000000
     93c:	03000000 	movweq	r0, #0
     940:	00000390 	muleq	r0, r0, r3
     944:	02007814 	andeq	r7, r0, #20, 16	; 0x140000
     948:	00622bb1 	strhteq	r2, [r2], #-177	; 0xffffff4f
     94c:	15000000 	strne	r0, [r0, #-0]
     950:	00000270 	andeq	r0, r0, r0, ror r2
     954:	00000270 	andeq	r0, r0, r0, ror r2
     958:	150ac202 	strne	ip, [sl, #-514]	; 0xfffffdfe
     95c:	0000026a 	andeq	r0, r0, sl, ror #4
     960:	0000026a 	andeq	r0, r0, sl, ror #4
     964:	0006ad02 	andeq	sl, r6, r2, lsl #26
     968:	0000017c 	andeq	r0, r0, ip, ror r1
     96c:	03780004 	cmneq	r8, #4
     970:	01040000 	mrseq	r0, (UNDEF: 4)
     974:	00000103 	andeq	r0, r0, r3, lsl #2
     978:	00037f0c 	andeq	r7, r3, ip, lsl #30
     97c:	00022100 	andeq	r2, r2, r0, lsl #2
     980:	00835400 	addeq	r5, r3, r0, lsl #8
     984:	00005800 	andeq	r5, r0, r0, lsl #16
     988:	00049f00 	andeq	r9, r4, r0, lsl #30
     98c:	036b0200 	cmneq	fp, #0, 4
     990:	28020000 	stmdacs	r2, {}	; <UNPREDICTABLE>
     994:	0000311b 	andeq	r3, r0, fp, lsl r1
     998:	038f0300 	orreq	r0, pc, #0, 6
     99c:	03040000 	movweq	r0, #16384	; 0x4000
     9a0:	00004800 	andeq	r4, r0, r0, lsl #16
     9a4:	037a0400 	cmneq	sl, #0, 8
     9a8:	00480000 	subeq	r0, r8, r0
     9ac:	00000000 	andeq	r0, r0, r0
     9b0:	91020405 	tstls	r2, r5, lsl #8
     9b4:	02000003 	andeq	r0, r0, #3
     9b8:	00251863 	eoreq	r1, r5, r3, ror #16
     9bc:	04060000 	streq	r0, [r6], #-0
     9c0:	746e6905 	strbtvc	r6, [lr], #-2309	; 0xfffff6fb
     9c4:	07040700 	streq	r0, [r4, -r0, lsl #14]
     9c8:	000001ae 	andeq	r0, r0, lr, lsr #3
     9cc:	7d060107 	stfvcs	f0, [r6, #-28]	; 0xffffffe4
     9d0:	07000000 	streq	r0, [r0, -r0]
     9d4:	01e20502 	mvneq	r0, r2, lsl #10
     9d8:	04070000 	streq	r0, [r7], #-0
     9dc:	0001c705 	andeq	ip, r1, r5, lsl #14
     9e0:	05080700 	streq	r0, [r8, #-1792]	; 0xfffff900
     9e4:	000001c2 	andeq	r0, r0, r2, asr #3
     9e8:	7b080107 	blvc	200e0c <__bss_end__+0x1f7874>
     9ec:	07000000 	streq	r0, [r0, -r0]
     9f0:	00ac0702 	adceq	r0, ip, r2, lsl #14
     9f4:	04070000 	streq	r0, [r7], #-0
     9f8:	0001a907 	andeq	sl, r1, r7, lsl #18
     9fc:	07080700 	streq	r0, [r8, -r0, lsl #14]
     a00:	000001a4 	andeq	r0, r0, r4, lsr #3
     a04:	00005608 	andeq	r5, r0, r8, lsl #12
     a08:	0000ab00 	andeq	sl, r0, r0, lsl #22
     a0c:	00ab0900 	adceq	r0, fp, r0, lsl #18
     a10:	0a000000 	beq	a18 <__code_start__-0x75e8>
     a14:	0000b804 	andeq	fp, r0, r4, lsl #16
     a18:	08010700 	stmdaeq	r1, {r8, r9, sl}
     a1c:	00000084 	andeq	r0, r0, r4, lsl #1
     a20:	0000b10b 	andeq	fp, r0, fp, lsl #2
     a24:	03a20c00 			; <UNDEFINED> instruction: 0x03a20c00
     a28:	21040000 	mrscs	r0, (UNDEF: 4)
     a2c:	0000c90e 	andeq	ip, r0, lr, lsl #18
     a30:	9c040a00 			; <UNDEFINED> instruction: 0x9c040a00
     a34:	0d000000 	stceq	0, cr0, [r0, #-0]
     a38:	00000364 	andeq	r0, r0, r4, ror #6
     a3c:	56050601 	strpl	r0, [r5], -r1, lsl #12
     a40:	54000000 	strpl	r0, [r0], #-0
     a44:	58000083 	stmdapl	r0, {r0, r1, r7}
     a48:	01000000 	mrseq	r0, (UNDEF: 0)
     a4c:	0001629c 	muleq	r1, ip, r2
     a50:	6d660e00 	stclvs	14, cr0, [r6, #-0]
     a54:	06010074 			; <UNDEFINED> instruction: 0x06010074
     a58:	0000ab18 	andeq	sl, r0, r8, lsl fp
     a5c:	70910200 	addsvc	r0, r1, r0, lsl #4
     a60:	7562100f 	strbvc	r1, [r2, #-15]!
     a64:	08010066 	stmdaeq	r1, {r1, r2, r5, r6}
     a68:	00016211 	andeq	r6, r1, r1, lsl r2
     a6c:	98030500 	stmdals	r3, {r8, sl}
     a70:	11000091 	swpne	r0, r1, [r0]	; <UNPREDICTABLE>
     a74:	0000035c 	andeq	r0, r0, ip, asr r3
     a78:	4a0d0901 	bmi	342e84 <__bss_end__+0x3398ec>
     a7c:	02000000 	andeq	r0, r0, #0
     a80:	73125c91 	tstvc	r2, #37120	; 0x9100
     a84:	0c01007a 	stceq	0, cr0, [r1], {122}	; 0x7a
     a88:	0000560d 	andeq	r5, r0, sp, lsl #12
     a8c:	0006ec00 	andeq	lr, r6, r0, lsl #24
     a90:	0006e600 	andeq	lr, r6, r0, lsl #12
     a94:	837c1300 	cmnhi	ip, #0, 6
     a98:	01730000 	cmneq	r3, r0
     a9c:	01550000 	cmpeq	r5, r0
     aa0:	01140000 	tsteq	r4, r0
     aa4:	00750250 	rsbseq	r0, r5, r0, asr r2
     aa8:	03510114 	cmpeq	r1, #20, 2
     aac:	1404000a 	strne	r0, [r4], #-10
     ab0:	91035201 	tstls	r3, r1, lsl #4
     ab4:	01140648 	tsteq	r4, r8, asr #12
     ab8:	4c910253 	lfmmi	f0, 4, [r1], {83}	; 0x53
     abc:	83901500 	orrshi	r1, r0, #0, 10
     ac0:	01140000 	tsteq	r4, r0
     ac4:	00750250 	rsbseq	r0, r5, r0, asr r2
     ac8:	b1160000 	tstlt	r6, r0
     acc:	73000000 	movwvc	r0, #0
     ad0:	17000001 	strne	r0, [r0, -r1]
     ad4:	0000005d 	andeq	r0, r0, sp, asr r0
     ad8:	180003ff 	stmdane	r0, {r0, r1, r2, r3, r4, r5, r6, r7, r8, r9}
     adc:	00000361 	andeq	r0, r0, r1, ror #6
     ae0:	00000361 	andeq	r0, r0, r1, ror #6
     ae4:	00050205 	andeq	r0, r5, r5, lsl #4
     ae8:	000000f3 	strdeq	r0, [r0], -r3
     aec:	04ba0004 	ldrteq	r0, [sl], #4
     af0:	01040000 	mrseq	r0, (UNDEF: 4)
     af4:	00000103 	andeq	r0, r0, r3, lsl #2
     af8:	0003b30c 	andeq	fp, r3, ip, lsl #6
     afc:	00022100 	andeq	r2, r2, r0, lsl #2
     b00:	0083ac00 	addeq	sl, r3, r0, lsl #24
     b04:	00003400 	andeq	r3, r0, r0, lsl #8
     b08:	0005b000 	andeq	fp, r5, r0
     b0c:	05040200 	streq	r0, [r4, #-512]	; 0xfffffe00
     b10:	00746e69 	rsbseq	r6, r4, r9, ror #28
     b14:	ae070403 	cdpge	4, 0, cr0, cr7, cr3, {0}
     b18:	03000001 	movweq	r0, #1
     b1c:	007d0601 	rsbseq	r0, sp, r1, lsl #12
     b20:	02030000 	andeq	r0, r3, #0
     b24:	0001e205 	andeq	lr, r1, r5, lsl #4
     b28:	05040300 	streq	r0, [r4, #-768]	; 0xfffffd00
     b2c:	000001c7 	andeq	r0, r0, r7, asr #3
     b30:	c2050803 	andgt	r0, r5, #196608	; 0x30000
     b34:	03000001 	movweq	r0, #1
     b38:	007b0801 	rsbseq	r0, fp, r1, lsl #16
     b3c:	02030000 	andeq	r0, r3, #0
     b40:	0000ac07 	andeq	sl, r0, r7, lsl #24
     b44:	07040300 	streq	r0, [r4, -r0, lsl #6]
     b48:	000001a9 	andeq	r0, r0, r9, lsr #3
     b4c:	a4070803 	strge	r0, [r7], #-2051	; 0xfffff7fd
     b50:	04000001 	streq	r0, [r0], #-1
     b54:	00000025 	andeq	r0, r0, r5, lsr #32
     b58:	0000007a 	andeq	r0, r0, sl, ror r0
     b5c:	00002505 	andeq	r2, r0, r5, lsl #10
     b60:	a7060000 	strge	r0, [r6, -r0]
     b64:	02000003 	andeq	r0, r0, #3
     b68:	00860e1c 	addeq	r0, r6, ip, lsl lr
     b6c:	04070000 	streq	r0, [r7], #-0
     b70:	0000006b 	andeq	r0, r0, fp, rrx
     b74:	00002504 	andeq	r2, r0, r4, lsl #10
     b78:	00009b00 	andeq	r9, r0, r0, lsl #22
     b7c:	009b0500 	addseq	r0, fp, r0, lsl #10
     b80:	07000000 	streq	r0, [r0, -r0]
     b84:	0000a804 	andeq	sl, r0, r4, lsl #16
     b88:	08010300 	stmdaeq	r1, {r8, r9}
     b8c:	00000084 	andeq	r0, r0, r4, lsl #1
     b90:	0000a108 	andeq	sl, r0, r8, lsl #2
     b94:	03a20600 			; <UNDEFINED> instruction: 0x03a20600
     b98:	21020000 	mrscs	r0, (UNDEF: 2)
     b9c:	0000b90e 	andeq	fp, r0, lr, lsl #18
     ba0:	8c040700 	stchi	7, cr0, [r4], {-0}
     ba4:	09000000 	stmdbeq	r0, {}	; <UNPREDICTABLE>
     ba8:	000000ad 	andeq	r0, r0, sp, lsr #1
     bac:	05070c01 	streq	r0, [r7, #-3073]	; 0xfffff3ff
     bb0:	00919003 	addseq	r9, r1, r3
     bb4:	03990a00 	orrseq	r0, r9, #0, 20
     bb8:	04010000 	streq	r0, [r1], #-0
     bbc:	00002505 	andeq	r2, r0, r5, lsl #10
     bc0:	0083ac00 	addeq	sl, r3, r0, lsl #24
     bc4:	00003400 	andeq	r3, r0, r0, lsl #8
     bc8:	0b9c0100 	bleq	fe700fd0 <__bss_end__+0xfe6f7a38>
     bcc:	04010070 	streq	r0, [r1], #-112	; 0xffffff90
     bd0:	00009b1f 	andeq	r9, r0, pc, lsl fp
     bd4:	00071900 	andeq	r1, r7, r0, lsl #18
     bd8:	00071500 	andeq	r1, r7, r0, lsl #10
     bdc:	1d000000 	stcne	0, cr0, [r0, #-0]
     be0:	04000001 	streq	r0, [r0], #-1
     be4:	00055800 	andeq	r5, r5, r0, lsl #16
     be8:	03010400 	movweq	r0, #5120	; 0x1400
     bec:	0c000001 	stceq	0, cr0, [r0], {1}
     bf0:	000003df 	ldrdeq	r0, [r0], -pc	; <UNPREDICTABLE>
     bf4:	00000221 	andeq	r0, r0, r1, lsr #4
     bf8:	000083e0 	andeq	r8, r0, r0, ror #7
     bfc:	0000003c 	andeq	r0, r0, ip, lsr r0
     c00:	0000065e 	andeq	r0, r0, lr, asr r6
     c04:	69050402 	stmdbvs	r5, {r1, sl}
     c08:	0300746e 	movweq	r7, #1134	; 0x46e
     c0c:	01ae0704 			; <UNDEFINED> instruction: 0x01ae0704
     c10:	01030000 	mrseq	r0, (UNDEF: 3)
     c14:	00007d06 	andeq	r7, r0, r6, lsl #26
     c18:	05020300 	streq	r0, [r2, #-768]	; 0xfffffd00
     c1c:	000001e2 	andeq	r0, r0, r2, ror #3
     c20:	c7050403 	strgt	r0, [r5, -r3, lsl #8]
     c24:	03000001 	movweq	r0, #1
     c28:	01c20508 	biceq	r0, r2, r8, lsl #10
     c2c:	01030000 	mrseq	r0, (UNDEF: 3)
     c30:	00007b08 	andeq	r7, r0, r8, lsl #22
     c34:	07020300 	streq	r0, [r2, -r0, lsl #6]
     c38:	000000ac 	andeq	r0, r0, ip, lsr #1
     c3c:	a9070403 	stmdbge	r7, {r0, r1, sl}
     c40:	03000001 	movweq	r0, #1
     c44:	01a40708 			; <UNDEFINED> instruction: 0x01a40708
     c48:	25040000 	strcs	r0, [r4, #-0]
     c4c:	7a000000 	bvc	c54 <__code_start__-0x73ac>
     c50:	05000000 	streq	r0, [r0, #-0]
     c54:	00000025 	andeq	r0, r0, r5, lsr #32
     c58:	03a70600 			; <UNDEFINED> instruction: 0x03a70600
     c5c:	1c020000 	stcne	0, cr0, [r2], {-0}
     c60:	0000860e 	andeq	r8, r0, lr, lsl #12
     c64:	6b040700 	blvs	10286c <__bss_end__+0xf92d4>
     c68:	03000000 	movweq	r0, #0
     c6c:	00840801 	addeq	r0, r4, r1, lsl #16
     c70:	7a080000 	bvc	200c78 <__bss_end__+0x1f76e0>
     c74:	01000000 	mrseq	r0, (UNDEF: 0)
     c78:	03050706 	movweq	r0, #22278	; 0x5706
     c7c:	00009194 	muleq	r0, r4, r1
     c80:	0003d209 	andeq	sp, r3, r9, lsl #4
     c84:	060b0100 	streq	r0, [fp], -r0, lsl #2
     c88:	0000840c 	andeq	r8, r0, ip, lsl #8
     c8c:	00000010 	andeq	r0, r0, r0, lsl r0
     c90:	00c59c01 	sbceq	r9, r5, r1, lsl #24
     c94:	660a0000 	strvs	r0, [sl], -r0
     c98:	0b010070 	bleq	40e60 <__bss_end__+0x378c8>
     c9c:	00008619 	andeq	r8, r0, r9, lsl r6
     ca0:	00500100 	subseq	r0, r0, r0, lsl #2
     ca4:	0003fa0b 	andeq	pc, r3, fp, lsl #20
     ca8:	06080100 	streq	r0, [r8], -r0, lsl #2
     cac:	000083f4 	strdeq	r8, [r0], -r4
     cb0:	00000018 	andeq	r0, r0, r8, lsl r0
     cb4:	c10c9c01 	tstgt	ip, r1, lsl #24
     cb8:	01000003 	tsteq	r0, r3
     cbc:	00250c03 	eoreq	r0, r5, r3, lsl #24
     cc0:	83e00000 	mvnhi	r0, #0
     cc4:	00140000 	andseq	r0, r4, r0
     cc8:	9c010000 	stcls	0, cr0, [r1], {-0}
     ccc:	00000114 	andeq	r0, r0, r4, lsl r1
     cd0:	0100630d 	tsteq	r0, sp, lsl #6
     cd4:	00252103 	eoreq	r2, r5, r3, lsl #2
     cd8:	073b0000 	ldreq	r0, [fp, -r0]!
     cdc:	07370000 	ldreq	r0, [r7, -r0]!
     ce0:	ec0e0000 	stc	0, cr0, [lr], {-0}
     ce4:	14000083 	strne	r0, [r0], #-131	; 0xffffff7d
     ce8:	0f000001 	svceq	0x00000001
     cec:	74025001 	strvc	r5, [r2], #-1
     cf0:	10000000 	andne	r0, r0, r0
     cf4:	000003f0 	strdeq	r0, [r0], -r0	; <UNPREDICTABLE>
     cf8:	000003f0 	strdeq	r0, [r0], -r0	; <UNPREDICTABLE>
     cfc:	00064202 	andeq	r4, r6, r2, lsl #4
     d00:	00000a77 	andeq	r0, r0, r7, ror sl
     d04:	06600004 	strbteq	r0, [r0], -r4
     d08:	01040000 	mrseq	r0, (UNDEF: 4)
     d0c:	00000103 	andeq	r0, r0, r3, lsl #2
     d10:	00041a0c 	andeq	r1, r4, ip, lsl #20
     d14:	00022100 	andeq	r2, r2, r0, lsl #2
     d18:	00841c00 	addeq	r1, r4, r0, lsl #24
     d1c:	00074800 	andeq	r4, r7, r0, lsl #16
     d20:	00070600 	andeq	r0, r7, r0, lsl #12
     d24:	05040200 	streq	r0, [r4, #-512]	; 0xfffffe00
     d28:	00746e69 	rsbseq	r6, r4, r9, ror #28
     d2c:	ae070403 	cdpge	4, 0, cr0, cr7, cr3, {0}
     d30:	03000001 	movweq	r0, #1
     d34:	007d0601 	rsbseq	r0, sp, r1, lsl #12
     d38:	02030000 	andeq	r0, r3, #0
     d3c:	0001e205 	andeq	lr, r1, r5, lsl #4
     d40:	05040300 	streq	r0, [r4, #-768]	; 0xfffffd00
     d44:	000001c7 	andeq	r0, r0, r7, asr #3
     d48:	c2050803 	andgt	r0, r5, #196608	; 0x30000
     d4c:	03000001 	movweq	r0, #1
     d50:	007b0801 	rsbseq	r0, fp, r1, lsl #16
     d54:	02030000 	andeq	r0, r3, #0
     d58:	0000ac07 	andeq	sl, r0, r7, lsl #24
     d5c:	03250400 			; <UNDEFINED> instruction: 0x03250400
     d60:	34020000 	strcc	r0, [r2], #-0
     d64:	00006919 	andeq	r6, r0, r9, lsl r9
     d68:	07040300 	streq	r0, [r4, -r0, lsl #6]
     d6c:	000001a9 	andeq	r0, r0, r9, lsr #3
     d70:	00041104 	andeq	r1, r4, r4, lsl #2
     d74:	19370200 	ldmdbne	r7!, {r9}
     d78:	0000007c 	andeq	r0, r0, ip, ror r0
     d7c:	a4070803 	strge	r0, [r7], #-2051	; 0xfffff7fd
     d80:	05000001 	streq	r0, [r0, #-1]
     d84:	00000025 	andeq	r0, r0, r5, lsr #32
     d88:	00000092 	muleq	r0, r2, r0
     d8c:	00002506 	andeq	r2, r0, r6, lsl #10
     d90:	a7070000 	strge	r0, [r7, -r0]
     d94:	03000003 	movweq	r0, #3
     d98:	009e0e1c 	addseq	r0, lr, ip, lsl lr
     d9c:	04080000 	streq	r0, [r8], #-0
     da0:	00000083 	andeq	r0, r0, r3, lsl #1
     da4:	00002505 	andeq	r2, r0, r5, lsl #10
     da8:	0000b300 	andeq	fp, r0, r0, lsl #6
     dac:	00b30600 	adcseq	r0, r3, r0, lsl #12
     db0:	08000000 	stmdaeq	r0, {}	; <UNPREDICTABLE>
     db4:	0000c004 	andeq	ip, r0, r4
     db8:	08010300 	stmdaeq	r1, {r8, r9}
     dbc:	00000084 	andeq	r0, r0, r4, lsl #1
     dc0:	0000b909 	andeq	fp, r0, r9, lsl #18
     dc4:	03a20700 			; <UNDEFINED> instruction: 0x03a20700
     dc8:	21030000 	mrscs	r0, (UNDEF: 3)
     dcc:	0000d10e 	andeq	sp, r0, lr, lsl #2
     dd0:	a4040800 	strge	r0, [r4], #-2048	; 0xfffff800
     dd4:	04000000 	streq	r0, [r0], #-0
     dd8:	0000036b 	andeq	r0, r0, fp, ror #6
     ddc:	e31b2804 	tst	fp, #4, 16	; 0x40000
     de0:	0a000000 	beq	de8 <__code_start__-0x7218>
     de4:	0000038f 	andeq	r0, r0, pc, lsl #7
     de8:	fa000504 	blx	2200 <__code_start__-0x5e00>
     dec:	0b000000 	bleq	df4 <__code_start__-0x720c>
     df0:	0000037a 	andeq	r0, r0, sl, ror r3
     df4:	000000fa 	strdeq	r0, [r0], -sl
     df8:	040c0000 	streq	r0, [ip], #-0
     dfc:	00039104 	andeq	r9, r3, r4, lsl #2
     e00:	18630400 	stmdane	r3!, {sl}^
     e04:	000000d7 	ldrdeq	r0, [r0], -r7
     e08:	0003610d 	andeq	r6, r3, sp, lsl #2
     e0c:	05810100 	streq	r0, [r1, #256]	; 0x100
     e10:	00000025 	andeq	r0, r0, r5, lsr #32
     e14:	000086ac 	andeq	r8, r0, ip, lsr #13
     e18:	000004b8 			; <UNDEFINED> instruction: 0x000004b8
     e1c:	06b79c01 	ldrteq	r9, [r7], r1, lsl #24
     e20:	620e0000 	andvs	r0, lr, #0
     e24:	01006675 	tsteq	r0, r5, ror r6
     e28:	06b71581 	ldrteq	r1, [r7], r1, lsl #11
     e2c:	075f0000 	ldrbeq	r0, [pc, -r0]
     e30:	07590000 	ldrbeq	r0, [r9, -r0]
     e34:	6e0e0000 	cdpvs	0, 0, cr0, cr14, cr0, {0}
     e38:	1e810100 	rmfnes	f0, f1, f0
     e3c:	00000025 	andeq	r0, r0, r5, lsr #32
     e40:	00000791 	muleq	r0, r1, r7
     e44:	0000078b 	andeq	r0, r0, fp, lsl #15
     e48:	746d660e 	strbtvc	r6, [sp], #-1550	; 0xfffff9f2
     e4c:	2d810100 	stfcss	f0, [r1]
     e50:	000000b3 	strheq	r0, [r0], -r3
     e54:	000007cb 	andeq	r0, r0, fp, asr #15
     e58:	000007bf 			; <UNDEFINED> instruction: 0x000007bf
     e5c:	00035c0f 	andeq	r5, r3, pc, lsl #24
     e60:	3a810100 	bcc	fe041268 <__bss_end__+0xfe037cd0>
     e64:	000000fc 	strdeq	r0, [r0], -ip
     e68:	7dd49103 	ldfvcp	f1, [r4, #12]
     e6c:	01007010 	tsteq	r0, r0, lsl r0
     e70:	06b70882 	ldrteq	r0, [r7], r2, lsl #17
     e74:	08290000 	stmdaeq	r9!, {}	; <UNPREDICTABLE>
     e78:	08150000 	ldmdaeq	r5, {}	; <UNPREDICTABLE>
     e7c:	65100000 	ldrvs	r0, [r0, #-0]
     e80:	12820100 	addne	r0, r2, #0, 2
     e84:	000006b7 			; <UNDEFINED> instruction: 0x000006b7
     e88:	000008ab 	andeq	r0, r0, fp, lsr #17
     e8c:	000008a7 	andeq	r0, r0, r7, lsr #17
     e90:	00307810 	eorseq	r7, r0, r0, lsl r8
     e94:	5d0e8301 	stcpl	3, cr8, [lr, #-4]
     e98:	d8000000 	stmdale	r0, {}	; <UNPREDICTABLE>
     e9c:	d2000008 	andle	r0, r0, #8
     ea0:	10000008 	andne	r0, r0, r8
     ea4:	01003178 	tsteq	r0, r8, ror r1
     ea8:	005d1183 	subseq	r1, sp, r3, lsl #3
     eac:	09050000 	stmdbeq	r5, {}	; <UNPREDICTABLE>
     eb0:	09010000 	stmdbeq	r1, {}	; <UNPREDICTABLE>
     eb4:	57110000 	ldrpl	r0, [r1, -r0]
     eb8:	01000004 	tsteq	r0, r4
     ebc:	00b31186 	adcseq	r1, r3, r6, lsl #3
     ec0:	09270000 	stmdbeq	r7!, {}	; <UNPREDICTABLE>
     ec4:	09230000 	stmdbeq	r3!, {}	; <UNPREDICTABLE>
     ec8:	33120000 	tstcc	r2, #0
     ecc:	cd000004 	stcgt	0, cr0, [r0, #-16]
     ed0:	05000006 	streq	r0, [r0, #-6]
     ed4:	00917803 	addseq	r7, r1, r3, lsl #16
     ed8:	87181300 	ldrhi	r1, [r8, -r0, lsl #6]
     edc:	03fc0000 	mvnseq	r0, #0
     ee0:	73100000 	tstvc	r0, #0
     ee4:	0a910100 	beq	fe4412ec <__bss_end__+0xfe437d54>
     ee8:	000006b7 			; <UNDEFINED> instruction: 0x000006b7
     eec:	0000095d 	andeq	r0, r0, sp, asr r9
     ef0:	00000947 	andeq	r0, r0, r7, asr #18
     ef4:	6d756e14 	ldclvs	14, cr6, [r5, #-80]!	; 0xffffffb0
     ef8:	0d910100 	ldfeqs	f0, [r1]
     efc:	000006d2 	ldrdeq	r0, [r0], -r2
     f00:	7dd89103 	ldfvcp	f1, [r8, #12]
     f04:	00049115 	andeq	r9, r4, r5, lsl r1
     f08:	17910100 	ldrne	r0, [r1, r0, lsl #2]
     f0c:	000006d2 	ldrdeq	r0, [r0], -r2
     f10:	7ed89103 	atnvce	f1, f3
     f14:	00042d11 	andeq	r2, r4, r1, lsl sp
     f18:	0d920100 	ldfeqs	f0, [r2]
     f1c:	0000002c 	andeq	r0, r0, ip, lsr #32
     f20:	000009e4 	andeq	r0, r0, r4, ror #19
     f24:	000009de 	ldrdeq	r0, [r0], -lr
     f28:	0087dc16 	addeq	sp, r7, r6, lsl ip
     f2c:	0001a400 	andeq	sl, r1, r0, lsl #8
     f30:	0004d900 	andeq	sp, r4, r0, lsl #18
     f34:	79741000 	ldmdbvc	r4!, {ip}^
     f38:	1d9e0100 	ldfnes	f0, [lr]
     f3c:	000000b3 	strheq	r0, [r0], -r3
     f40:	00000a18 	andeq	r0, r0, r8, lsl sl
     f44:	00000a0e 	andeq	r0, r0, lr, lsl #20
     f48:	00787817 	rsbseq	r7, r8, r7, lsl r8
     f4c:	701aa201 	andsvc	sl, sl, r1, lsl #4
     f50:	18000000 	stmdane	r0, {}	; <UNPREDICTABLE>
     f54:	000087ec 	andeq	r8, r0, ip, ror #15
     f58:	00000a32 	andeq	r0, r0, r2, lsr sl
     f5c:	00000275 	andeq	r0, r0, r5, ror r2
     f60:	02500119 	subseq	r0, r0, #1073741830	; 0x40000006
     f64:	01190076 	tsteq	r9, r6, ror r0
     f68:	6c030551 	cfstr32vs	mvfx0, [r3], {81}	; 0x51
     f6c:	19000090 	stmdbne	r0, {r4, r7}
     f70:	33015201 	movwcc	r5, #4609	; 0x1201
     f74:	88041800 	stmdahi	r4, {fp, ip}
     f78:	0a320000 	beq	c80f80 <__bss_end__+0xc779e8>
     f7c:	02970000 	addseq	r0, r7, #0
     f80:	01190000 	tsteq	r9, r0
     f84:	00760250 	rsbseq	r0, r6, r0, asr r2
     f88:	05510119 	ldrbeq	r0, [r1, #-281]	; 0xfffffee7
     f8c:	00907003 	addseq	r7, r0, r3
     f90:	52011900 	andpl	r1, r1, #0, 18
     f94:	18003301 	stmdane	r0, {r0, r8, r9, ip, sp}
     f98:	00008838 	andeq	r8, r0, r8, lsr r8
     f9c:	00000a3e 	andeq	r0, r0, lr, lsr sl
     fa0:	000002b4 			; <UNDEFINED> instruction: 0x000002b4
     fa4:	05500119 	ldrbeq	r0, [r0, #-281]	; 0xfffffee7
     fa8:	00907403 	addseq	r7, r0, r3, lsl #8
     fac:	51011900 	tstpl	r1, r0, lsl #18
     fb0:	00007702 	andeq	r7, r0, r2, lsl #14
     fb4:	00884418 	addeq	r4, r8, r8, lsl r4
     fb8:	000a3e00 	andeq	r3, sl, r0, lsl #28
     fbc:	0002d100 	andeq	sp, r2, r0, lsl #2
     fc0:	50011900 	andpl	r1, r1, r0, lsl #18
     fc4:	907c0305 	rsbsls	r0, ip, r5, lsl #6
     fc8:	01190000 	tsteq	r9, r0
     fcc:	007a0251 	rsbseq	r0, sl, r1, asr r2
     fd0:	88541800 	ldmdahi	r4, {fp, ip}^
     fd4:	0a320000 	beq	c80fdc <__bss_end__+0xc77a44>
     fd8:	02f30000 	rscseq	r0, r3, #0
     fdc:	01190000 	tsteq	r9, r0
     fe0:	00760250 	rsbseq	r0, r6, r0, asr r2
     fe4:	05510119 	ldrbeq	r0, [r1, #-281]	; 0xfffffee7
     fe8:	00906c03 	addseq	r6, r0, r3, lsl #24
     fec:	52011900 	andpl	r1, r1, #0, 18
     ff0:	18003301 	stmdane	r0, {r0, r8, r9, ip, sp}
     ff4:	0000886c 	andeq	r8, r0, ip, ror #16
     ff8:	00000a32 	andeq	r0, r0, r2, lsr sl
     ffc:	00000315 	andeq	r0, r0, r5, lsl r3
    1000:	02500119 	subseq	r0, r0, #1073741830	; 0x40000006
    1004:	01190076 	tsteq	r9, r6, ror r0
    1008:	70030551 	andvc	r0, r3, r1, asr r5
    100c:	19000090 	stmdbne	r0, {r4, r7}
    1010:	33015201 	movwcc	r5, #4609	; 0x1201
    1014:	88941800 	ldmhi	r4, {fp, ip}
    1018:	06e20000 	strbteq	r0, [r2], r0
    101c:	03490000 	movteq	r0, #36864	; 0x9000
    1020:	01190000 	tsteq	r9, r0
    1024:	193a0150 	ldmdbne	sl!, {r4, r6, r8}
    1028:	91035101 	tstls	r3, r1, lsl #2
    102c:	01197dd0 			; <UNDEFINED> instruction: 0x01197dd0
    1030:	80080252 	andhi	r0, r8, r2, asr r2
    1034:	02530119 	subseq	r0, r3, #1073741830	; 0x40000006
    1038:	02190077 	andseq	r0, r9, #119	; 0x77
    103c:	7502007d 	strvc	r0, [r2, #-125]	; 0xffffff83
    1040:	7d021900 	vstrvc.16	s2, [r2, #-0]	; <UNPREDICTABLE>
    1044:	00760204 	rsbseq	r0, r6, r4, lsl #4
    1048:	88b41800 	ldmhi	r4!, {fp, ip}
    104c:	06e20000 	strbteq	r0, [r2], r0
    1050:	037d0000 	cmneq	sp, #0
    1054:	01190000 	tsteq	r9, r0
    1058:	193a0150 	ldmdbne	sl!, {r4, r6, r8}
    105c:	91035101 	tstls	r3, r1, lsl #2
    1060:	01197ed0 			; <UNDEFINED> instruction: 0x01197ed0
    1064:	80080252 	andhi	r0, r8, r2, asr r2
    1068:	02530119 	subseq	r0, r3, #1073741830	; 0x40000006
    106c:	0219007a 	andseq	r0, r9, #122	; 0x7a
    1070:	7502007d 	strvc	r0, [r2, #-125]	; 0xffffff83
    1074:	7d021900 	vstrvc.16	s2, [r2, #-0]	; <UNPREDICTABLE>
    1078:	00760204 	rsbseq	r0, r6, r4, lsl #4
    107c:	88c01800 	stmiahi	r0, {fp, ip}^
    1080:	0a4a0000 	beq	1281088 <__bss_end__+0x1277af0>
    1084:	039b0000 	orrseq	r0, fp, #0
    1088:	01190000 	tsteq	r9, r0
    108c:	d0910350 	addsle	r0, r1, r0, asr r3
    1090:	5101197d 	tstpl	r1, sp, ror r9
    1094:	90300305 	eorsls	r0, r0, r5, lsl #6
    1098:	18000000 	stmdane	r0, {}	; <UNPREDICTABLE>
    109c:	000088d4 	ldrdeq	r8, [r0], -r4
    10a0:	00000a56 	andeq	r0, r0, r6, asr sl
    10a4:	000003b7 			; <UNDEFINED> instruction: 0x000003b7
    10a8:	03500119 	cmpeq	r0, #1073741830	; 0x40000006
    10ac:	197dd091 	ldmdbne	sp!, {r0, r4, r7, ip, lr, pc}^
    10b0:	91035101 	tstls	r3, r1, lsl #2
    10b4:	18007ed0 	stmdane	r0, {r4, r6, r7, r9, sl, fp, ip, sp, lr}
    10b8:	000088f8 	strdeq	r8, [r0], -r8	; <UNPREDICTABLE>
    10bc:	00000a3e 	andeq	r0, r0, lr, lsr sl
    10c0:	000003f0 	strdeq	r0, [r0], -r0	; <UNPREDICTABLE>
    10c4:	05500119 	ldrbeq	r0, [r0, #-281]	; 0xfffffee7
    10c8:	00901c03 	addseq	r1, r0, r3, lsl #24
    10cc:	51011900 	tstpl	r1, r0, lsl #18
    10d0:	90080305 	andls	r0, r8, r5, lsl #6
    10d4:	01190000 	tsteq	r9, r0
    10d8:	78030552 	stmdavc	r3, {r1, r4, r6, r8, sl}
    10dc:	19000091 	stmdbne	r0, {r0, r4, r7}
    10e0:	08025301 	stmdaeq	r2, {r0, r8, r9, ip, lr}
    10e4:	7d02199f 	vstrvc.16	s2, [r2, #-318]	; 0xfffffec2	; <UNPREDICTABLE>
    10e8:	84030500 	strhi	r0, [r3], #-1280	; 0xfffffb00
    10ec:	00000090 	muleq	r0, r0, r0
    10f0:	0088fc1a 	addeq	pc, r8, sl, lsl ip	; <UNPREDICTABLE>
    10f4:	000a6200 	andeq	r6, sl, r0, lsl #4
    10f8:	891c1800 	ldmdbhi	ip, {fp, ip}
    10fc:	06e20000 	strbteq	r0, [r2], r0
    1100:	042d0000 	strteq	r0, [sp], #-0
    1104:	01190000 	tsteq	r9, r0
    1108:	19400150 	stmdbne	r0, {r4, r6, r8}^
    110c:	91035101 	tstls	r3, r1, lsl #2
    1110:	01197dd0 			; <UNDEFINED> instruction: 0x01197dd0
    1114:	80080252 	andhi	r0, r8, r2, asr r2
    1118:	02530119 	subseq	r0, r3, #1073741830	; 0x40000006
    111c:	02190077 	andseq	r0, r9, #119	; 0x77
    1120:	7502007d 	strvc	r0, [r2, #-125]	; 0xffffff83
    1124:	7d021900 	vstrvc.16	s2, [r2, #-0]	; <UNPREDICTABLE>
    1128:	00760204 	rsbseq	r0, r6, r4, lsl #4
    112c:	893c1800 	ldmdbhi	ip!, {fp, ip}
    1130:	06e20000 	strbteq	r0, [r2], r0
    1134:	04610000 	strbteq	r0, [r1], #-0
    1138:	01190000 	tsteq	r9, r0
    113c:	19400150 	stmdbne	r0, {r4, r6, r8}^
    1140:	91035101 	tstls	r3, r1, lsl #2
    1144:	01197ed0 			; <UNDEFINED> instruction: 0x01197ed0
    1148:	80080252 	andhi	r0, r8, r2, asr r2
    114c:	02530119 	subseq	r0, r3, #1073741830	; 0x40000006
    1150:	0219007a 	andseq	r0, r9, #122	; 0x7a
    1154:	7502007d 	strvc	r0, [r2, #-125]	; 0xffffff83
    1158:	7d021900 	vstrvc.16	s2, [r2, #-0]	; <UNPREDICTABLE>
    115c:	00760204 	rsbseq	r0, r6, r4, lsl #4
    1160:	89481800 	stmdbhi	r8, {fp, ip}^
    1164:	0a6e0000 	beq	1b8116c <__bss_end__+0x1b77bd4>
    1168:	047d0000 	ldrbteq	r0, [sp], #-0
    116c:	01190000 	tsteq	r9, r0
    1170:	d0910350 	addsle	r0, r1, r0, asr r3
    1174:	5101197d 	tstpl	r1, sp, ror r9
    1178:	7ed29103 	atnvcs	f1, f3
    117c:	895c1800 	ldmdbhi	ip, {fp, ip}^
    1180:	0a6e0000 	beq	1b81188 <__bss_end__+0x1b77bf0>
    1184:	04990000 	ldreq	r0, [r9], #0
    1188:	01190000 	tsteq	r9, r0
    118c:	d0910350 	addsle	r0, r1, r0, asr r3
    1190:	5101197d 	tstpl	r1, sp, ror r9
    1194:	7ed09103 	atnvcs	f1, f3
    1198:	897c1800 	ldmdbhi	ip!, {fp, ip}^
    119c:	0a3e0000 	beq	f811a4 <__bss_end__+0xf77c0c>
    11a0:	04cf0000 	strbeq	r0, [pc], #0	; 11a8 <__code_start__-0x6e58>
    11a4:	01190000 	tsteq	r9, r0
    11a8:	c0030550 	andgt	r0, r3, r0, asr r5
    11ac:	19000090 	stmdbne	r0, {r4, r7}
    11b0:	03055101 	movweq	r5, #20737	; 0x5101
    11b4:	00009008 	andeq	r9, r0, r8
    11b8:	05520119 	ldrbeq	r0, [r2, #-281]	; 0xfffffee7
    11bc:	00917803 	addseq	r7, r1, r3, lsl #16
    11c0:	53011900 	movwpl	r1, #6400	; 0x1900
    11c4:	19b60802 	ldmibne	r6!, {r1, fp}
    11c8:	02007d02 	andeq	r7, r0, #2, 26	; 0x80
    11cc:	1a000076 	bne	13ac <__code_start__-0x6c54>
    11d0:	00008980 	andeq	r8, r0, r0, lsl #19
    11d4:	00000a62 	andeq	r0, r0, r2, ror #20
    11d8:	87401800 	strbhi	r1, [r0, -r0, lsl #16]
    11dc:	09600000 	stmdbeq	r0!, {}^	; <UNPREDICTABLE>
    11e0:	04ed0000 	strbteq	r0, [sp], #0
    11e4:	01190000 	tsteq	r9, r0
    11e8:	00770250 	rsbseq	r0, r7, r0, asr r2
    11ec:	87d81800 	ldrbhi	r1, [r8, r0, lsl #16]
    11f0:	0a3e0000 	beq	f811f8 <__bss_end__+0xf77c60>
    11f4:	05260000 	streq	r0, [r6, #-0]!
    11f8:	01190000 	tsteq	r9, r0
    11fc:	1c030550 	cfstr32ne	mvfx0, [r3], {80}	; 0x50
    1200:	19000090 	stmdbne	r0, {r4, r7}
    1204:	03055101 	movweq	r5, #20737	; 0x5101
    1208:	00009008 	andeq	r9, r0, r8
    120c:	05520119 	ldrbeq	r0, [r2, #-281]	; 0xfffffee7
    1210:	00917803 	addseq	r7, r1, r3, lsl #16
    1214:	53011900 	movwpl	r1, #6400	; 0x1900
    1218:	19980802 	ldmibne	r8, {r1, fp}
    121c:	05007d02 	streq	r7, [r0, #-3330]	; 0xfffff2fe
    1220:	00906003 	addseq	r6, r0, r3
    1224:	dc1a0000 	ldcle	0, cr0, [sl], {-0}
    1228:	62000087 	andvs	r0, r0, #135	; 0x87
    122c:	1800000a 	stmdane	r0, {r1, r3}
    1230:	00008994 	muleq	r0, r4, r9
    1234:	00000a3e 	andeq	r0, r0, lr, lsr sl
    1238:	0000055e 	andeq	r0, r0, lr, asr r5
    123c:	05500119 	ldrbeq	r0, [r0, #-281]	; 0xfffffee7
    1240:	0090e803 	addseq	lr, r0, r3, lsl #16
    1244:	51011900 	tstpl	r1, r0, lsl #18
    1248:	90080305 	andls	r0, r8, r5, lsl #6
    124c:	01190000 	tsteq	r9, r0
    1250:	78030552 	stmdavc	r3, {r1, r4, r6, r8, sl}
    1254:	19000091 	stmdbne	r0, {r0, r4, r7}
    1258:	08025301 	stmdaeq	r2, {r0, r8, r9, ip, lr}
    125c:	981a00be 	ldmdals	sl, {r1, r2, r3, r4, r5, r7}
    1260:	62000089 	andvs	r0, r0, #137	; 0x89
    1264:	1800000a 	stmdane	r0, {r1, r3}
    1268:	000089c4 	andeq	r8, r0, r4, asr #19
    126c:	000006e2 	andeq	r0, r0, r2, ror #13
    1270:	00000594 	muleq	r0, r4, r5
    1274:	01500119 	cmpeq	r0, r9, lsl r1
    1278:	5101193a 	tstpl	r1, sl, lsr r9
    127c:	7dd09103 	ldfvcp	f1, [r0, #12]
    1280:	02520119 	subseq	r0, r2, #1073741830	; 0x40000006
    1284:	02198008 	andseq	r8, r9, #8
    1288:	7502007d 	strvc	r0, [r2, #-125]	; 0xffffff83
    128c:	7d021900 	vstrvc.16	s2, [r2, #-0]	; <UNPREDICTABLE>
    1290:	00310104 	eorseq	r0, r1, r4, lsl #2
    1294:	0089fc18 	addeq	pc, r9, r8, lsl ip	; <UNPREDICTABLE>
    1298:	0006e200 	andeq	lr, r6, r0, lsl #4
    129c:	0005c100 	andeq	ip, r5, r0, lsl #2
    12a0:	50011900 	andpl	r1, r1, r0, lsl #18
    12a4:	01193a01 	tsteq	r9, r1, lsl #20
    12a8:	d0910351 	addsle	r0, r1, r1, asr r3
    12ac:	5201197d 	andpl	r1, r1, #2048000	; 0x1f4000
    12b0:	19800802 	stmibne	r0, {r1, fp}
    12b4:	02007d02 	andeq	r7, r0, #2, 26	; 0x80
    12b8:	02190075 	andseq	r0, r9, #117	; 0x75
    12bc:	3001047d 	andcc	r0, r1, sp, ror r4
    12c0:	8a301800 	bhi	c072c8 <__bss_end__+0xbfdd30>
    12c4:	06e20000 	strbteq	r0, [r2], r0
    12c8:	05ee0000 	strbeq	r0, [lr, #0]!
    12cc:	01190000 	tsteq	r9, r0
    12d0:	19400150 	stmdbne	r0, {r4, r6, r8}^
    12d4:	91035101 	tstls	r3, r1, lsl #2
    12d8:	01197dd0 			; <UNDEFINED> instruction: 0x01197dd0
    12dc:	80080252 	andhi	r0, r8, r2, asr r2
    12e0:	007d0219 	rsbseq	r0, sp, r9, lsl r2
    12e4:	19007502 	stmdbne	r0, {r1, r8, sl, ip, sp, lr}
    12e8:	01047d02 	tsteq	r4, r2, lsl #26
    12ec:	64180030 	ldrvs	r0, [r8], #-48	; 0xffffffd0
    12f0:	e200008a 	and	r0, r0, #138	; 0x8a
    12f4:	1b000006 	blne	1314 <__code_start__-0x6cec>
    12f8:	19000006 	stmdbne	r0, {r1, r2}
    12fc:	32015001 	andcc	r5, r1, #1
    1300:	03510119 	cmpeq	r1, #1073741830	; 0x40000006
    1304:	197dd091 	ldmdbne	sp!, {r0, r4, r7, ip, lr, pc}^
    1308:	08025201 	stmdaeq	r2, {r0, r9, ip, lr}
    130c:	7d021980 	vstrvc.16	s2, [r2, #-256]	; 0xffffff00	; <UNPREDICTABLE>
    1310:	00750200 	rsbseq	r0, r5, r0, lsl #4
    1314:	047d0219 	ldrbteq	r0, [sp], #-537	; 0xfffffde7
    1318:	18003001 	stmdane	r0, {r0, ip, sp}
    131c:	00008aac 	andeq	r8, r0, ip, lsr #21
    1320:	000006e2 	andeq	r0, r0, r2, ror #13
    1324:	00000648 	andeq	r0, r0, r8, asr #12
    1328:	01500119 	cmpeq	r0, r9, lsl r1
    132c:	51011938 	tstpl	r1, r8, lsr r9
    1330:	7dd09103 	ldfvcp	f1, [r0, #12]
    1334:	02520119 	subseq	r0, r2, #1073741830	; 0x40000006
    1338:	02198008 	andseq	r8, r9, #8
    133c:	7502007d 	strvc	r0, [r2, #-125]	; 0xffffff83
    1340:	7d021900 	vstrvc.16	s2, [r2, #-0]	; <UNPREDICTABLE>
    1344:	00300104 	eorseq	r0, r0, r4, lsl #2
    1348:	008acc18 	addeq	ip, sl, r8, lsl ip
    134c:	000a3e00 	andeq	r3, sl, r0, lsl #28
    1350:	00066b00 	andeq	r6, r6, r0, lsl #22
    1354:	50011900 	andpl	r1, r1, r0, lsl #18
    1358:	91100305 	tstls	r0, r5, lsl #6
    135c:	01190000 	tsteq	r9, r0
    1360:	00770251 	rsbseq	r0, r7, r1, asr r2
    1364:	02520119 	subseq	r0, r2, #1073741830	; 0x40000006
    1368:	1b000077 	blne	154c <__code_start__-0x6ab4>
    136c:	00008adc 	ldrdeq	r8, [r0], -ip
    1370:	0000067d 	andeq	r0, r0, sp, ror r6
    1374:	04500119 	ldrbeq	r0, [r0], #-281	; 0xfffffee7
    1378:	067dc891 			; <UNDEFINED> instruction: 0x067dc891
    137c:	8af01800 	bhi	ffc07384 <__bss_end__+0xffbfddec>
    1380:	0a3e0000 	beq	f81388 <__bss_end__+0xf77df0>
    1384:	06ac0000 	strteq	r0, [ip], r0
    1388:	01190000 	tsteq	r9, r0
    138c:	40030550 	andmi	r0, r3, r0, asr r5
    1390:	19000091 	stmdbne	r0, {r0, r4, r7}
    1394:	03055101 	movweq	r5, #20737	; 0x5101
    1398:	00009008 	andeq	r9, r0, r8
    139c:	05520119 	ldrbeq	r0, [r2, #-281]	; 0xfffffee7
    13a0:	00917803 	addseq	r7, r1, r3, lsl #16
    13a4:	53011900 	movwpl	r1, #6400	; 0x1900
    13a8:	00e20802 	rsceq	r0, r2, r2, lsl #16
    13ac:	008af41a 	addeq	pc, sl, sl, lsl r4	; <UNPREDICTABLE>
    13b0:	000a6200 	andeq	r6, sl, r0, lsl #4
    13b4:	08000000 	stmdaeq	r0, {}	; <UNPREDICTABLE>
    13b8:	0000b904 	andeq	fp, r0, r4, lsl #18
    13bc:	00c01c00 	sbceq	r1, r0, r0, lsl #24
    13c0:	06cd0000 	strbeq	r0, [sp], r0
    13c4:	2c1d0000 	ldccs	0, cr0, [sp], {-0}
    13c8:	09000000 	stmdbeq	r0, {}	; <UNPREDICTABLE>
    13cc:	06bd0900 	ldrteq	r0, [sp], r0, lsl #18
    13d0:	b91c0000 	ldmdblt	ip, {}	; <UNPREDICTABLE>
    13d4:	e2000000 	and	r0, r0, #0
    13d8:	1d000006 	stcne	0, cr0, [r0, #-24]	; 0xffffffe8
    13dc:	0000002c 	andeq	r0, r0, ip, lsr #32
    13e0:	751e007f 	ldrvc	r0, [lr, #-127]	; 0xffffff81
    13e4:	01000004 	tsteq	r0, r4
    13e8:	06b70149 	ldrteq	r0, [r7], r9, asr #2
    13ec:	84940000 	ldrhi	r0, [r4], #0
    13f0:	01b40000 			; <UNDEFINED> instruction: 0x01b40000
    13f4:	9c010000 	stcls	0, cr0, [r1], {-0}
    13f8:	0000084b 	andeq	r0, r0, fp, asr #16
    13fc:	00049e1f 	andeq	r9, r4, pc, lsl lr
    1400:	0f490100 	svceq	0x00490100
    1404:	0000002c 	andeq	r0, r0, ip, lsr #32
    1408:	00000a61 	andeq	r0, r0, r1, ror #20
    140c:	00000a5b 	andeq	r0, r0, fp, asr sl
    1410:	7473640e 	ldrbtvc	r6, [r3], #-1038	; 0xfffffbf2
    1414:	1b490100 	blne	124181c <__bss_end__+0x1238284>
    1418:	000006b7 			; <UNDEFINED> instruction: 0x000006b7
    141c:	00000a9f 	muleq	r0, pc, sl	; <UNPREDICTABLE>
    1420:	00000a8f 	andeq	r0, r0, pc, lsl #21
    1424:	01006e0e 	tsteq	r0, lr, lsl #28
    1428:	00252449 	eoreq	r2, r5, r9, asr #8
    142c:	0b030000 	bleq	c1434 <__bss_end__+0xb7e9c>
    1430:	0aff0000 	beq	fffc1438 <__bss_end__+0xfffb7ea0>
    1434:	760e0000 	strvc	r0, [lr], -r0
    1438:	01006c61 	tsteq	r0, r1, ror #24
    143c:	00252b49 	eoreq	r2, r5, r9, asr #22
    1440:	0b2d0000 	bleq	b41448 <__bss_end__+0xb37eb0>
    1444:	0b210000 	bleq	84144c <__bss_end__+0x837eb4>
    1448:	2d1f0000 	ldccs	0, cr0, [pc, #-0]	; 1450 <__code_start__-0x6bb0>
    144c:	01000004 	tsteq	r0, r4
    1450:	00253449 	eoreq	r3, r5, r9, asr #8
    1454:	0b830000 	bleq	fe0c145c <__bss_end__+0xfe0b7ec4>
    1458:	0b7d0000 	bleq	1f41460 <__bss_end__+0x1f37ec8>
    145c:	a30f0000 	movwge	r0, #61440	; 0xf000
    1460:	01000004 	tsteq	r0, r4
    1464:	00253f49 	eoreq	r3, r5, r9, asr #30
    1468:	91020000 	mrsls	r0, (UNDEF: 2)
    146c:	75621404 	strbvc	r1, [r2, #-1028]!	; 0xfffffbfc
    1470:	4e010066 	cdpmi	0, 0, cr0, cr1, cr6, {3}
    1474:	00084b07 	andeq	r4, r8, r7, lsl #22
    1478:	a8910300 	ldmge	r1, {r8, r9}
    147c:	0070107f 	rsbseq	r1, r0, pc, ror r0
    1480:	b7114e01 	ldrlt	r4, [r1, -r1, lsl #28]
    1484:	cb000006 	blgt	14a4 <__code_start__-0x6b5c>
    1488:	ad00000b 	stcge	0, cr0, [r0, #-44]	; 0xffffffd4
    148c:	1000000b 	andne	r0, r0, fp
    1490:	4f010075 	svcmi	0x00010075
    1494:	00002c0b 	andeq	r2, r0, fp, lsl #24
    1498:	000ca600 	andeq	sl, ip, r0, lsl #12
    149c:	000c9200 	andeq	r9, ip, r0, lsl #4
    14a0:	04331200 	ldrteq	r1, [r3], #-512	; 0xfffffe00
    14a4:	086b0000 	stmdaeq	fp!, {}^	; <UNPREDICTABLE>
    14a8:	03050000 	movweq	r0, #20480	; 0x5000
    14ac:	00009160 	andeq	r9, r0, r0, ror #2
    14b0:	00850016 	addeq	r0, r5, r6, lsl r0
    14b4:	00007800 	andeq	r7, r0, r0, lsl #16
    14b8:	0007d200 	andeq	sp, r7, r0, lsl #4
    14bc:	046f1100 	strbteq	r1, [pc], #-256	; 14c4 <__code_start__-0x6b3c>
    14c0:	54010000 	strpl	r0, [r1], #-0
    14c4:	00002c0d 	andeq	r2, r0, sp, lsl #24
    14c8:	000d2700 	andeq	r2, sp, r0, lsl #14
    14cc:	000d1f00 	andeq	r1, sp, r0, lsl #30
    14d0:	b8180000 	ldmdalt	r8, {}	; <UNPREDICTABLE>
    14d4:	fd000085 	stc2	0, cr0, [r0, #-532]	; 0xfffffdec
    14d8:	e7000008 	str	r0, [r0, -r8]
    14dc:	19000007 	stmdbne	r0, {r0, r1, r2}
    14e0:	91035101 	tstls	r3, r1, lsl #2
    14e4:	18007fa0 	stmdane	r0, {r5, r7, r8, r9, sl, fp, ip, sp, lr}
    14e8:	000085cc 	andeq	r8, r0, ip, asr #11
    14ec:	00000870 	andeq	r0, r0, r0, ror r8
    14f0:	00000808 	andeq	r0, r0, r8, lsl #16
    14f4:	02500119 	subseq	r0, r0, #1073741830	; 0x40000006
    14f8:	01190075 	tsteq	r9, r5, ror r0
    14fc:	00740251 	rsbseq	r0, r4, r1, asr r2
    1500:	03530119 	cmpeq	r3, #1073741830	; 0x40000006
    1504:	007fa091 			; <UNDEFINED> instruction: 0x007fa091
    1508:	00862418 	addeq	r2, r6, r8, lsl r4
    150c:	000a3e00 	andeq	r3, sl, r0, lsl #28
    1510:	00084100 	andeq	r4, r8, r0, lsl #2
    1514:	50011900 	andpl	r1, r1, r0, lsl #18
    1518:	901c0305 	andsls	r0, ip, r5, lsl #6
    151c:	01190000 	tsteq	r9, r0
    1520:	08030551 	stmdaeq	r3, {r0, r4, r6, r8, sl}
    1524:	19000090 	stmdbne	r0, {r4, r7}
    1528:	03055201 	movweq	r5, #20993	; 0x5201
    152c:	00009160 	andeq	r9, r0, r0, ror #2
    1530:	02530119 	subseq	r0, r3, #1073741830	; 0x40000006
    1534:	02197908 	andseq	r7, r9, #8, 18	; 0x20000
    1538:	0305007d 	movweq	r0, #20605	; 0x507d
    153c:	00009030 	andeq	r9, r0, r0, lsr r0
    1540:	86281a00 	strthi	r1, [r8], -r0, lsl #20
    1544:	0a620000 	beq	188154c <__bss_end__+0x1877fb4>
    1548:	1c000000 	stcne	0, cr0, [r0], {-0}
    154c:	000000b9 	strheq	r0, [r0], -r9
    1550:	0000085b 	andeq	r0, r0, fp, asr r8
    1554:	00002c1d 	andeq	r2, r0, sp, lsl ip
    1558:	1c003f00 	stcne	15, cr3, [r0], {-0}
    155c:	000000c0 	andeq	r0, r0, r0, asr #1
    1560:	0000086b 	andeq	r0, r0, fp, ror #16
    1564:	00002c1d 	andeq	r2, r0, sp, lsl ip
    1568:	09000400 	stmdbeq	r0, {sl}
    156c:	0000085b 	andeq	r0, r0, fp, asr r8
    1570:	0004821e 	andeq	r8, r4, lr, lsl r2
    1574:	0e380100 	rsfeqe	f0, f0, f0
    1578:	000006b7 			; <UNDEFINED> instruction: 0x000006b7
    157c:	00008458 	andeq	r8, r0, r8, asr r4
    1580:	0000003c 	andeq	r0, r0, ip, lsr r0
    1584:	08fd9c01 	ldmeq	sp!, {r0, sl, fp, ip, pc}^
    1588:	640e0000 	strvs	r0, [lr], #-0
    158c:	01007473 	tsteq	r0, r3, ror r4
    1590:	06b71c38 			; <UNDEFINED> instruction: 0x06b71c38
    1594:	0d680000 	stcleq	0, cr0, [r8, #-0]
    1598:	0d5e0000 	ldcleq	0, cr0, [lr, #-0]
    159c:	6e0e0000 	cdpvs	0, 0, cr0, cr14, cr0, {0}
    15a0:	25380100 	ldrcs	r0, [r8, #-256]!	; 0xffffff00
    15a4:	00000025 	andeq	r0, r0, r5, lsr #32
    15a8:	00000daf 	andeq	r0, r0, pc, lsr #27
    15ac:	00000dab 	andeq	r0, r0, fp, lsr #27
    15b0:	0100700e 	tsteq	r0, lr
    15b4:	06b72e38 			; <UNDEFINED> instruction: 0x06b72e38
    15b8:	0dd80000 	ldcleq	0, cr0, [r8]
    15bc:	0dd00000 	ldcleq	0, cr0, [r0]
    15c0:	5b1f0000 	blpl	7c15c8 <__bss_end__+0x7b8030>
    15c4:	01000004 	tsteq	r0, r4
    15c8:	06b73738 			; <UNDEFINED> instruction: 0x06b73738
    15cc:	0e120000 	cdpeq	0, 1, cr0, cr2, cr0, {0}
    15d0:	0e0e0000 	cdpeq	0, 0, cr0, cr14, cr0, {0}
    15d4:	6c100000 	ldcvs	0, cr0, [r0], {-0}
    15d8:	01006e65 	tsteq	r0, r5, ror #28
    15dc:	0025063a 	eoreq	r0, r5, sl, lsr r6
    15e0:	0e3a0000 	cdpeq	0, 3, cr0, cr10, cr0, {0}
    15e4:	0e300000 	cdpeq	0, 3, cr0, cr0, cr0, {0}
    15e8:	73100000 	tstvc	r0, #0
    15ec:	083e0100 	ldmdaeq	lr!, {r8}
    15f0:	000006b7 			; <UNDEFINED> instruction: 0x000006b7
    15f4:	00000e9b 	muleq	r0, fp, lr
    15f8:	00000e99 	muleq	r0, r9, lr
    15fc:	61702000 	cmnvs	r0, r0
    1600:	2e010064 	cdpcs	0, 0, cr0, cr1, cr4, {3}
    1604:	0006b70e 	andeq	fp, r6, lr, lsl #14
    1608:	00843000 	addeq	r3, r4, r0
    160c:	00002800 	andeq	r2, r0, r0, lsl #16
    1610:	609c0100 	addsvs	r0, ip, r0, lsl #2
    1614:	0e000009 	cdpeq	0, 0, cr0, cr0, cr9, {0}
    1618:	2e010070 	mcrcs	0, 0, r0, cr1, cr0, {3}
    161c:	0006b718 	andeq	fp, r6, r8, lsl r7
    1620:	000eb400 	andeq	fp, lr, r0, lsl #8
    1624:	000eae00 	andeq	sl, lr, r0, lsl #28
    1628:	049e1f00 	ldreq	r1, [lr], #3840	; 0xf00
    162c:	2e010000 	cdpcs	0, 0, cr0, cr1, cr0, {0}
    1630:	0006b722 	andeq	fp, r6, r2, lsr #14
    1634:	000ee300 	andeq	lr, lr, r0, lsl #6
    1638:	000edf00 	andeq	sp, lr, r0, lsl #30
    163c:	042d0f00 	strteq	r0, [sp], #-3840	; 0xfffff100
    1640:	2e010000 	cdpcs	0, 0, cr0, cr1, cr0, {0}
    1644:	0000252c 	andeq	r2, r0, ip, lsr #10
    1648:	10520100 	subsne	r0, r2, r0, lsl #2
    164c:	006e656c 	rsbeq	r6, lr, ip, ror #10
    1650:	25062f01 	strcs	r2, [r6, #-3841]	; 0xfffff0ff
    1654:	06000000 	streq	r0, [r0], -r0
    1658:	0400000f 	streq	r0, [r0], #-15
    165c:	0000000f 	andeq	r0, r0, pc
    1660:	0004091e 	andeq	r0, r4, lr, lsl r9
    1664:	0c270100 	stfeqs	f0, [r7], #-0
    1668:	00000025 	andeq	r0, r0, r5, lsr #32
    166c:	0000841c 	andeq	r8, r0, ip, lsl r4
    1670:	00000014 	andeq	r0, r0, r4, lsl r0
    1674:	098d9c01 	stmibeq	sp, {r0, sl, fp, ip, pc}
    1678:	630e0000 	movwvs	r0, #57344	; 0xe000
    167c:	18270100 	stmdane	r7!, {r8}
    1680:	00000025 	andeq	r0, r0, r5, lsr #32
    1684:	00000f1f 	andeq	r0, r0, pc, lsl pc
    1688:	00000f19 	andeq	r0, r0, r9, lsl pc
    168c:	04482100 	strbeq	r2, [r8], #-256	; 0xffffff00
    1690:	1f010000 	svcne	0x00010000
    1694:	00864806 	addeq	r4, r6, r6, lsl #16
    1698:	00006400 	andeq	r6, r0, r0, lsl #8
    169c:	1d9c0100 	ldfnes	f0, [ip]
    16a0:	1f00000a 	svcne	0x0000000a
    16a4:	00000440 	andeq	r0, r0, r0, asr #8
    16a8:	9e1b1f01 	cdpls	15, 1, cr1, cr11, cr1, {0}
    16ac:	51000000 	mrspl	r0, (UNDEF: 0)
    16b0:	4d00000f 	stcmi	0, cr0, [r0, #-60]	; 0xffffffc4
    16b4:	1f00000f 	svcne	0x0000000f
    16b8:	0000047a 	andeq	r0, r0, sl, ror r4
    16bc:	d1301f01 	teqle	r0, r1, lsl #30
    16c0:	76000000 	strvc	r0, [r0], -r0
    16c4:	7200000f 	andvc	r0, r0, #15
    16c8:	1200000f 	andne	r0, r0, #15
    16cc:	00000433 	andeq	r0, r0, r3, lsr r4
    16d0:	00000a2d 	andeq	r0, r0, sp, lsr #20
    16d4:	91680305 	cmnls	r8, r5, lsl #6
    16d8:	90180000 	andsls	r0, r8, r0
    16dc:	3e000086 	cdpcc	0, 0, cr0, cr0, cr6, {4}
    16e0:	1300000a 	movwne	r0, #10
    16e4:	1900000a 	stmdbne	r0, {r1, r3}
    16e8:	03055001 	movweq	r5, #20481	; 0x5001
    16ec:	0000901c 	andeq	r9, r0, ip, lsl r0
    16f0:	05510119 	ldrbeq	r0, [r1, #-281]	; 0xfffffee7
    16f4:	00900803 	addseq	r0, r0, r3, lsl #16
    16f8:	52011900 	andpl	r1, r1, #0, 18
    16fc:	91680305 	cmnls	r8, r5, lsl #6
    1700:	01190000 	tsteq	r9, r0
    1704:	20080253 	andcs	r0, r8, r3, asr r2
    1708:	007d0219 	rsbseq	r0, sp, r9, lsl r2
    170c:	90580305 	subsls	r0, r8, r5, lsl #6
    1710:	1a000000 	bne	1718 <__code_start__-0x68e8>
    1714:	00008694 	muleq	r0, r4, r6
    1718:	00000a62 	andeq	r0, r0, r2, ror #20
    171c:	00c01c00 	sbceq	r1, r0, r0, lsl #24
    1720:	0a2d0000 	beq	b41728 <__bss_end__+0xb38190>
    1724:	2c1d0000 	ldccs	0, cr0, [sp], {-0}
    1728:	0e000000 	cdpeq	0, 0, cr0, cr0, cr0, {0}
    172c:	0a1d0900 	beq	743b34 <__bss_end__+0x73a59c>
    1730:	96220000 	strtls	r0, [r2], -r0
    1734:	96000004 	strls	r0, [r0], -r4
    1738:	03000004 	movweq	r0, #4
    173c:	642205eb 	strtvs	r0, [r2], #-1515	; 0xfffffa15
    1740:	64000003 	strvs	r0, [r0], #-3
    1744:	03000003 	movweq	r0, #3
    1748:	8a220628 	bhi	882ff0 <__bss_end__+0x879a58>
    174c:	8a000004 	bhi	1764 <__code_start__-0x689c>
    1750:	03000004 	movweq	r0, #4
    1754:	682205ea 	stmdavs	r2!, {r1, r3, r5, r6, r7, r8, sl}
    1758:	68000004 	stmdavs	r0, {r2}
    175c:	03000004 	movweq	r0, #4
    1760:	912207ed 	smulwtls	r2, sp, r7
    1764:	91000000 	mrsls	r0, (UNDEF: 0)
    1768:	03000000 	movweq	r0, #0
    176c:	6122066e 			; <UNDEFINED> instruction: 0x6122066e
    1770:	61000004 	tstvs	r0, r4
    1774:	03000004 	movweq	r0, #4
    1778:	0e0007ee 	cdpeq	7, 0, cr0, cr0, cr14, {7}
    177c:	04000001 	streq	r0, [r0], #-1
    1780:	00086a00 	andeq	r6, r8, r0, lsl #20
    1784:	03010400 	movweq	r0, #5120	; 0x1400
    1788:	0c000001 	stceq	0, cr0, [r0], {1}
    178c:	000004c0 	andeq	r0, r0, r0, asr #9
    1790:	00000221 	andeq	r0, r0, r1, lsr #4
    1794:	00008b64 	andeq	r8, r0, r4, ror #22
    1798:	0000002c 	andeq	r0, r0, ip, lsr #32
    179c:	00000ce4 	andeq	r0, r0, r4, ror #25
    17a0:	69050402 	stmdbvs	r5, {r1, sl}
    17a4:	0300746e 	movweq	r7, #1134	; 0x46e
    17a8:	01ae0704 			; <UNDEFINED> instruction: 0x01ae0704
    17ac:	01030000 	mrseq	r0, (UNDEF: 3)
    17b0:	00007d06 	andeq	r7, r0, r6, lsl #26
    17b4:	05020300 	streq	r0, [r2, #-768]	; 0xfffffd00
    17b8:	000001e2 	andeq	r0, r0, r2, ror #3
    17bc:	c7050403 	strgt	r0, [r5, -r3, lsl #8]
    17c0:	03000001 	movweq	r0, #1
    17c4:	01c20508 	biceq	r0, r2, r8, lsl #10
    17c8:	01030000 	mrseq	r0, (UNDEF: 3)
    17cc:	00007b08 	andeq	r7, r0, r8, lsl #22
    17d0:	07020300 	streq	r0, [r2, -r0, lsl #6]
    17d4:	000000ac 	andeq	r0, r0, ip, lsr #1
    17d8:	a9070403 	stmdbge	r7, {r0, r1, sl}
    17dc:	03000001 	movweq	r0, #1
    17e0:	01a40708 			; <UNDEFINED> instruction: 0x01a40708
    17e4:	25040000 	strcs	r0, [r4, #-0]
    17e8:	7a000000 	bvc	17f0 <__code_start__-0x6810>
    17ec:	05000000 	streq	r0, [r0, #-0]
    17f0:	0000007a 	andeq	r0, r0, sl, ror r0
    17f4:	87040600 	strhi	r0, [r4, -r0, lsl #12]
    17f8:	03000000 	movweq	r0, #0
    17fc:	00840801 	addeq	r0, r4, r1, lsl #16
    1800:	80070000 	andhi	r0, r7, r0
    1804:	08000000 	stmdaeq	r0, {}	; <UNPREDICTABLE>
    1808:	000003a2 	andeq	r0, r0, r2, lsr #7
    180c:	980e2102 	stmdals	lr, {r1, r8, sp}
    1810:	06000000 	streq	r0, [r0], -r0
    1814:	00006b04 	andeq	r6, r0, r4, lsl #22
    1818:	00910900 	addseq	r0, r1, r0, lsl #18
    181c:	04010000 	streq	r0, [r1], #-0
    1820:	008b6406 	addeq	r6, fp, r6, lsl #8
    1824:	00002c00 	andeq	r2, r0, r0, lsl #24
    1828:	ed9c0100 	ldfs	f0, [ip]
    182c:	0a000000 	beq	1834 <__code_start__-0x67cc>
    1830:	00008b78 	andeq	r8, r0, r8, ror fp
    1834:	000000c7 	andeq	r0, r0, r7, asr #1
    1838:	0550010b 	ldrbeq	r0, [r0, #-267]	; 0xfffffef5
    183c:	00918403 	addseq	r8, r1, r3, lsl #8
    1840:	7c0c0000 	stcvc	0, cr0, [ip], {-0}
    1844:	ed00008b 	stc	0, cr0, [r0, #-556]	; 0xfffffdd4
    1848:	0d000000 	stceq	0, cr0, [r0, #-0]
    184c:	00008b84 	andeq	r8, r0, r4, lsl #23
    1850:	000000f9 	strdeq	r0, [r0], -r9
    1854:	000000e3 	andeq	r0, r0, r3, ror #1
    1858:	0150010b 	cmpeq	r0, fp, lsl #2
    185c:	880c003a 	stmdahi	ip, {r1, r3, r4, r5}
    1860:	0500008b 	streq	r0, [r0, #-139]	; 0xffffff75
    1864:	00000001 	andeq	r0, r0, r1
    1868:	0004db0e 	andeq	sp, r4, lr, lsl #22
    186c:	0004db00 	andeq	sp, r4, r0, lsl #22
    1870:	064d0200 	strbeq	r0, [sp], -r0, lsl #4
    1874:	0004b70e 	andeq	fp, r4, lr, lsl #14
    1878:	0004b700 	andeq	fp, r4, r0, lsl #14
    187c:	06580200 	ldrbeq	r0, [r8], -r0, lsl #4
    1880:	0004ac0e 	andeq	sl, r4, lr, lsl #24
    1884:	0004ac00 	andeq	sl, r4, r0, lsl #24
    1888:	066b0200 	strbteq	r0, [fp], -r0, lsl #4
    188c:	00013c00 	andeq	r3, r1, r0, lsl #24
    1890:	2a000400 	bcs	2898 <__code_start__-0x5768>
    1894:	04000009 	streq	r0, [r0], #-9
    1898:	00010301 	andeq	r0, r1, r1, lsl #6
    189c:	051f0c00 	ldreq	r0, [pc, #-3072]	; ca4 <__code_start__-0x735c>
    18a0:	02210000 	eoreq	r0, r1, #0
    18a4:	8b900000 	blhi	fe4018ac <__bss_end__+0xfe3f8314>
    18a8:	00400000 	subeq	r0, r0, r0
    18ac:	0d730000 	ldcleq	0, cr0, [r3, #-0]
    18b0:	04020000 	streq	r0, [r2], #-0
    18b4:	746e6905 	strbtvc	r6, [lr], #-2309	; 0xfffff6fb
    18b8:	07040300 	streq	r0, [r4, -r0, lsl #6]
    18bc:	000001ae 	andeq	r0, r0, lr, lsr #3
    18c0:	7d060103 	stfvcs	f0, [r6, #-12]
    18c4:	03000000 	movweq	r0, #0
    18c8:	01e20502 	mvneq	r0, r2, lsl #10
    18cc:	04030000 	streq	r0, [r3], #-0
    18d0:	0001c705 	andeq	ip, r1, r5, lsl #14
    18d4:	05080300 	streq	r0, [r8, #-768]	; 0xfffffd00
    18d8:	000001c2 	andeq	r0, r0, r2, asr #3
    18dc:	7b080103 	blvc	201cf0 <__bss_end__+0x1f8758>
    18e0:	03000000 	movweq	r0, #0
    18e4:	00ac0702 	adceq	r0, ip, r2, lsl #14
    18e8:	04030000 	streq	r0, [r3], #-0
    18ec:	0001a907 	andeq	sl, r1, r7, lsl #18
    18f0:	07080300 	streq	r0, [r8, -r0, lsl #6]
    18f4:	000001a4 	andeq	r0, r0, r4, lsr #3
    18f8:	84080103 	strhi	r0, [r8], #-259	; 0xfffffefd
    18fc:	04000000 	streq	r0, [r0], #-0
    1900:	000004f7 	strdeq	r0, [r0], -r7
    1904:	90060401 	andls	r0, r6, r1, lsl #8
    1908:	4000008b 	andmi	r0, r0, fp, lsl #1
    190c:	01000000 	mrseq	r0, (UNDEF: 0)
    1910:	0001079c 	muleq	r1, ip, r7
    1914:	04e90500 	strbteq	r0, [r9], #1280	; 0x500
    1918:	05010000 	streq	r0, [r1, #-0]
    191c:	00002510 	andeq	r2, r0, r0, lsl r5
    1920:	05340500 	ldreq	r0, [r4, #-1280]!	; 0xfffffb00
    1924:	05010000 	streq	r0, [r1, #-0]
    1928:	0000251f 	andeq	r2, r0, pc, lsl r5
    192c:	00690600 	rsbeq	r0, r9, r0, lsl #12
    1930:	06010000 	streq	r0, [r1], -r0
    1934:	73620707 	cmnvc	r2, #1835008	; 0x1c0000
    1938:	0a010073 	beq	41b0c <__bss_end__+0x38574>
    193c:	0001070a 	andeq	r0, r1, sl, lsl #14
    1940:	000f9d00 	andeq	r9, pc, r0, lsl #26
    1944:	000f9700 	andeq	r9, pc, r0, lsl #14
    1948:	04ff0800 	ldrbteq	r0, [pc], #2048	; 1950 <__code_start__-0x66b0>
    194c:	0b010000 	bleq	41954 <__bss_end__+0x383bc>
    1950:	0001070a 	andeq	r0, r1, sl, lsl #14
    1954:	8bb80900 	blhi	fee03d5c <__bss_end__+0xfedfa7c4>
    1958:	00080000 	andeq	r0, r8, r0
    195c:	00e20000 	rsceq	r0, r2, r0
    1960:	690a0000 	stmdbvs	sl, {}	; <UNPREDICTABLE>
    1964:	1401006e 	strne	r0, [r1], #-110	; 0xffffff92
    1968:	00002c05 	andeq	r2, r0, r5, lsl #24
    196c:	0b000100 	bleq	1d74 <__code_start__-0x628c>
    1970:	00008b98 	muleq	r0, r8, fp
    1974:	0000010d 	andeq	r0, r0, sp, lsl #2
    1978:	008bb80b 	addeq	fp, fp, fp, lsl #16
    197c:	00011a00 	andeq	r1, r1, r0, lsl #20
    1980:	8bc40b00 	blhi	ff104588 <__bss_end__+0xff0faff0>
    1984:	01260000 			; <UNDEFINED> instruction: 0x01260000
    1988:	c80b0000 	stmdagt	fp, {}	; <UNPREDICTABLE>
    198c:	3300008b 	movwcc	r0, #139	; 0x8b
    1990:	00000001 	andeq	r0, r0, r1
    1994:	0025040c 	eoreq	r0, r5, ip, lsl #8
    1998:	110d0000 	mrsne	r0, (UNDEF: 13)
    199c:	11000005 	tstne	r0, r5
    19a0:	02000005 	andeq	r0, r0, #5
    19a4:	0e060131 	mcreq	1, 0, r0, cr6, cr1, {1}
    19a8:	00000507 	andeq	r0, r0, r7, lsl #10
    19ac:	00000507 	andeq	r0, r0, r7, lsl #10
    19b0:	0d063b02 	vstreq	d3, [r6, #-8]
    19b4:	00000069 	andeq	r0, r0, r9, rrx
    19b8:	00000069 	andeq	r0, r0, r9, rrx
    19bc:	06010502 	streq	r0, [r1], -r2, lsl #10
    19c0:	0000910e 	andeq	r9, r0, lr, lsl #2
    19c4:	00009100 	andeq	r9, r0, r0, lsl #2
    19c8:	066e0200 	strbteq	r0, [lr], -r0, lsl #4
    19cc:	0000bd00 	andeq	fp, r0, r0, lsl #26
    19d0:	0d000400 	cfstrseq	mvf0, [r0, #-0]
    19d4:	0400000a 	streq	r0, [r0], #-10
    19d8:	00010301 	andeq	r0, r1, r1, lsl #6
    19dc:	054e0c00 	strbeq	r0, [lr, #-3072]	; 0xfffff400
    19e0:	02210000 	eoreq	r0, r1, #0
    19e4:	00900000 	addseq	r0, r0, r0
    19e8:	00000000 	andeq	r0, r0, r0
    19ec:	0e1e0000 	cdpeq	0, 1, cr0, cr14, cr0, {0}
    19f0:	04020000 	streq	r0, [r2], #-0
    19f4:	746e6905 	strbtvc	r6, [lr], #-2309	; 0xfffff6fb
    19f8:	07040300 	streq	r0, [r4, -r0, lsl #6]
    19fc:	000001ae 	andeq	r0, r0, lr, lsr #3
    1a00:	7d060103 	stfvcs	f0, [r6, #-12]
    1a04:	03000000 	movweq	r0, #0
    1a08:	01e20502 	mvneq	r0, r2, lsl #10
    1a0c:	04030000 	streq	r0, [r3], #-0
    1a10:	0001c705 	andeq	ip, r1, r5, lsl #14
    1a14:	05080300 	streq	r0, [r8, #-768]	; 0xfffffd00
    1a18:	000001c2 	andeq	r0, r0, r2, asr #3
    1a1c:	7b080103 	blvc	201e30 <__bss_end__+0x1f8898>
    1a20:	03000000 	movweq	r0, #0
    1a24:	00ac0702 	adceq	r0, ip, r2, lsl #14
    1a28:	04030000 	streq	r0, [r3], #-0
    1a2c:	0001a907 	andeq	sl, r1, r7, lsl #18
    1a30:	07080300 	streq	r0, [r8, -r0, lsl #6]
    1a34:	000001a4 	andeq	r0, r0, r4, lsr #3
    1a38:	84080103 	strhi	r0, [r8], #-259	; 0xfffffefd
    1a3c:	04000000 	streq	r0, [r0], #-0
    1a40:	00000540 	andeq	r0, r0, r0, asr #10
    1a44:	e0060c01 	and	r0, r6, r1, lsl #24
    1a48:	1000008b 	andne	r0, r0, fp, lsl #1
    1a4c:	01000000 	mrseq	r0, (UNDEF: 0)
    1a50:	00009b9c 	muleq	r0, ip, fp
    1a54:	00720500 	rsbseq	r0, r2, r0, lsl #10
    1a58:	2c0e0d01 	stccs	13, cr0, [lr], {1}
    1a5c:	ce000000 	cdpgt	0, 0, cr0, cr0, cr0, {0}
    1a60:	c800000f 	stmdagt	r0, {r0, r1, r2, r3}
    1a64:	0000000f 	andeq	r0, r0, pc
    1a68:	0001d506 	andeq	sp, r1, r6, lsl #10
    1a6c:	06030100 	streq	r0, [r3], -r0, lsl #2
    1a70:	00008bd0 	ldrdeq	r8, [r0], -r0
    1a74:	00000010 	andeq	r0, r0, r0, lsl r0
    1a78:	72059c01 	andvc	r9, r5, #256	; 0x100
    1a7c:	0e040100 	adfeqs	f0, f4, f0
    1a80:	0000002c 	andeq	r0, r0, ip, lsr #32
    1a84:	00001003 	andeq	r1, r0, r3
    1a88:	00000ffd 	strdeq	r0, [r0], -sp
    1a8c:	01e90000 	mvneq	r0, r0
    1a90:	00040000 	andeq	r0, r4, r0
    1a94:	00000a81 	andeq	r0, r0, r1, lsl #21
    1a98:	01030104 	tsteq	r3, r4, lsl #2
    1a9c:	880c0000 	stmdahi	ip, {}	; <UNPREDICTABLE>
    1aa0:	21000005 	tstcs	r0, r5
    1aa4:	a0000002 	andge	r0, r0, r2
    1aa8:	00000000 	andeq	r0, r0, r0
    1aac:	8d000000 	stchi	0, cr0, [r0, #-0]
    1ab0:	0200000e 	andeq	r0, r0, #14
    1ab4:	6e690504 	cdpvs	5, 6, cr0, cr9, cr4, {0}
    1ab8:	25030074 	strcs	r0, [r3, #-116]	; 0xffffff8c
    1abc:	04000000 	streq	r0, [r0], #-0
    1ac0:	01ae0704 			; <UNDEFINED> instruction: 0x01ae0704
    1ac4:	01040000 	mrseq	r0, (UNDEF: 4)
    1ac8:	00007d06 	andeq	r7, r0, r6, lsl #26
    1acc:	05020400 	streq	r0, [r2, #-1024]	; 0xfffffc00
    1ad0:	000001e2 	andeq	r0, r0, r2, ror #3
    1ad4:	c7050404 	strgt	r0, [r5, -r4, lsl #8]
    1ad8:	04000001 	streq	r0, [r0], #-1
    1adc:	01c20508 	biceq	r0, r2, r8, lsl #10
    1ae0:	01040000 	mrseq	r0, (UNDEF: 4)
    1ae4:	00007b08 	andeq	r7, r0, r8, lsl #22
    1ae8:	07020400 	streq	r0, [r2, -r0, lsl #8]
    1aec:	000000ac 	andeq	r0, r0, ip, lsr #1
    1af0:	a9070404 	stmdbge	r7, {r2, sl}
    1af4:	04000001 	streq	r0, [r0], #-1
    1af8:	01a40708 			; <UNDEFINED> instruction: 0x01a40708
    1afc:	01040000 	mrseq	r0, (UNDEF: 4)
    1b00:	00008408 	andeq	r8, r0, r8, lsl #8
    1b04:	05ac0500 	streq	r0, [ip, #1280]!	; 0x500
    1b08:	0d010000 	stceq	0, cr0, [r1, #-0]
    1b0c:	00003111 	andeq	r3, r0, r1, lsl r1
    1b10:	04ac0600 	strteq	r0, [ip], #1536	; 0x600
    1b14:	1f010000 	svcne	0x00010000
    1b18:	008c1c06 	addeq	r1, ip, r6, lsl #24
    1b1c:	00005400 	andeq	r5, r0, r0, lsl #8
    1b20:	619c0100 	orrsvs	r0, ip, r0, lsl #2
    1b24:	07000001 	streq	r0, [r0, -r1]
    1b28:	000005d0 	ldrdeq	r0, [r0], -r0	; <UNPREDICTABLE>
    1b2c:	2c0f2c01 	stccs	12, cr2, [pc], {1}
    1b30:	34000000 	strcc	r0, [r0], #-0
    1b34:	32000010 	andcc	r0, r0, #16
    1b38:	07000010 	smladeq	r0, r0, r0, r0
    1b3c:	00000571 	andeq	r0, r0, r1, ror r5
    1b40:	2c0f2d01 	stccs	13, cr2, [pc], {1}
    1b44:	4e000000 	cdpmi	0, 0, cr0, cr0, cr0, {0}
    1b48:	4c000010 	stcmi	0, cr0, [r0], {16}
    1b4c:	07000010 	smladeq	r0, r0, r0, r0
    1b50:	0000059d 	muleq	r0, sp, r5
    1b54:	2c0f2e01 	stccs	14, cr2, [pc], {1}
    1b58:	68000000 	stmdavs	r0, {}	; <UNPREDICTABLE>
    1b5c:	66000010 			; <UNDEFINED> instruction: 0x66000010
    1b60:	07000010 	smladeq	r0, r0, r0, r0
    1b64:	000005b7 			; <UNDEFINED> instruction: 0x000005b7
    1b68:	2c0f2f01 	stccs	15, cr2, [pc], {1}
    1b6c:	81000000 	mrshi	r0, (UNDEF: 0)
    1b70:	7f000010 	svcvc	0x00000010
    1b74:	08000010 	stmdaeq	r0, {r4}
    1b78:	00008c24 	andeq	r8, r0, r4, lsr #24
    1b7c:	0000018c 	andeq	r0, r0, ip, lsl #3
    1b80:	008c3008 	addeq	r3, ip, r8
    1b84:	0001bb00 	andeq	fp, r1, r0, lsl #22
    1b88:	8c340800 	ldchi	8, cr0, [r4], #-0
    1b8c:	01c80000 	biceq	r0, r8, r0
    1b90:	3c090000 	stccc	0, cr0, [r9], {-0}
    1b94:	d400008c 	strle	r0, [r0], #-140	; 0xffffff74
    1b98:	17000001 	strne	r0, [r0, -r1]
    1b9c:	0a000001 	beq	1ba8 <__code_start__-0x6458>
    1ba0:	3a015001 	bcc	55bac <__bss_end__+0x4c614>
    1ba4:	8c480900 	mcrrhi	9, 0, r0, r8, cr0	; <UNPREDICTABLE>
    1ba8:	01e00000 	mvneq	r0, r0
    1bac:	01370000 	teqeq	r7, r0
    1bb0:	010a0000 	mrseq	r0, (UNDEF: 10)
    1bb4:	240c0550 	strcs	r0, [ip], #-1360	; 0xfffffab0
    1bb8:	0a201000 	beq	805bc0 <__bss_end__+0x7fc628>
    1bbc:	0c055101 	stfeqs	f5, [r5], {1}
    1bc0:	5a000001 	bpl	1bcc <__code_start__-0x6434>
    1bc4:	8c540900 	mrrchi	9, 0, r0, r4, cr0	; <UNPREDICTABLE>
    1bc8:	01e00000 	mvneq	r0, r0
    1bcc:	01570000 	cmpeq	r7, r0
    1bd0:	010a0000 	mrseq	r0, (UNDEF: 10)
    1bd4:	1c0c0550 	cfstr32ne	mvfx0, [ip], {80}	; 0x50
    1bd8:	0a201000 	beq	805be0 <__bss_end__+0x7fc648>
    1bdc:	0c055101 	stfeqs	f5, [r5], {1}
    1be0:	5a000020 	bpl	1c68 <__code_start__-0x6398>
    1be4:	8c5c0800 	mrrchi	8, 0, r0, ip, cr0
    1be8:	01610000 	cmneq	r1, r0
    1bec:	0b000000 	bleq	1bf4 <__code_start__-0x640c>
    1bf0:	00000579 	andeq	r0, r0, r9, ror r5
    1bf4:	08061701 	stmdaeq	r6, {r0, r8, r9, sl, ip}
    1bf8:	1400008c 	strne	r0, [r0], #-140	; 0xffffff74
    1bfc:	01000000 	mrseq	r0, (UNDEF: 0)
    1c00:	00018c9c 	muleq	r1, ip, ip
    1c04:	05d80700 	ldrbeq	r0, [r8, #1792]	; 0x700
    1c08:	18010000 	stmdane	r1, {}	; <UNPREDICTABLE>
    1c0c:	0000310e 	andeq	r3, r0, lr, lsl #2
    1c10:	00109c00 	andseq	r9, r0, r0, lsl #24
    1c14:	00109600 	andseq	r9, r0, r0, lsl #12
    1c18:	a90c0000 	stmdbge	ip, {}	; <UNPREDICTABLE>
    1c1c:	01000005 	tsteq	r0, r5
    1c20:	0025050e 	eoreq	r0, r5, lr, lsl #10
    1c24:	8bf00000 	blhi	ffc01c2c <__bss_end__+0xffbf8694>
    1c28:	00180000 	andseq	r0, r8, r0
    1c2c:	9c010000 	stcls	0, cr0, [r1], {-0}
    1c30:	000001bb 			; <UNDEFINED> instruction: 0x000001bb
    1c34:	0005d807 	andeq	sp, r5, r7, lsl #16
    1c38:	0e0f0100 	adfeqe	f0, f7, f0
    1c3c:	00000031 	andeq	r0, r0, r1, lsr r0
    1c40:	000010ca 	andeq	r1, r0, sl, asr #1
    1c44:	000010c6 	andeq	r1, r0, r6, asr #1
    1c48:	05620d00 	strbeq	r0, [r2, #-3328]!	; 0xfffff300
    1c4c:	05620000 	strbeq	r0, [r2, #-0]!
    1c50:	36020000 	strcc	r0, [r2], -r0
    1c54:	db0e0601 	blle	383460 <__bss_end__+0x379ec8>
    1c58:	db000004 	blle	1c70 <__code_start__-0x6390>
    1c5c:	02000004 	andeq	r0, r0, #4
    1c60:	b70e064d 	strlt	r0, [lr, -sp, asr #12]
    1c64:	b7000004 	strlt	r0, [r0, -r4]
    1c68:	02000004 	andeq	r0, r0, #4
    1c6c:	6a0e0658 	bvs	3835d4 <__bss_end__+0x37a03c>
    1c70:	6a000002 	bvs	1c80 <__code_start__-0x6380>
    1c74:	02000002 	andeq	r0, r0, #2
    1c78:	810006ad 	smlatbhi	r0, sp, r6, r0
    1c7c:	04000000 	streq	r0, [r0], #-0
    1c80:	000b7800 	andeq	r7, fp, r0, lsl #16
    1c84:	03010400 	movweq	r0, #5120	; 0x1400
    1c88:	0c000001 	stceq	0, cr0, [r0], {1}
    1c8c:	000005dd 	ldrdeq	r0, [r0], -sp
    1c90:	00000221 	andeq	r0, r0, r1, lsr #4
    1c94:	00008c70 	andeq	r8, r0, r0, ror ip
    1c98:	00000004 	andeq	r0, r0, r4
    1c9c:	00000f6a 	andeq	r0, r0, sl, ror #30
    1ca0:	69050402 	stmdbvs	r5, {r1, sl}
    1ca4:	0300746e 	movweq	r7, #1134	; 0x46e
    1ca8:	01ae0704 			; <UNDEFINED> instruction: 0x01ae0704
    1cac:	01030000 	mrseq	r0, (UNDEF: 3)
    1cb0:	00007d06 	andeq	r7, r0, r6, lsl #26
    1cb4:	05020300 	streq	r0, [r2, #-768]	; 0xfffffd00
    1cb8:	000001e2 	andeq	r0, r0, r2, ror #3
    1cbc:	c7050403 	strgt	r0, [r5, -r3, lsl #8]
    1cc0:	03000001 	movweq	r0, #1
    1cc4:	01c20508 	biceq	r0, r2, r8, lsl #10
    1cc8:	01030000 	mrseq	r0, (UNDEF: 3)
    1ccc:	00007b08 	andeq	r7, r0, r8, lsl #22
    1cd0:	07020300 	streq	r0, [r2, -r0, lsl #6]
    1cd4:	000000ac 	andeq	r0, r0, ip, lsr #1
    1cd8:	a9070403 	stmdbge	r7, {r0, r1, sl}
    1cdc:	03000001 	movweq	r0, #1
    1ce0:	01a40708 			; <UNDEFINED> instruction: 0x01a40708
    1ce4:	01030000 	mrseq	r0, (UNDEF: 3)
    1ce8:	00008408 	andeq	r8, r0, r8, lsl #8
    1cec:	05620400 	strbeq	r0, [r2, #-1024]!	; 0xfffffc00
    1cf0:	03010000 	movweq	r0, #4096	; 0x1000
    1cf4:	008c7006 	addeq	r7, ip, r6
    1cf8:	00000400 	andeq	r0, r0, r0, lsl #8
    1cfc:	009c0100 	addseq	r0, ip, r0, lsl #2
    1d00:	00000081 	andeq	r0, r0, r1, lsl #1
    1d04:	0bbc0004 	bleq	fef01d1c <__bss_end__+0xfeef8784>
    1d08:	01040000 	mrseq	r0, (UNDEF: 4)
    1d0c:	00000103 	andeq	r0, r0, r3, lsl #2
    1d10:	0006020c 	andeq	r0, r6, ip, lsl #4
    1d14:	00022100 	andeq	r2, r2, r0, lsl #2
    1d18:	008c7400 	addeq	r7, ip, r0, lsl #8
    1d1c:	00000400 	andeq	r0, r0, r0, lsl #8
    1d20:	000fc100 	andeq	ip, pc, r0, lsl #2
    1d24:	05040200 	streq	r0, [r4, #-512]	; 0xfffffe00
    1d28:	00746e69 	rsbseq	r6, r4, r9, ror #28
    1d2c:	ae070403 	cdpge	4, 0, cr0, cr7, cr3, {0}
    1d30:	03000001 	movweq	r0, #1
    1d34:	007d0601 	rsbseq	r0, sp, r1, lsl #12
    1d38:	02030000 	andeq	r0, r3, #0
    1d3c:	0001e205 	andeq	lr, r1, r5, lsl #4
    1d40:	05040300 	streq	r0, [r4, #-768]	; 0xfffffd00
    1d44:	000001c7 	andeq	r0, r0, r7, asr #3
    1d48:	c2050803 	andgt	r0, r5, #196608	; 0x30000
    1d4c:	03000001 	movweq	r0, #1
    1d50:	007b0801 	rsbseq	r0, fp, r1, lsl #16
    1d54:	02030000 	andeq	r0, r3, #0
    1d58:	0000ac07 	andeq	sl, r0, r7, lsl #24
    1d5c:	07040300 	streq	r0, [r4, -r0, lsl #6]
    1d60:	000001a9 	andeq	r0, r0, r9, lsr #3
    1d64:	a4070803 	strge	r0, [r7], #-2051	; 0xfffff7fd
    1d68:	03000001 	movweq	r0, #1
    1d6c:	00840801 	addeq	r0, r4, r1, lsl #16
    1d70:	11040000 	mrsne	r0, (UNDEF: 4)
    1d74:	01000005 	tsteq	r0, r5
    1d78:	8c740604 	ldclhi	6, cr0, [r4], #-16
    1d7c:	00040000 	andeq	r0, r4, r0
    1d80:	9c010000 	stcls	0, cr0, [r1], {-0}
    1d84:	00020000 	andeq	r0, r2, r0
    1d88:	00000400 	andeq	r0, r0, r0, lsl #8
    1d8c:	0400000c 	streq	r0, [r0], #-12
    1d90:	00010301 	andeq	r0, r1, r1, lsl #6
    1d94:	06340c00 	ldrteq	r0, [r4], -r0, lsl #24
    1d98:	02210000 	eoreq	r0, r1, #0
    1d9c:	8c780000 	ldclhi	0, cr0, [r8], #-0
    1da0:	00840000 	addeq	r0, r4, r0
    1da4:	100f0000 	andne	r0, pc, r0
    1da8:	04020000 	streq	r0, [r2], #-0
    1dac:	746e6905 	strbtvc	r6, [lr], #-2309	; 0xfffff6fb
    1db0:	07040300 	streq	r0, [r4, -r0, lsl #6]
    1db4:	000001ae 	andeq	r0, r0, lr, lsr #3
    1db8:	7d060103 	stfvcs	f0, [r6, #-12]
    1dbc:	03000000 	movweq	r0, #0
    1dc0:	01e20502 	mvneq	r0, r2, lsl #10
    1dc4:	04030000 	streq	r0, [r3], #-0
    1dc8:	0001c705 	andeq	ip, r1, r5, lsl #14
    1dcc:	05080300 	streq	r0, [r8, #-768]	; 0xfffffd00
    1dd0:	000001c2 	andeq	r0, r0, r2, asr #3
    1dd4:	7b080103 	blvc	2021e8 <__bss_end__+0x1f8c50>
    1dd8:	03000000 	movweq	r0, #0
    1ddc:	00ac0702 	adceq	r0, ip, r2, lsl #14
    1de0:	04030000 	streq	r0, [r3], #-0
    1de4:	0001a907 	andeq	sl, r1, r7, lsl #18
    1de8:	07080300 	streq	r0, [r8, -r0, lsl #6]
    1dec:	000001a4 	andeq	r0, r0, r4, lsr #3
    1df0:	84080103 	strhi	r0, [r8], #-259	; 0xfffffefd
    1df4:	04000000 	streq	r0, [r0], #-0
    1df8:	0000062a 	andeq	r0, r0, sl, lsr #12
    1dfc:	e4061e01 	str	r1, [r6], #-3585	; 0xfffff1ff
    1e00:	1800008c 	stmdane	r0, {r2, r3, r7}
    1e04:	01000000 	mrseq	r0, (UNDEF: 0)
    1e08:	0000bc9c 	muleq	r0, ip, ip
    1e0c:	65730500 	ldrbvs	r0, [r3, #-1280]!	; 0xfffffb00
    1e10:	1e010063 	cdpne	0, 0, cr0, cr1, cr3, {3}
    1e14:	00002c19 	andeq	r2, r0, r9, lsl ip
    1e18:	0010ed00 	andseq	lr, r0, r0, lsl #26
    1e1c:	0010e900 	andseq	lr, r0, r0, lsl #18
    1e20:	8cf80600 	ldclhi	6, cr0, [r8]
    1e24:	00bc0000 	adcseq	r0, ip, r0
    1e28:	01070000 	mrseq	r0, (UNDEF: 7)
    1e2c:	01f31150 	mvnseq	r1, r0, asr r1
    1e30:	f3243550 	vqrshl.u32	<illegal reg q1.5>, q0, q2
    1e34:	321c5001 	andscc	r5, ip, #1
    1e38:	5001f324 	andpl	pc, r1, r4, lsr #6
    1e3c:	00243322 	eoreq	r3, r4, r2, lsr #6
    1e40:	04b70400 	ldrteq	r0, [r7], #1024	; 0x400
    1e44:	1b010000 	blne	41e4c <__bss_end__+0x388b4>
    1e48:	008ccc06 	addeq	ip, ip, r6, lsl #24
    1e4c:	00001800 	andeq	r1, r0, r0, lsl #16
    1e50:	059c0100 	ldreq	r0, [ip, #256]	; 0x100
    1e54:	05000001 	streq	r0, [r0, #-1]
    1e58:	0100736d 	tsteq	r0, sp, ror #6
    1e5c:	002c181b 	eoreq	r1, ip, fp, lsl r8
    1e60:	11120000 	tstne	r2, r0
    1e64:	110e0000 	mrsne	r0, (UNDEF: 14)
    1e68:	e0060000 	and	r0, r6, r0
    1e6c:	0500008c 	streq	r0, [r0, #-140]	; 0xffffff74
    1e70:	07000001 	streq	r0, [r0, -r1]
    1e74:	f3115001 	vhadd.u16	d5, d1, d1
    1e78:	24355001 	ldrtcs	r5, [r5], #-1
    1e7c:	1c5001f3 	ldfnee	f0, [r0], {243}	; 0xf3
    1e80:	01f32432 	mvnseq	r2, r2, lsr r4
    1e84:	24332250 	ldrtcs	r2, [r3], #-592	; 0xfffffdb0
    1e88:	57040000 	strpl	r0, [r4, -r0]
    1e8c:	01000006 	tsteq	r0, r6
    1e90:	8ca80612 	stchi	6, cr0, [r8], #72	; 0x48
    1e94:	00240000 	eoreq	r0, r4, r0
    1e98:	9c010000 	stcls	0, cr0, [r1], {-0}
    1e9c:	00000175 	andeq	r0, r0, r5, ror r1
    1ea0:	00737505 	rsbseq	r7, r3, r5, lsl #10
    1ea4:	2c181201 	lfmcs	f1, 4, [r8], {1}
    1ea8:	37000000 	strcc	r0, [r0, -r0]
    1eac:	33000011 	movwcc	r0, #17
    1eb0:	08000011 	stmdaeq	r0, {r0, r4}
    1eb4:	01006272 	tsteq	r0, r2, ror r2
    1eb8:	002c0e13 	eoreq	r0, ip, r3, lsl lr
    1ebc:	11570000 	cmpne	r7, r0
    1ec0:	11550000 	cmpne	r5, r0
    1ec4:	b8090000 	stmdalt	r9, {}	; <UNPREDICTABLE>
    1ec8:	1400008c 	strne	r0, [r0], #-140	; 0xffffff74
    1ecc:	6b000000 	blvs	1ed4 <__code_start__-0x612c>
    1ed0:	08000001 	stmdaeq	r0, {r0}
    1ed4:	01006172 	tsteq	r0, r2, ror r1
    1ed8:	002c1215 	eoreq	r1, ip, r5, lsl r2
    1edc:	116c0000 	cmnne	ip, r0
    1ee0:	116a0000 	cmnne	sl, r0
    1ee4:	bc0a0000 	stclt	0, cr0, [sl], {-0}
    1ee8:	7500008c 	strvc	r0, [r0, #-140]	; 0xffffff74
    1eec:	00000001 	andeq	r0, r0, r1
    1ef0:	008cb40a 	addeq	fp, ip, sl, lsl #8
    1ef4:	00017500 	andeq	r7, r1, r0, lsl #10
    1ef8:	480b0000 	stmdami	fp, {}	; <UNPREDICTABLE>
    1efc:	01000006 	tsteq	r0, r6
    1f00:	002c0a09 	eoreq	r0, ip, r9, lsl #20
    1f04:	8c8c0000 	stchi	0, cr0, [ip], {0}
    1f08:	001c0000 	andseq	r0, ip, r0
    1f0c:	9c010000 	stcls	0, cr0, [r1], {-0}
    1f10:	000001bd 			; <UNDEFINED> instruction: 0x000001bd
    1f14:	01007508 	tsteq	r0, r8, lsl #10
    1f18:	002c0e0d 	eoreq	r0, ip, sp, lsl #28
    1f1c:	11830000 	orrne	r0, r3, r0
    1f20:	117f0000 	cmnne	pc, r0
    1f24:	940a0000 	strls	r0, [sl], #-0
    1f28:	eb00008c 	bl	2160 <__code_start__-0x5ea0>
    1f2c:	0a000001 	beq	1f38 <__code_start__-0x60c8>
    1f30:	00008c98 	muleq	r0, r8, ip
    1f34:	000001bd 			; <UNDEFINED> instruction: 0x000001bd
    1f38:	008ca00a 	addeq	sl, ip, sl
    1f3c:	0001eb00 	andeq	lr, r1, r0, lsl #22
    1f40:	600b0000 	andvs	r0, fp, r0
    1f44:	01000006 	tsteq	r0, r6
    1f48:	002c0a04 	eoreq	r0, ip, r4, lsl #20
    1f4c:	8c780000 	ldclhi	0, cr0, [r8], #-0
    1f50:	00140000 	andseq	r0, r4, r0
    1f54:	9c010000 	stcls	0, cr0, [r1], {-0}
    1f58:	000001eb 	andeq	r0, r0, fp, ror #3
    1f5c:	008c8406 	addeq	r8, ip, r6, lsl #8
    1f60:	0001f700 	andeq	pc, r1, r0, lsl #14
    1f64:	50010700 	andpl	r0, r1, r0, lsl #14
    1f68:	30040c05 	andcc	r0, r4, r5, lsl #24
    1f6c:	00002000 	andeq	r2, r0, r0
    1f70:	00061e0c 	andeq	r1, r6, ip, lsl #28
    1f74:	00061e00 	andeq	r1, r6, r0, lsl #28
    1f78:	069c0200 	ldreq	r0, [ip], r0, lsl #4
    1f7c:	0002700c 	andeq	r7, r2, ip
    1f80:	00027000 	andeq	r7, r2, r0
    1f84:	0ac20200 	beq	ff08278c <__bss_end__+0xff0791f4>
    1f88:	0005cd00 	andeq	ip, r5, r0, lsl #26
    1f8c:	cc000400 	cfstrsgt	mvf0, [r0], {-0}
    1f90:	0400000c 	streq	r0, [r0], #-12
    1f94:	00010301 	andeq	r0, r1, r1, lsl #6
    1f98:	068f0c00 	streq	r0, [pc], r0, lsl #24
    1f9c:	071c0000 	ldreq	r0, [ip, -r0]
    1fa0:	8cfc0000 	ldclhi	0, cr0, [ip]
    1fa4:	01f00000 	mvnseq	r0, r0
    1fa8:	10f30000 	rscsne	r0, r3, r0
    1fac:	04020000 	streq	r0, [r2], #-0
    1fb0:	746e6905 	strbtvc	r6, [lr], #-2309	; 0xfffff6fb
    1fb4:	07040300 	streq	r0, [r4, -r0, lsl #6]
    1fb8:	000001ae 	andeq	r0, r0, lr, lsr #3
    1fbc:	00002c04 	andeq	r2, r0, r4, lsl #24
    1fc0:	06010300 	streq	r0, [r1], -r0, lsl #6
    1fc4:	0000007d 	andeq	r0, r0, sp, ror r0
    1fc8:	e2050203 	and	r0, r5, #805306368	; 0x30000000
    1fcc:	03000001 	movweq	r0, #1
    1fd0:	01c70504 	biceq	r0, r7, r4, lsl #10
    1fd4:	08030000 	stmdaeq	r3, {}	; <UNPREDICTABLE>
    1fd8:	0001c205 	andeq	ip, r1, r5, lsl #4
    1fdc:	08010300 	stmdaeq	r1, {r8, r9}
    1fe0:	0000007b 	andeq	r0, r0, fp, ror r0
    1fe4:	ac070203 	sfmge	f0, 4, [r7], {3}
    1fe8:	05000000 	streq	r0, [r0, #-0]
    1fec:	00000325 	andeq	r0, r0, r5, lsr #6
    1ff0:	6e193405 	cfmulsvs	mvf3, mvf9, mvf5
    1ff4:	03000000 	movweq	r0, #0
    1ff8:	01a90704 			; <UNDEFINED> instruction: 0x01a90704
    1ffc:	08030000 	stmdaeq	r3, {}	; <UNPREDICTABLE>
    2000:	0001a407 	andeq	sl, r1, r7, lsl #8
    2004:	08010300 	stmdaeq	r1, {r8, r9}
    2008:	00000084 	andeq	r0, r0, r4, lsl #1
    200c:	54010706 	strpl	r0, [r1], #-1798	; 0xfffff8fa
    2010:	04000000 	streq	r0, [r0], #-0
    2014:	00c20e0c 	sbceq	r0, r2, ip, lsl #28
    2018:	2e070000 	cdpcs	0, 0, cr0, cr7, cr0, {0}
    201c:	00000003 	andeq	r0, r0, r3
    2020:	00024f07 	andeq	r4, r2, r7, lsl #30
    2024:	76070100 	strvc	r0, [r7], -r0, lsl #2
    2028:	04000002 	streq	r0, [r0], #-2
    202c:	00028507 	andeq	r8, r2, r7, lsl #10
    2030:	94070500 	strls	r0, [r7], #-1280	; 0xfffffb00
    2034:	06000002 	streq	r0, [r0], -r2
    2038:	0002a307 	andeq	sl, r2, r7, lsl #6
    203c:	11070700 	tstne	r7, r0, lsl #14
    2040:	03000003 	movweq	r0, #3
    2044:	0002b207 	andeq	fp, r2, r7, lsl #4
    2048:	08000200 	stmdaeq	r0, {r9}
    204c:	00000710 	andeq	r0, r0, r0, lsl r7
    2050:	0806022c 	stmdaeq	r6, {r2, r3, r5, r9}
    2054:	0000015e 	andeq	r0, r0, lr, asr r1
    2058:	006f6909 	rsbeq	r6, pc, r9, lsl #18
    205c:	33090902 	movwcc	r0, #39170	; 0x9902
    2060:	00000000 	andeq	r0, r0, r0
    2064:	72656909 	rsbvc	r6, r5, #147456	; 0x24000
    2068:	090a0200 	stmdbeq	sl, {r9}
    206c:	00000033 	andeq	r0, r0, r3, lsr r0
    2070:	69690904 	stmdbvs	r9!, {r2, r8, fp}^
    2074:	11020072 	tstne	r2, r2, ror r0
    2078:	00003309 	andeq	r3, r0, r9, lsl #6
    207c:	6c090800 	stcvs	8, cr0, [r9], {-0}
    2080:	02007263 	andeq	r7, r0, #805306374	; 0x30000006
    2084:	00330913 	eorseq	r0, r3, r3, lsl r9
    2088:	090c0000 	stmdbeq	ip, {}	; <UNPREDICTABLE>
    208c:	0072636d 	rsbseq	r6, r2, sp, ror #6
    2090:	33091402 	movwcc	r1, #37890	; 0x9402
    2094:	10000000 	andne	r0, r0, r0
    2098:	72736c09 	rsbsvc	r6, r3, #2304	; 0x900
    209c:	09150200 	ldmdbeq	r5, {r9}
    20a0:	00000033 	andeq	r0, r0, r3, lsr r0
    20a4:	736d0914 	cmnvc	sp, #20, 18	; 0x50000
    20a8:	16020072 			; <UNDEFINED> instruction: 0x16020072
    20ac:	00003309 	andeq	r3, r0, r9, lsl #6
    20b0:	080a1800 	stmdaeq	sl, {fp, ip}
    20b4:	02000007 	andeq	r0, r0, #7
    20b8:	00330917 	eorseq	r0, r3, r7, lsl r9
    20bc:	0a1c0000 	beq	7020c4 <__bss_end__+0x6f8b2c>
    20c0:	000006e0 	andeq	r0, r0, r0, ror #13
    20c4:	33091b02 	movwcc	r1, #39682	; 0x9b02
    20c8:	20000000 	andcs	r0, r0, r0
    20cc:	00067c0a 	andeq	r7, r6, sl, lsl #24
    20d0:	091d0200 	ldmdbeq	sp, {r9}
    20d4:	00000033 	andeq	r0, r0, r3, lsr r0
    20d8:	06c50a24 	strbeq	r0, [r5], r4, lsr #20
    20dc:	1e020000 	cdpne	0, 0, cr0, cr2, cr0, {0}
    20e0:	00003309 	andeq	r3, r0, r9, lsl #6
    20e4:	0b002800 	bleq	c0ec <__bss_end__+0x2b54>
    20e8:	000006ca 	andeq	r0, r0, sl, asr #13
    20ec:	74090801 	strvc	r0, [r9], #-2049	; 0xfffff7ff
    20f0:	04000001 	streq	r0, [r0], #-1
    20f4:	0c202150 	stfeqs	f2, [r0], #-320	; 0xfffffec0
    20f8:	00003304 	andeq	r3, r0, r4, lsl #6
    20fc:	016e0d00 	cmneq	lr, r0, lsl #26
    2100:	a40b0000 	strge	r0, [fp], #-0
    2104:	01000006 	tsteq	r0, r6
    2108:	018f2329 	orreq	r2, pc, r9, lsr #6
    210c:	50400000 	subpl	r0, r0, r0
    2110:	040c2021 	streq	r2, [ip], #-33	; 0xffffffdf
    2114:	000000c2 	andeq	r0, r0, r2, asr #1
    2118:	0001890d 	andeq	r8, r1, sp, lsl #18
    211c:	04db0e00 	ldrbeq	r0, [fp], #3584	; 0xe00
    2120:	cc010000 	stcgt	0, cr0, [r1], {-0}
    2124:	008eb406 	addeq	fp, lr, r6, lsl #8
    2128:	00001400 	andeq	r1, r0, r0, lsl #8
    212c:	b49c0100 	ldrlt	r0, [ip], #256	; 0x100
    2130:	0f000001 	svceq	0x00000001
    2134:	00008ebc 			; <UNDEFINED> instruction: 0x00008ebc
    2138:	000001b4 			; <UNDEFINED> instruction: 0x000001b4
    213c:	06ae1000 	strteq	r1, [lr], r0
    2140:	b6010000 	strlt	r0, [r1], -r0
    2144:	00002505 	andeq	r2, r0, r5, lsl #10
    2148:	008e9400 	addeq	r9, lr, r0, lsl #8
    214c:	00002000 	andeq	r2, r0, r0
    2150:	eb9c0100 	bl	fe702558 <__bss_end__+0xfe6f8fc0>
    2154:	0f000001 	svceq	0x00000001
    2158:	00008e9c 	muleq	r0, ip, lr
    215c:	000005a0 	andeq	r0, r0, r0, lsr #11
    2160:	008ea411 	addeq	sl, lr, r1, lsl r4
    2164:	0005ac00 	andeq	sl, r5, r0, lsl #24
    2168:	50011200 	andpl	r1, r1, r0, lsl #4
    216c:	50640c05 	rsbpl	r0, r4, r5, lsl #24
    2170:	00002021 	andeq	r2, r0, r1, lsr #32
    2174:	0006f210 	andeq	pc, r6, r0, lsl r2	; <UNPREDICTABLE>
    2178:	05b30100 	ldreq	r0, [r3, #256]!	; 0x100
    217c:	00000025 	andeq	r0, r0, r5, lsr #32
    2180:	00008e84 	andeq	r8, r0, r4, lsl #29
    2184:	00000010 	andeq	r0, r0, r0, lsl r0
    2188:	02189c01 	andseq	r9, r8, #256	; 0x100
    218c:	8c0f0000 	stchi	0, cr0, [pc], {-0}
    2190:	a000008e 	andge	r0, r0, lr, lsl #1
    2194:	0f000005 	svceq	0x00000005
    2198:	00008e90 	muleq	r0, r0, lr
    219c:	00000309 	andeq	r0, r0, r9, lsl #6
    21a0:	03f00e00 	mvnseq	r0, #0, 28
    21a4:	ab010000 	blge	421ac <__bss_end__+0x38c14>
    21a8:	008e5406 	addeq	r5, lr, r6, lsl #8
    21ac:	00003000 	andeq	r3, r0, r0
    21b0:	7c9c0100 	ldfvcs	f0, [ip], {0}
    21b4:	13000002 	movwne	r0, #2
    21b8:	ab010063 	blge	4234c <__bss_end__+0x38db4>
    21bc:	00002c19 	andeq	r2, r0, r9, lsl ip
    21c0:	0011a500 	andseq	sl, r1, r0, lsl #10
    21c4:	0011a100 	andseq	sl, r1, r0, lsl #2
    21c8:	8e600f00 	cdphi	15, 6, cr0, cr0, cr0, {0}
    21cc:	05a00000 	streq	r0, [r0, #0]!
    21d0:	640f0000 	strvs	r0, [pc], #-0	; 21d8 <__code_start__-0x5e28>
    21d4:	db00008e 	blle	2414 <__code_start__-0x5bec>
    21d8:	14000002 	strne	r0, [r0], #-2
    21dc:	00008e78 	andeq	r8, r0, r8, ror lr
    21e0:	000005b8 			; <UNDEFINED> instruction: 0x000005b8
    21e4:	00000272 	andeq	r0, r0, r2, ror r2
    21e8:	05500112 	ldrbeq	r0, [r0, #-274]	; 0xfffffeee
    21ec:	2150400c 	cmpcs	r0, ip
    21f0:	51011220 	tstpl	r1, r0, lsr #4
    21f4:	08007405 	stmdaeq	r0, {r0, r2, sl, ip, sp, lr}
    21f8:	0f001aff 	svceq	0x00001aff
    21fc:	00008e7c 	andeq	r8, r0, ip, ror lr
    2200:	000005a0 	andeq	r0, r0, r0, lsr #11
    2204:	06d61000 	ldrbeq	r1, [r6], r0
    2208:	a3010000 	movwge	r0, #4096	; 0x1000
    220c:	00002505 	andeq	r2, r0, r5, lsl #10
    2210:	008e2400 	addeq	r2, lr, r0, lsl #8
    2214:	00003000 	andeq	r3, r0, r0
    2218:	db9c0100 	blle	fe702620 <__bss_end__+0xfe6f9088>
    221c:	15000002 	strne	r0, [r0, #-2]
    2220:	a7010063 	strge	r0, [r1, -r3, rrx]
    2224:	00002509 	andeq	r2, r0, r9, lsl #10
    2228:	0011c500 	andseq	ip, r1, r0, lsl #10
    222c:	0011c300 	andseq	ip, r1, r0, lsl #6
    2230:	8e2c0f00 	cdphi	15, 2, cr0, cr12, cr0, {0}
    2234:	05a00000 	streq	r0, [r0, #0]!
    2238:	300f0000 	andcc	r0, pc, r0
    223c:	0900008e 	stmdbeq	r0, {r1, r2, r3, r7}
    2240:	14000003 	strne	r0, [r0], #-3
    2244:	00008e40 	andeq	r8, r0, r0, asr #28
    2248:	000005ac 	andeq	r0, r0, ip, lsr #11
    224c:	000002d1 	ldrdeq	r0, [r0], -r1
    2250:	05500112 	ldrbeq	r0, [r0, #-274]	; 0xfffffeee
    2254:	2150400c 	cmpcs	r0, ip
    2258:	480f0020 	stmdami	pc, {r5}	; <UNPREDICTABLE>
    225c:	a000008e 	andge	r0, r0, lr, lsl #1
    2260:	00000005 	andeq	r0, r0, r5
    2264:	00069610 	andeq	r9, r6, r0, lsl r6
    2268:	05940100 	ldreq	r0, [r4, #256]	; 0x100
    226c:	00000025 	andeq	r0, r0, r5, lsr #32
    2270:	00008e04 	andeq	r8, r0, r4, lsl #28
    2274:	00000020 	andeq	r0, r0, r0, lsr #32
    2278:	03099c01 	movweq	r9, #39937	; 0x9c01
    227c:	10110000 	andsne	r0, r1, r0
    2280:	ac00008e 	stcge	0, cr0, [r0], {142}	; 0x8e
    2284:	12000005 	andne	r0, r0, #5
    2288:	0c055001 	stceq	0, cr5, [r5], {1}
    228c:	20215064 	eorcs	r5, r1, r4, rrx
    2290:	81100000 	tsthi	r0, r0
    2294:	01000006 	tsteq	r0, r6
    2298:	0025058b 	eoreq	r0, r5, fp, lsl #11
    229c:	8dec0000 	stclhi	0, cr0, [ip]
    22a0:	00180000 	andseq	r0, r8, r0
    22a4:	9c010000 	stcls	0, cr0, [r1], {-0}
    22a8:	00000337 	andeq	r0, r0, r7, lsr r3
    22ac:	008df811 	addeq	pc, sp, r1, lsl r8	; <UNPREDICTABLE>
    22b0:	0005ac00 	andeq	sl, r5, r0, lsl #24
    22b4:	50011200 	andpl	r1, r1, r0, lsl #4
    22b8:	50640c05 	rsbpl	r0, r4, r5, lsl #24
    22bc:	00002021 	andeq	r2, r0, r1, lsr #32
    22c0:	0005070e 	andeq	r0, r5, lr, lsl #14
    22c4:	06450100 	strbeq	r0, [r5], -r0, lsl #2
    22c8:	00008d3c 	andeq	r8, r0, ip, lsr sp
    22cc:	000000b0 	strheq	r0, [r0], -r0	; <UNPREDICTABLE>
    22d0:	04849c01 	streq	r9, [r4], #3073	; 0xc01
    22d4:	73160000 	tstvc	r6, #0
    22d8:	01000006 	tsteq	r0, r6
    22dc:	00620e7e 	rsbeq	r0, r2, lr, ror lr
    22e0:	010e0000 	mrseq	r0, (UNDEF: 14)
    22e4:	008d4c14 	addeq	r4, sp, r4, lsl ip
    22e8:	0005c400 	andeq	ip, r5, r0, lsl #8
    22ec:	00037300 	andeq	r7, r3, r0, lsl #6
    22f0:	50011200 	andpl	r1, r1, r0, lsl #4
    22f4:	01123e01 	tsteq	r2, r1, lsl #28
    22f8:	00320151 	eorseq	r0, r2, r1, asr r1
    22fc:	008d5814 	addeq	r5, sp, r4, lsl r8
    2300:	0005c400 	andeq	ip, r5, r0, lsl #8
    2304:	00038b00 	andeq	r8, r3, r0, lsl #22
    2308:	50011200 	andpl	r1, r1, r0, lsl #4
    230c:	01123f01 	tsteq	r2, r1, lsl #30
    2310:	00320151 	eorseq	r0, r2, r1, asr r1
    2314:	008d5c0f 	addeq	r5, sp, pc, lsl #24
    2318:	0005a000 	andeq	sl, r5, r0
    231c:	8d681400 	cfstrdhi	mvd1, [r8, #-0]
    2320:	053d0000 	ldreq	r0, [sp, #-0]!
    2324:	03b00000 	movseq	r0, #0
    2328:	01120000 	tsteq	r2, r0
    232c:	040c0550 	streq	r0, [ip], #-1360	; 0xfffffab0
    2330:	12202150 	eorne	r2, r0, #80, 2
    2334:	31015101 	tstcc	r1, r1, lsl #2
    2338:	8d6c0f00 	stclhi	15, cr0, [ip, #-0]
    233c:	05a00000 	streq	r0, [r0, #0]!
    2340:	7c140000 	ldcvc	0, cr0, [r4], {-0}
    2344:	b800008d 	stmdalt	r0, {r0, r2, r3, r7}
    2348:	d2000005 	andle	r0, r0, #5
    234c:	12000003 	andne	r0, r0, #3
    2350:	74025001 	strvc	r5, [r2], #-1
    2354:	51011200 	mrspl	r1, R9_usr
    2358:	14003001 	strne	r3, [r0], #-1
    235c:	00008d88 	andeq	r8, r0, r8, lsl #27
    2360:	000005b8 			; <UNDEFINED> instruction: 0x000005b8
    2364:	000003ee 	andeq	r0, r0, lr, ror #7
    2368:	05500112 	ldrbeq	r0, [r0, #-274]	; 0xfffffeee
    236c:	2150440c 	cmpcs	r0, ip, lsl #8
    2370:	51011220 	tstpl	r1, r0, lsr #4
    2374:	14003001 	strne	r3, [r0], #-1
    2378:	00008d94 	muleq	r0, r4, sp
    237c:	000005b8 			; <UNDEFINED> instruction: 0x000005b8
    2380:	0000040a 	andeq	r0, r0, sl, lsl #8
    2384:	05500112 	ldrbeq	r0, [r0, #-274]	; 0xfffffeee
    2388:	21504c0c 	cmpcs	r0, ip, lsl #24
    238c:	51011220 	tstpl	r1, r0, lsr #4
    2390:	14003301 	strne	r3, [r0], #-769	; 0xfffffcff
    2394:	00008da0 	andeq	r8, r0, r0, lsr #27
    2398:	000005b8 			; <UNDEFINED> instruction: 0x000005b8
    239c:	00000426 	andeq	r0, r0, r6, lsr #8
    23a0:	05500112 	ldrbeq	r0, [r0, #-274]	; 0xfffffeee
    23a4:	2150500c 	cmpcs	r0, ip
    23a8:	51011220 	tstpl	r1, r0, lsr #4
    23ac:	14003001 	strne	r3, [r0], #-1
    23b0:	00008dac 	andeq	r8, r0, ip, lsr #27
    23b4:	000005b8 			; <UNDEFINED> instruction: 0x000005b8
    23b8:	00000443 	andeq	r0, r0, r3, asr #8
    23bc:	05500112 	ldrbeq	r0, [r0, #-274]	; 0xfffffeee
    23c0:	2150480c 	cmpcs	r0, ip, lsl #16
    23c4:	51011220 	tstpl	r1, r0, lsr #4
    23c8:	00c70802 	sbceq	r0, r7, r2, lsl #16
    23cc:	008db814 	addeq	fp, sp, r4, lsl r8
    23d0:	0005b800 	andeq	fp, r5, r0, lsl #16
    23d4:	00046100 	andeq	r6, r4, r0, lsl #2
    23d8:	50011200 	andpl	r1, r1, r0, lsl #4
    23dc:	50680c05 	rsbpl	r0, r8, r5, lsl #24
    23e0:	01122021 	tsteq	r2, r1, lsr #32
    23e4:	0e0a0351 	mcreq	3, 0, r0, cr10, cr1, {2}
    23e8:	c4140001 	ldrgt	r0, [r4], #-1
    23ec:	b800008d 	stmdalt	r0, {r0, r2, r3, r7}
    23f0:	7a000005 	bvc	240c <__code_start__-0x5bf4>
    23f4:	12000004 	andne	r0, r0, #4
    23f8:	74025001 	strvc	r5, [r2], #-1
    23fc:	51011200 	mrspl	r1, R9_usr
    2400:	0f003301 	svceq	0x00003301
    2404:	00008dc8 	andeq	r8, r0, r8, asr #27
    2408:	000005a0 	andeq	r0, r0, r0, lsr #11
    240c:	06e50e00 	strbteq	r0, [r5], r0, lsl #28
    2410:	35010000 	strcc	r0, [r1, #-0]
    2414:	008ec806 	addeq	ip, lr, r6, lsl #16
    2418:	00002400 	andeq	r2, r0, r0, lsl #8
    241c:	d39c0100 	orrsle	r0, ip, #0, 2
    2420:	0f000004 	svceq	0x00000004
    2424:	00008ed0 	ldrdeq	r8, [r0], -r0
    2428:	00000194 	muleq	r0, r4, r1
    242c:	008ed40f 	addeq	sp, lr, pc, lsl #8
    2430:	0005a000 	andeq	sl, r5, r0
    2434:	8ee01400 	cdphi	4, 14, cr1, cr0, cr0, {0}
    2438:	04d30000 	ldrbeq	r0, [r3], #0
    243c:	04c90000 	strbeq	r0, [r9], #0
    2440:	01120000 	tsteq	r2, r0
    2444:	040c0550 	streq	r0, [ip], #-1360	; 0xfffffab0
    2448:	12202150 	eorne	r2, r0, #80, 2
    244c:	09025101 	stmdbeq	r2, {r0, r8, ip, lr}
    2450:	e40f00fe 	str	r0, [pc], #-254	; 2458 <__code_start__-0x5ba8>
    2454:	a000008e 	andge	r0, r0, lr, lsl #1
    2458:	00000005 	andeq	r0, r0, r5
    245c:	00075017 	andeq	r5, r7, r7, lsl r0
    2460:	0d310100 	ldfeqs	f0, [r1, #-0]
    2464:	00008cfc 	strdeq	r8, [r0], -ip
    2468:	00000020 	andeq	r0, r0, r0, lsr #32
    246c:	05369c01 	ldreq	r9, [r6, #-3073]!	; 0xfffff3ff
    2470:	a9180000 	ldmdbge	r8, {}	; <UNPREDICTABLE>
    2474:	01000006 	tsteq	r0, r6
    2478:	05362531 	ldreq	r2, [r6, #-1329]!	; 0xfffffacf
    247c:	11dc0000 	bicsne	r0, ip, r0
    2480:	11d80000 	bicsne	r0, r8, r0
    2484:	76130000 	ldrvc	r0, [r3], -r0
    2488:	01006c61 	tsteq	r0, r1, ror #24
    248c:	002c3431 	eoreq	r3, ip, r1, lsr r4
    2490:	11fe0000 	mvnsne	r0, r0
    2494:	11fa0000 	mvnsne	r0, r0
    2498:	0c140000 	ldceq	0, cr0, [r4], {-0}
    249c:	ac00008d 	stcge	0, cr0, [r0], {141}	; 0x8d
    24a0:	25000005 	strcs	r0, [r0, #-5]
    24a4:	12000005 	andne	r0, r0, #5
    24a8:	74025001 	strvc	r5, [r2], #-1
    24ac:	18110000 	ldmdane	r1, {}	; <UNPREDICTABLE>
    24b0:	b800008d 	stmdalt	r0, {r0, r2, r3, r7}
    24b4:	12000005 	andne	r0, r0, #5
    24b8:	74025001 	strvc	r5, [r2], #-1
    24bc:	0c000000 	stceq	0, cr0, [r0], {-0}
    24c0:	00053c04 	andeq	r3, r5, r4, lsl #24
    24c4:	00171900 	andseq	r1, r7, r0, lsl #18
    24c8:	01000007 	tsteq	r0, r7
    24cc:	8d1c0d2e 	ldchi	13, cr0, [ip, #-184]	; 0xffffff48
    24d0:	00200000 	eoreq	r0, r0, r0
    24d4:	9c010000 	stcls	0, cr0, [r1], {-0}
    24d8:	000005a0 	andeq	r0, r0, r0, lsr #11
    24dc:	0006a918 	andeq	sl, r6, r8, lsl r9
    24e0:	242e0100 	strtcs	r0, [lr], #-256	; 0xffffff00
    24e4:	00000536 	andeq	r0, r0, r6, lsr r5
    24e8:	00001220 	andeq	r1, r0, r0, lsr #4
    24ec:	0000121c 	andeq	r1, r0, ip, lsl r2
    24f0:	6c617613 	stclvs	6, cr7, [r1], #-76	; 0xffffffb4
    24f4:	332e0100 			; <UNDEFINED> instruction: 0x332e0100
    24f8:	0000002c 	andeq	r0, r0, ip, lsr #32
    24fc:	00001242 	andeq	r1, r0, r2, asr #4
    2500:	0000123e 	andeq	r1, r0, lr, lsr r2
    2504:	008d2c14 	addeq	r2, sp, r4, lsl ip
    2508:	0005ac00 	andeq	sl, r5, r0, lsl #24
    250c:	00058f00 	andeq	r8, r5, r0, lsl #30
    2510:	50011200 	andpl	r1, r1, r0, lsl #4
    2514:	00007402 	andeq	r7, r0, r2, lsl #8
    2518:	008d3811 	addeq	r3, sp, r1, lsl r8
    251c:	0005b800 	andeq	fp, r5, r0, lsl #16
    2520:	50011200 	andpl	r1, r1, r0, lsl #4
    2524:	00007402 	andeq	r7, r0, r2, lsl #8
    2528:	061e1a00 	ldreq	r1, [lr], -r0, lsl #20
    252c:	061e0000 	ldreq	r0, [lr], -r0
    2530:	9c030000 	stcls	0, cr0, [r3], {-0}
    2534:	07591a06 	ldrbeq	r1, [r9, -r6, lsl #20]
    2538:	07590000 	ldrbeq	r0, [r9, -r0]
    253c:	c3030000 	movwgt	r0, #12288	; 0x3000
    2540:	06bf1a0b 	ldrteq	r1, [pc], fp, lsl #20
    2544:	06bf0000 	ldrteq	r0, [pc], r0
    2548:	ae030000 	cdpge	0, 0, cr0, cr3, cr0, {0}
    254c:	033e1a06 	teqeq	lr, #24576	; 0x6000
    2550:	033e0000 	teqeq	lr, #0
    2554:	19040000 	stmdbne	r4, {}	; <UNPREDICTABLE>
    2558:	00cd0006 	sbceq	r0, sp, r6
    255c:	00040000 	andeq	r0, r4, r0
    2560:	00000e64 	andeq	r0, r0, r4, ror #28
    2564:	01030104 	tsteq	r3, r4, lsl #2
    2568:	5f0c0000 	svcpl	0x000c0000
    256c:	21000007 	tstcs	r0, r7
    2570:	ec000002 	stc	0, cr0, [r0], {2}
    2574:	2000008e 	andcs	r0, r0, lr, lsl #1
    2578:	fb000000 	blx	2582 <__code_start__-0x5a7e>
    257c:	02000012 	andeq	r0, r0, #18
    2580:	6e690504 	cdpvs	5, 6, cr0, cr9, cr4, {0}
    2584:	04030074 	streq	r0, [r3], #-116	; 0xffffff8c
    2588:	0001ae07 	andeq	sl, r1, r7, lsl #28
    258c:	06010300 	streq	r0, [r1], -r0, lsl #6
    2590:	0000007d 	andeq	r0, r0, sp, ror r0
    2594:	e2050203 	and	r0, r5, #805306368	; 0x30000000
    2598:	03000001 	movweq	r0, #1
    259c:	01c70504 	biceq	r0, r7, r4, lsl #10
    25a0:	08030000 	stmdaeq	r3, {}	; <UNPREDICTABLE>
    25a4:	0001c205 	andeq	ip, r1, r5, lsl #4
    25a8:	08010300 	stmdaeq	r1, {r8, r9}
    25ac:	0000007b 	andeq	r0, r0, fp, ror r0
    25b0:	ac070203 	sfmge	f0, 4, [r7], {3}
    25b4:	03000000 	movweq	r0, #0
    25b8:	01a90704 			; <UNDEFINED> instruction: 0x01a90704
    25bc:	08030000 	stmdaeq	r3, {}	; <UNPREDICTABLE>
    25c0:	0001a407 	andeq	sl, r1, r7, lsl #8
    25c4:	78040400 	stmdavc	r4, {sl}
    25c8:	03000000 	movweq	r0, #0
    25cc:	00840801 	addeq	r0, r4, r1, lsl #16
    25d0:	71050000 	mrsvc	r0, (UNDEF: 5)
    25d4:	06000000 	streq	r0, [r0], -r0
    25d8:	00000468 	andeq	r0, r0, r8, ror #8
    25dc:	ca070301 	bgt	1c31e8 <__bss_end__+0x1b9c50>
    25e0:	ec000000 	stc	0, cr0, [r0], {-0}
    25e4:	2000008e 	andcs	r0, r0, lr, lsl #1
    25e8:	01000000 	mrseq	r0, (UNDEF: 0)
    25ec:	0000ca9c 	muleq	r0, ip, sl
    25f0:	31730700 	cmncc	r3, r0, lsl #14
    25f4:	15030100 	strne	r0, [r3, #-256]	; 0xffffff00
    25f8:	000000ca 	andeq	r0, r0, sl, asr #1
    25fc:	73085001 	movwvc	r5, #32769	; 0x8001
    2600:	03010032 	movweq	r0, #4146	; 0x1032
    2604:	00006b26 	andeq	r6, r0, r6, lsr #22
    2608:	00126600 	andseq	r6, r2, r0, lsl #12
    260c:	00126000 	andseq	r6, r2, r0
    2610:	00730900 	rsbseq	r0, r3, r0, lsl #18
    2614:	ca140401 	bgt	503620 <__bss_end__+0x4fa088>
    2618:	97000000 	strls	r0, [r0, -r0]
    261c:	91000012 	tstls	r0, r2, lsl r0
    2620:	00000012 	andeq	r0, r0, r2, lsl r0
    2624:	00710404 	rsbseq	r0, r1, r4, lsl #8
    2628:	f5000000 			; <UNDEFINED> instruction: 0xf5000000
    262c:	04000000 	streq	r0, [r0], #-0
    2630:	000ef500 	andeq	pc, lr, r0, lsl #10
    2634:	03010400 	movweq	r0, #5120	; 0x1400
    2638:	0c000001 	stceq	0, cr0, [r0], {1}
    263c:	00000774 	andeq	r0, r0, r4, ror r7
    2640:	00000221 	andeq	r0, r0, r1, lsr #4
    2644:	00008f0c 	andeq	r8, r0, ip, lsl #30
    2648:	00000034 	andeq	r0, r0, r4, lsr r0
    264c:	00001367 	andeq	r1, r0, r7, ror #6
    2650:	69050402 	stmdbvs	r5, {r1, sl}
    2654:	0300746e 	movweq	r7, #1134	; 0x46e
    2658:	01ae0704 			; <UNDEFINED> instruction: 0x01ae0704
    265c:	01030000 	mrseq	r0, (UNDEF: 3)
    2660:	00007d06 	andeq	r7, r0, r6, lsl #26
    2664:	05020300 	streq	r0, [r2, #-768]	; 0xfffffd00
    2668:	000001e2 	andeq	r0, r0, r2, ror #3
    266c:	c7050403 	strgt	r0, [r5, -r3, lsl #8]
    2670:	03000001 	movweq	r0, #1
    2674:	01c20508 	biceq	r0, r2, r8, lsl #10
    2678:	01030000 	mrseq	r0, (UNDEF: 3)
    267c:	00007b08 	andeq	r7, r0, r8, lsl #22
    2680:	07020300 	streq	r0, [r2, -r0, lsl #6]
    2684:	000000ac 	andeq	r0, r0, ip, lsr #1
    2688:	a9070403 	stmdbge	r7, {r0, r1, sl}
    268c:	03000001 	movweq	r0, #1
    2690:	01a40708 			; <UNDEFINED> instruction: 0x01a40708
    2694:	04040000 	streq	r0, [r4], #-0
    2698:	00000078 	andeq	r0, r0, r8, ror r0
    269c:	84080103 	strhi	r0, [r8], #-259	; 0xfffffefd
    26a0:	05000000 	streq	r0, [r0, #-0]
    26a4:	00000071 	andeq	r0, r0, r1, ror r0
    26a8:	00046106 	andeq	r6, r4, r6, lsl #2
    26ac:	07040100 	streq	r0, [r4, -r0, lsl #2]
    26b0:	000000f2 	strdeq	r0, [r0], -r2
    26b4:	00008f0c 	andeq	r8, r0, ip, lsl #30
    26b8:	00000034 	andeq	r0, r0, r4, lsr r0
    26bc:	00f29c01 	rscseq	r9, r2, r1, lsl #24
    26c0:	6f070000 	svcvs	0x00070000
    26c4:	01000007 	tsteq	r0, r7
    26c8:	00f21504 	rscseq	r1, r2, r4, lsl #10
    26cc:	50010000 	andpl	r0, r1, r0
    26d0:	63727308 	cmnvs	r2, #8, 6	; 0x20000000
    26d4:	27040100 	strcs	r0, [r4, -r0, lsl #2]
    26d8:	0000006b 	andeq	r0, r0, fp, rrx
    26dc:	000012c6 	andeq	r1, r0, r6, asr #5
    26e0:	000012c2 	andeq	r1, r0, r2, asr #5
    26e4:	00317309 	eorseq	r7, r1, r9, lsl #6
    26e8:	f20b0501 	vrshl.s8	d0, d1, d11
    26ec:	f1000000 	cps	#0
    26f0:	e7000012 	smlad	r0, r2, r0, r0
    26f4:	09000012 	stmdbeq	r0, {r1, r4}
    26f8:	01003273 	tsteq	r0, r3, ror r2
    26fc:	006b1106 	rsbeq	r1, fp, r6, lsl #2
    2700:	13360000 	teqne	r6, #0
    2704:	13320000 	teqne	r2, #0
    2708:	63090000 	movwvs	r0, #36864	; 0x9000
    270c:	0a070100 	beq	1c2b14 <__bss_end__+0x1b957c>
    2710:	00000071 	andeq	r0, r0, r1, ror r0
    2714:	0000135a 	andeq	r1, r0, sl, asr r3
    2718:	00001356 	andeq	r1, r0, r6, asr r3
    271c:	71040400 	tstvc	r4, r0, lsl #8
    2720:	00000000 	andeq	r0, r0, r0
    2724:	000000b5 	strheq	r0, [r0], -r5
    2728:	0f860004 	svceq	0x00860004
    272c:	01040000 	mrseq	r0, (UNDEF: 4)
    2730:	00000103 	andeq	r0, r0, r3, lsl #2
    2734:	0007840c 	andeq	r8, r7, ip, lsl #8
    2738:	00022100 	andeq	r2, r2, r0, lsl #2
    273c:	008f4000 	addeq	r4, pc, r0
    2740:	00003000 	andeq	r3, r0, r0
    2744:	00141c00 	andseq	r1, r4, r0, lsl #24
    2748:	05040200 	streq	r0, [r4, #-512]	; 0xfffffe00
    274c:	00746e69 	rsbseq	r6, r4, r9, ror #28
    2750:	ae070403 	cdpge	4, 0, cr0, cr7, cr3, {0}
    2754:	03000001 	movweq	r0, #1
    2758:	007d0601 	rsbseq	r0, sp, r1, lsl #12
    275c:	02030000 	andeq	r0, r3, #0
    2760:	0001e205 	andeq	lr, r1, r5, lsl #4
    2764:	05040300 	streq	r0, [r4, #-768]	; 0xfffffd00
    2768:	000001c7 	andeq	r0, r0, r7, asr #3
    276c:	c2050803 	andgt	r0, r5, #196608	; 0x30000
    2770:	03000001 	movweq	r0, #1
    2774:	007b0801 	rsbseq	r0, fp, r1, lsl #16
    2778:	02030000 	andeq	r0, r3, #0
    277c:	0000ac07 	andeq	sl, r0, r7, lsl #24
    2780:	07040300 	streq	r0, [r4, -r0, lsl #6]
    2784:	000001a9 	andeq	r0, r0, r9, lsr #3
    2788:	a4070803 	strge	r0, [r7], #-2051	; 0xfffff7fd
    278c:	04000001 	streq	r0, [r0], #-1
    2790:	00007804 	andeq	r7, r0, r4, lsl #16
    2794:	08010300 	stmdaeq	r1, {r8, r9}
    2798:	00000084 	andeq	r0, r0, r4, lsl #1
    279c:	00007105 	andeq	r7, r0, r5, lsl #2
    27a0:	048a0600 	streq	r0, [sl], #1536	; 0x600
    27a4:	03010000 	movweq	r0, #4096	; 0x1000
    27a8:	00002505 	andeq	r2, r0, r5, lsl #10
    27ac:	008f4000 	addeq	r4, pc, r0
    27b0:	00003000 	andeq	r3, r0, r0
    27b4:	079c0100 	ldreq	r0, [ip, r0, lsl #2]
    27b8:	03010061 	movweq	r0, #4193	; 0x1061
    27bc:	00006b18 	andeq	r6, r0, r8, lsl fp
    27c0:	00137c00 	andseq	r7, r3, r0, lsl #24
    27c4:	00137800 	andseq	r7, r3, r0, lsl #16
    27c8:	00620700 	rsbeq	r0, r2, r0, lsl #14
    27cc:	6b270301 	blvs	9c33d8 <__bss_end__+0x9b9e40>
    27d0:	9e000000 	cdpls	0, 0, cr0, cr0, cr0, {0}
    27d4:	9a000013 	bls	2828 <__code_start__-0x57d8>
    27d8:	00000013 	andeq	r0, r0, r3, lsl r0
    27dc:	00010c00 	andeq	r0, r1, r0, lsl #24
    27e0:	f0000400 			; <UNDEFINED> instruction: 0xf0000400
    27e4:	0400000f 	streq	r0, [r0], #-15
    27e8:	00010301 	andeq	r0, r1, r1, lsl #6
    27ec:	079b0c00 	ldreq	r0, [fp, r0, lsl #24]
    27f0:	02210000 	eoreq	r0, r1, #0
    27f4:	00b00000 	adcseq	r0, r0, r0
    27f8:	00000000 	andeq	r0, r0, r0
    27fc:	148e0000 	strne	r0, [lr], #0
    2800:	04020000 	streq	r0, [r2], #-0
    2804:	746e6905 	strbtvc	r6, [lr], #-2309	; 0xfffff6fb
    2808:	07940300 	ldreq	r0, [r4, r0, lsl #6]
    280c:	d1020000 	mrsle	r0, (UNDEF: 2)
    2810:	00003817 	andeq	r3, r0, r7, lsl r8
    2814:	07040400 	streq	r0, [r4, -r0, lsl #8]
    2818:	000001ae 	andeq	r0, r0, lr, lsr #3
    281c:	7d060104 	stfvcs	f0, [r6, #-16]
    2820:	04000000 	streq	r0, [r0], #-0
    2824:	01e20502 	mvneq	r0, r2, lsl #10
    2828:	04040000 	streq	r0, [r4], #-0
    282c:	0001c705 	andeq	ip, r1, r5, lsl #14
    2830:	05080400 	streq	r0, [r8, #-1024]	; 0xfffffc00
    2834:	000001c2 	andeq	r0, r0, r2, asr #3
    2838:	7b080104 	blvc	202c50 <__bss_end__+0x1f96b8>
    283c:	05000000 	streq	r0, [r0, #-0]
    2840:	0000005b 	andeq	r0, r0, fp, asr r0
    2844:	ac070204 	sfmge	f0, 4, [r7], {4}
    2848:	04000000 	streq	r0, [r0], #-0
    284c:	01a90704 			; <UNDEFINED> instruction: 0x01a90704
    2850:	08040000 	stmdaeq	r4, {}	; <UNPREDICTABLE>
    2854:	0001a407 	andeq	sl, r1, r7, lsl #8
    2858:	89040600 	stmdbhi	r4, {r9, sl}
    285c:	04000000 	streq	r0, [r0], #-0
    2860:	00840801 	addeq	r0, r4, r1, lsl #16
    2864:	82050000 	andhi	r0, r5, #0
    2868:	07000000 	streq	r0, [r0, -r0]
    286c:	00000496 	muleq	r0, r6, r4
    2870:	25050401 	strcs	r0, [r5, #-1025]	; 0xfffffbff
    2874:	70000000 	andvc	r0, r0, r0
    2878:	2c00008f 	stccs	0, cr0, [r0], {143}	; 0x8f
    287c:	01000000 	mrseq	r0, (UNDEF: 0)
    2880:	0001099c 	muleq	r1, ip, r9
    2884:	735f0800 	cmpvc	pc, #0, 16
    2888:	04010031 	streq	r0, [r1], #-49	; 0xffffffcf
    288c:	00007c19 	andeq	r7, r0, r9, lsl ip
    2890:	0013c000 	andseq	ip, r3, r0
    2894:	0013bc00 	andseq	fp, r3, r0, lsl #24
    2898:	735f0800 	cmpvc	pc, #0, 16
    289c:	04010032 	streq	r0, [r1], #-50	; 0xffffffce
    28a0:	00007c2a 	andeq	r7, r0, sl, lsr #24
    28a4:	0013e500 	andseq	lr, r3, r0, lsl #10
    28a8:	0013e100 	andseq	lr, r3, r0, lsl #2
    28ac:	006e0800 	rsbeq	r0, lr, r0, lsl #16
    28b0:	2c360401 	cfldrscs	mvf0, [r6], #-4
    28b4:	0c000000 	stceq	0, cr0, [r0], {-0}
    28b8:	06000014 			; <UNDEFINED> instruction: 0x06000014
    28bc:	09000014 	stmdbeq	r0, {r2, r4}
    28c0:	01003173 	tsteq	r0, r3, ror r1
    28c4:	01091a05 	tsteq	r9, r5, lsl #20
    28c8:	143f0000 	ldrtne	r0, [pc], #-0	; 28d0 <__code_start__-0x5730>
    28cc:	14370000 	ldrtne	r0, [r7], #-0
    28d0:	73090000 	movwvc	r0, #36864	; 0x9000
    28d4:	05010032 	streq	r0, [r1, #-50]	; 0xffffffce
    28d8:	0001092c 	andeq	r0, r1, ip, lsr #18
    28dc:	00147b00 	andseq	r7, r4, r0, lsl #22
    28e0:	00147500 	andseq	r7, r4, r0, lsl #10
    28e4:	04060000 	streq	r0, [r6], #-0
    28e8:	00000062 	andeq	r0, r0, r2, rrx
	...

Disassembly of section .debug_abbrev:

00000000 <.debug_abbrev>:
       0:	25011101 	strcs	r1, [r1, #-257]	; 0xfffffeff
       4:	030b130e 	movweq	r1, #45838	; 0xb30e
       8:	110e1b0e 	tstne	lr, lr, lsl #22
       c:	10061201 	andne	r1, r6, r1, lsl #4
      10:	02000017 	andeq	r0, r0, #23
      14:	0b0b0024 	bleq	2c00ac <__bss_end__+0x2b6b14>
      18:	08030b3e 	stmdaeq	r3, {r1, r2, r3, r4, r5, r8, r9, fp}
      1c:	24030000 	strcs	r0, [r3], #-0
      20:	3e0b0b00 	vmlacc.f64	d0, d11, d0
      24:	000e030b 	andeq	r0, lr, fp, lsl #6
      28:	01130400 	tsteq	r3, r0, lsl #8
      2c:	0b3a0b0b 	bleq	e82c60 <__bss_end__+0xe796c8>
      30:	0b390b3b 	bleq	e42d24 <__bss_end__+0xe3978c>
      34:	00001301 	andeq	r1, r0, r1, lsl #6
      38:	03000d05 	movweq	r0, #3333	; 0xd05
      3c:	3b0b3a08 	blcc	2ce864 <__bss_end__+0x2c52cc>
      40:	490b390b 	stmdbmi	fp, {r0, r1, r3, r8, fp, ip, sp}
      44:	000b3813 	andeq	r3, fp, r3, lsl r8
      48:	000d0600 	andeq	r0, sp, r0, lsl #12
      4c:	0b3a0e03 	bleq	e83860 <__bss_end__+0xe7a2c8>
      50:	0b390b3b 	bleq	e42d44 <__bss_end__+0xe397ac>
      54:	0b381349 	bleq	e04d80 <__bss_end__+0xdfb7e8>
      58:	16070000 	strne	r0, [r7], -r0
      5c:	3a0e0300 	bcc	380c64 <__bss_end__+0x3776cc>
      60:	390b3b0b 	stmdbcc	fp, {r0, r1, r3, r8, r9, fp, ip, sp}
      64:	0013490b 	andseq	r4, r3, fp, lsl #18
      68:	012e0800 			; <UNDEFINED> instruction: 0x012e0800
      6c:	0e03193f 			; <UNDEFINED> instruction: 0x0e03193f
      70:	0b3b0b3a 	bleq	ec2d60 <__bss_end__+0xeb97c8>
      74:	19270b39 	stmdbne	r7!, {r0, r3, r4, r5, r8, r9, fp}
      78:	06120111 			; <UNDEFINED> instruction: 0x06120111
      7c:	42971840 	addsmi	r1, r7, #64, 16	; 0x400000
      80:	00130119 	andseq	r0, r3, r9, lsl r1
      84:	00340900 	eorseq	r0, r4, r0, lsl #18
      88:	0b3a0803 	bleq	e8209c <__bss_end__+0xe78b04>
      8c:	0b390b3b 	bleq	e42d80 <__bss_end__+0xe397e8>
      90:	0b1c1349 	bleq	704dbc <__bss_end__+0x6fb824>
      94:	340a0000 	strcc	r0, [sl], #-0
      98:	3a080300 	bcc	200ca0 <__bss_end__+0x1f7708>
      9c:	390b3b0b 	stmdbcc	fp, {r0, r1, r3, r8, r9, fp, ip, sp}
      a0:	0213490b 	andseq	r4, r3, #180224	; 0x2c000
      a4:	0b000018 	bleq	10c <__code_start__-0x7ef4>
      a8:	0111010b 	tsteq	r1, fp, lsl #2
      ac:	13010612 	movwne	r0, #5650	; 0x1612
      b0:	0b0c0000 	bleq	3000b8 <__bss_end__+0x2f6b20>
      b4:	01175501 	tsteq	r7, r1, lsl #10
      b8:	0d000013 	stceq	0, cr0, [r0, #-76]	; 0xffffffb4
      bc:	08030034 	stmdaeq	r3, {r2, r4, r5}
      c0:	0b3b0b3a 	bleq	ec2db0 <__bss_end__+0xeb9818>
      c4:	13490b39 	movtne	r0, #39737	; 0x9b39
      c8:	42b71702 	adcsmi	r1, r7, #524288	; 0x80000
      cc:	0e000017 	mcreq	0, 0, r0, cr0, cr7, {0}
      d0:	1755010b 	ldrbne	r0, [r5, -fp, lsl #2]
      d4:	1d0f0000 	stcne	0, cr0, [pc, #-0]	; dc <__code_start__-0x7f24>
      d8:	52133101 	andspl	r3, r3, #1073741824	; 0x40000000
      dc:	0b42b801 	bleq	10ae0e8 <__bss_end__+0x10a4b50>
      e0:	0b581755 	bleq	1605e3c <__bss_end__+0x15fc8a4>
      e4:	0b570b59 	bleq	15c2e50 <__bss_end__+0x15b98b8>
      e8:	00001301 	andeq	r1, r0, r1, lsl #6
      ec:	31000510 	tstcc	r0, r0, lsl r5
      f0:	b7170213 			; <UNDEFINED> instruction: 0xb7170213
      f4:	00001742 	andeq	r1, r0, r2, asr #14
      f8:	31003411 	tstcc	r0, r1, lsl r4
      fc:	b7170213 			; <UNDEFINED> instruction: 0xb7170213
     100:	00001742 	andeq	r1, r0, r2, asr #14
     104:	31010b12 	tstcc	r1, r2, lsl fp
     108:	00175513 	andseq	r5, r7, r3, lsl r5
     10c:	82891300 	addhi	r1, r9, #0, 6
     110:	01110101 	tsteq	r1, r1, lsl #2
     114:	00001331 	andeq	r1, r0, r1, lsr r3
     118:	01828a14 	orreq	r8, r2, r4, lsl sl
     11c:	91180200 	tstls	r8, r0, lsl #4
     120:	00001842 	andeq	r1, r0, r2, asr #16
     124:	01828915 	orreq	r8, r2, r5, lsl r9
     128:	31011101 	tstcc	r1, r1, lsl #2
     12c:	00130113 	andseq	r0, r3, r3, lsl r1
     130:	82891600 	addhi	r1, r9, #0, 12
     134:	01110001 	tsteq	r1, r1
     138:	00001331 	andeq	r1, r0, r1, lsr r3
     13c:	49010117 	stmdbmi	r1, {r0, r1, r2, r4, r8}
     140:	00130113 	andseq	r0, r3, r3, lsl r1
     144:	00211800 	eoreq	r1, r1, r0, lsl #16
     148:	0b2f1349 	bleq	bc4e74 <__bss_end__+0xbbb8dc>
     14c:	2e190000 	cdpcs	0, 1, cr0, cr9, cr0, {0}
     150:	03193f01 	tsteq	r9, #1, 30
     154:	3b0b3a0e 	blcc	2ce994 <__bss_end__+0x2c53fc>
     158:	270b390b 	strcs	r3, [fp, -fp, lsl #18]
     15c:	11134919 	tstne	r3, r9, lsl r9
     160:	40061201 	andmi	r1, r6, r1, lsl #4
     164:	19429718 	stmdbne	r2, {r3, r4, r8, r9, sl, ip, pc}^
     168:	00001301 	andeq	r1, r0, r1, lsl #6
     16c:	0300051a 	movweq	r0, #1306	; 0x51a
     170:	3b0b3a08 	blcc	2ce998 <__bss_end__+0x2c5400>
     174:	490b390b 	stmdbmi	fp, {r0, r1, r3, r8, fp, ip, sp}
     178:	b7170213 			; <UNDEFINED> instruction: 0xb7170213
     17c:	00001742 	andeq	r1, r0, r2, asr #14
     180:	0300051b 	movweq	r0, #1307	; 0x51b
     184:	3b0b3a0e 	blcc	2ce9c4 <__bss_end__+0x2c542c>
     188:	490b390b 	stmdbmi	fp, {r0, r1, r3, r8, fp, ip, sp}
     18c:	b7170213 			; <UNDEFINED> instruction: 0xb7170213
     190:	00001742 	andeq	r1, r0, r2, asr #14
     194:	0300341c 	movweq	r3, #1052	; 0x41c
     198:	3b0b3a08 	blcc	2ce9c0 <__bss_end__+0x2c5428>
     19c:	490b390b 	stmdbmi	fp, {r0, r1, r3, r8, fp, ip, sp}
     1a0:	1d000013 	stcne	0, cr0, [r0, #-76]	; 0xffffffb4
     1a4:	0e030034 	mcreq	0, 0, r0, cr3, cr4, {1}
     1a8:	0b3b0b3a 	bleq	ec2e98 <__bss_end__+0xeb9900>
     1ac:	13490b39 	movtne	r0, #39737	; 0x9b39
     1b0:	341e0000 	ldrcc	r0, [lr], #-0
     1b4:	3a0e0300 	bcc	380dbc <__bss_end__+0x377824>
     1b8:	390b3b0b 	stmdbcc	fp, {r0, r1, r3, r8, r9, fp, ip, sp}
     1bc:	0213490b 	andseq	r4, r3, #180224	; 0x2c000
     1c0:	1742b717 	smlaldne	fp, r2, r7, r7
     1c4:	0f1f0000 	svceq	0x001f0000
     1c8:	490b0b00 	stmdbmi	fp, {r8, r9, fp}
     1cc:	20000013 	andcs	r0, r0, r3, lsl r0
     1d0:	0e03012e 	adfeqsp	f0, f3, #0.5
     1d4:	0b3b0b3a 	bleq	ec2ec4 <__bss_end__+0xeb992c>
     1d8:	19270b39 	stmdbne	r7!, {r0, r3, r4, r5, r8, r9, fp}
     1dc:	0b201349 	bleq	804f08 <__bss_end__+0x7fb970>
     1e0:	00001301 	andeq	r1, r0, r1, lsl #6
     1e4:	03000521 	movweq	r0, #1313	; 0x521
     1e8:	3b0b3a08 	blcc	2cea10 <__bss_end__+0x2c5478>
     1ec:	490b390b 	stmdbmi	fp, {r0, r1, r3, r8, fp, ip, sp}
     1f0:	22000013 	andcs	r0, r0, #19
     1f4:	0e030005 	cdpeq	0, 0, cr0, cr3, cr5, {0}
     1f8:	0b3b0b3a 	bleq	ec2ee8 <__bss_end__+0xeb9950>
     1fc:	13490b39 	movtne	r0, #39737	; 0x9b39
     200:	0b230000 	bleq	8c0208 <__bss_end__+0x8b6c70>
     204:	24000001 	strcs	r0, [r0], #-1
     208:	193f002e 	ldmdbne	pc!, {r1, r2, r3, r5}	; <UNPREDICTABLE>
     20c:	0e6e193c 			; <UNDEFINED> instruction: 0x0e6e193c
     210:	0b3a0e03 	bleq	e83a24 <__bss_end__+0xe7a48c>
     214:	0b390b3b 	bleq	e42f08 <__bss_end__+0xe39970>
     218:	01000000 	mrseq	r0, (UNDEF: 0)
     21c:	0e250111 	mcreq	1, 1, r0, cr5, cr1, {0}
     220:	0e030b13 	vmoveq.32	d3[0], r0
     224:	01110e1b 	tsteq	r1, fp, lsl lr
     228:	17100612 			; <UNDEFINED> instruction: 0x17100612
     22c:	24020000 	strcs	r0, [r2], #-0
     230:	3e0b0b00 	vmlacc.f64	d0, d11, d0
     234:	0008030b 	andeq	r0, r8, fp, lsl #6
     238:	00240300 	eoreq	r0, r4, r0, lsl #6
     23c:	0b3e0b0b 	bleq	f82e70 <__bss_end__+0xf798d8>
     240:	00000e03 	andeq	r0, r0, r3, lsl #28
     244:	49002604 	stmdbmi	r0, {r2, r9, sl, sp}
     248:	05000013 	streq	r0, [r0, #-19]	; 0xffffffed
     24c:	0e030016 	mcreq	0, 0, r0, cr3, cr6, {0}
     250:	0b3b0b3a 	bleq	ec2f40 <__bss_end__+0xeb99a8>
     254:	13490b39 	movtne	r0, #39737	; 0x9b39
     258:	04060000 	streq	r0, [r6], #-0
     25c:	0b0b3e01 	bleq	2cfa68 <__bss_end__+0x2c64d0>
     260:	3a13490b 	bcc	4d2694 <__bss_end__+0x4c90fc>
     264:	390b3b0b 	stmdbcc	fp, {r0, r1, r3, r8, r9, fp, ip, sp}
     268:	0013010b 	andseq	r0, r3, fp, lsl #2
     26c:	00280700 	eoreq	r0, r8, r0, lsl #14
     270:	0b1c0e03 	bleq	703a84 <__bss_end__+0x6fa4ec>
     274:	34080000 	strcc	r0, [r8], #-0
     278:	3a0e0300 	bcc	380e80 <__bss_end__+0x3778e8>
     27c:	390b3b0b 	stmdbcc	fp, {r0, r1, r3, r8, r9, fp, ip, sp}
     280:	1c13490b 			; <UNDEFINED> instruction: 0x1c13490b
     284:	09000006 	stmdbeq	r0, {r1, r2}
     288:	193f012e 	ldmdbne	pc!, {r1, r2, r3, r5, r8}	; <UNPREDICTABLE>
     28c:	0b3a0e03 	bleq	e83aa0 <__bss_end__+0xe7a508>
     290:	0b390b3b 	bleq	e42f84 <__bss_end__+0xe399ec>
     294:	13491927 	movtne	r1, #39207	; 0x9927
     298:	06120111 			; <UNDEFINED> instruction: 0x06120111
     29c:	42971840 	addsmi	r1, r7, #64, 16	; 0x400000
     2a0:	00130119 	andseq	r0, r3, r9, lsl r1
     2a4:	00050a00 	andeq	r0, r5, r0, lsl #20
     2a8:	0b3a0803 	bleq	e822bc <__bss_end__+0xe78d24>
     2ac:	0b390b3b 	bleq	e42fa0 <__bss_end__+0xe39a08>
     2b0:	17021349 	strne	r1, [r2, -r9, asr #6]
     2b4:	001742b7 			; <UNDEFINED> instruction: 0x001742b7
     2b8:	00340b00 	eorseq	r0, r4, r0, lsl #22
     2bc:	0b3a0e03 	bleq	e83ad0 <__bss_end__+0xe7a538>
     2c0:	0b390b3b 	bleq	e42fb4 <__bss_end__+0xe39a1c>
     2c4:	17021349 	strne	r1, [r2, -r9, asr #6]
     2c8:	001742b7 			; <UNDEFINED> instruction: 0x001742b7
     2cc:	00340c00 	eorseq	r0, r4, r0, lsl #24
     2d0:	0b3a0803 	bleq	e822e4 <__bss_end__+0xe78d4c>
     2d4:	0b390b3b 	bleq	e42fc8 <__bss_end__+0xe39a30>
     2d8:	17021349 	strne	r1, [r2, -r9, asr #6]
     2dc:	001742b7 			; <UNDEFINED> instruction: 0x001742b7
     2e0:	82890d00 	addhi	r0, r9, #0, 26
     2e4:	01110101 	tsteq	r1, r1, lsl #2
     2e8:	00001331 	andeq	r1, r0, r1, lsr r3
     2ec:	01828a0e 	orreq	r8, r2, lr, lsl #20
     2f0:	91180200 	tstls	r8, r0, lsl #4
     2f4:	00001842 	andeq	r1, r0, r2, asr #16
     2f8:	3f012e0f 	svccc	0x00012e0f
     2fc:	3a0e0319 	bcc	380f68 <__bss_end__+0x3779d0>
     300:	390b3b0b 	stmdbcc	fp, {r0, r1, r3, r8, r9, fp, ip, sp}
     304:	1119270b 	tstne	r9, fp, lsl #14
     308:	40061201 	andmi	r1, r6, r1, lsl #4
     30c:	19429718 	stmdbne	r2, {r3, r4, r8, r9, sl, ip, pc}^
     310:	00001301 	andeq	r1, r0, r1, lsl #6
     314:	01828910 	orreq	r8, r2, r0, lsl r9
     318:	31011101 	tstcc	r1, r1, lsl #2
     31c:	00130113 	andseq	r0, r3, r3, lsl r1
     320:	82891100 	addhi	r1, r9, #0, 2
     324:	01110001 	tsteq	r1, r1
     328:	00001331 	andeq	r1, r0, r1, lsr r3
     32c:	03000512 	movweq	r0, #1298	; 0x512
     330:	3b0b3a0e 	blcc	2ceb70 <__bss_end__+0x2c55d8>
     334:	490b390b 	stmdbmi	fp, {r0, r1, r3, r8, fp, ip, sp}
     338:	b7170213 			; <UNDEFINED> instruction: 0xb7170213
     33c:	00001742 	andeq	r1, r0, r2, asr #14
     340:	03012e13 	movweq	r2, #7699	; 0x1e13
     344:	3b0b3a0e 	blcc	2ceb84 <__bss_end__+0x2c55ec>
     348:	270b390b 	strcs	r3, [fp, -fp, lsl #18]
     34c:	20134919 	andscs	r4, r3, r9, lsl r9
     350:	0013010b 	andseq	r0, r3, fp, lsl #2
     354:	00051400 	andeq	r1, r5, r0, lsl #8
     358:	0b3a0803 	bleq	e8236c <__bss_end__+0xe78dd4>
     35c:	0b390b3b 	bleq	e43050 <__bss_end__+0xe39ab8>
     360:	00001349 	andeq	r1, r0, r9, asr #6
     364:	3f002e15 	svccc	0x00002e15
     368:	6e193c19 	mrcvs	12, 0, r3, cr9, cr9, {0}
     36c:	3a0e030e 	bcc	380fac <__bss_end__+0x377a14>
     370:	390b3b0b 	stmdbcc	fp, {r0, r1, r3, r8, r9, fp, ip, sp}
     374:	0000000b 	andeq	r0, r0, fp
     378:	25011101 	strcs	r1, [r1, #-257]	; 0xfffffeff
     37c:	030b130e 	movweq	r1, #45838	; 0xb30e
     380:	110e1b0e 	tstne	lr, lr, lsl #22
     384:	10061201 	andne	r1, r6, r1, lsl #4
     388:	02000017 	andeq	r0, r0, #23
     38c:	0e030016 	mcreq	0, 0, r0, cr3, cr6, {0}
     390:	0b3b0b3a 	bleq	ec3080 <__bss_end__+0xeb9ae8>
     394:	13490b39 	movtne	r0, #39737	; 0x9b39
     398:	13030000 	movwne	r0, #12288	; 0x3000
     39c:	0b0e0301 	bleq	380fa8 <__bss_end__+0x377a10>
     3a0:	3b0b3a0b 	blcc	2cebd4 <__bss_end__+0x2c563c>
     3a4:	0013010b 	andseq	r0, r3, fp, lsl #2
     3a8:	000d0400 	andeq	r0, sp, r0, lsl #8
     3ac:	13490e03 	movtne	r0, #40451	; 0x9e03
     3b0:	19340b38 	ldmdbne	r4!, {r3, r4, r5, r8, r9, fp}
     3b4:	0f050000 	svceq	0x00050000
     3b8:	000b0b00 	andeq	r0, fp, r0, lsl #22
     3bc:	00240600 	eoreq	r0, r4, r0, lsl #12
     3c0:	0b3e0b0b 	bleq	f82ff4 <__bss_end__+0xf79a5c>
     3c4:	00000803 	andeq	r0, r0, r3, lsl #16
     3c8:	0b002407 	bleq	93ec <buf.0+0x254>
     3cc:	030b3e0b 	movweq	r3, #48651	; 0xbe0b
     3d0:	0800000e 	stmdaeq	r0, {r1, r2, r3}
     3d4:	19270115 	stmdbne	r7!, {r0, r2, r4, r8}
     3d8:	13011349 	movwne	r1, #4937	; 0x1349
     3dc:	05090000 	streq	r0, [r9, #-0]
     3e0:	00134900 	andseq	r4, r3, r0, lsl #18
     3e4:	000f0a00 	andeq	r0, pc, r0, lsl #20
     3e8:	13490b0b 	movtne	r0, #39691	; 0x9b0b
     3ec:	260b0000 	strcs	r0, [fp], -r0
     3f0:	00134900 	andseq	r4, r3, r0, lsl #18
     3f4:	00340c00 	eorseq	r0, r4, r0, lsl #24
     3f8:	0b3a0e03 	bleq	e83c0c <__bss_end__+0xe7a674>
     3fc:	0b390b3b 	bleq	e430f0 <__bss_end__+0xe39b58>
     400:	193f1349 	ldmdbne	pc!, {r0, r3, r6, r8, r9, ip}	; <UNPREDICTABLE>
     404:	0000193c 	andeq	r1, r0, ip, lsr r9
     408:	3f012e0d 	svccc	0x00012e0d
     40c:	3a0e0319 	bcc	381078 <__bss_end__+0x377ae0>
     410:	390b3b0b 	stmdbcc	fp, {r0, r1, r3, r8, r9, fp, ip, sp}
     414:	4919270b 	ldmdbmi	r9, {r0, r1, r3, r8, r9, sl, sp}
     418:	12011113 	andne	r1, r1, #-1073741820	; 0xc0000004
     41c:	97184006 	ldrls	r4, [r8, -r6]
     420:	13011942 	movwne	r1, #6466	; 0x1942
     424:	050e0000 	streq	r0, [lr, #-0]
     428:	3a080300 	bcc	201030 <__bss_end__+0x1f7a98>
     42c:	390b3b0b 	stmdbcc	fp, {r0, r1, r3, r8, r9, fp, ip, sp}
     430:	0213490b 	andseq	r4, r3, #180224	; 0x2c000
     434:	0f000018 	svceq	0x00000018
     438:	00000018 	andeq	r0, r0, r8, lsl r0
     43c:	03003410 	movweq	r3, #1040	; 0x410
     440:	3b0b3a08 	blcc	2cec68 <__bss_end__+0x2c56d0>
     444:	490b390b 	stmdbmi	fp, {r0, r1, r3, r8, fp, ip, sp}
     448:	00180213 	andseq	r0, r8, r3, lsl r2
     44c:	00341100 	eorseq	r1, r4, r0, lsl #2
     450:	0b3a0e03 	bleq	e83c64 <__bss_end__+0xe7a6cc>
     454:	0b390b3b 	bleq	e43148 <__bss_end__+0xe39bb0>
     458:	18021349 	stmdane	r2, {r0, r3, r6, r8, r9, ip}
     45c:	34120000 	ldrcc	r0, [r2], #-0
     460:	3a080300 	bcc	201068 <__bss_end__+0x1f7ad0>
     464:	390b3b0b 	stmdbcc	fp, {r0, r1, r3, r8, r9, fp, ip, sp}
     468:	0213490b 	andseq	r4, r3, #180224	; 0x2c000
     46c:	1742b717 	smlaldne	fp, r2, r7, r7
     470:	89130000 	ldmdbhi	r3, {}	; <UNPREDICTABLE>
     474:	11010182 	smlabbne	r1, r2, r1, r0
     478:	01133101 	tsteq	r3, r1, lsl #2
     47c:	14000013 	strne	r0, [r0], #-19	; 0xffffffed
     480:	0001828a 	andeq	r8, r1, sl, lsl #5
     484:	42911802 	addsmi	r1, r1, #131072	; 0x20000
     488:	15000018 	strne	r0, [r0, #-24]	; 0xffffffe8
     48c:	01018289 	smlabbeq	r1, r9, r2, r8
     490:	00000111 	andeq	r0, r0, r1, lsl r1
     494:	49010116 	stmdbmi	r1, {r1, r2, r4, r8}
     498:	00130113 	andseq	r0, r3, r3, lsl r1
     49c:	00211700 	eoreq	r1, r1, r0, lsl #14
     4a0:	052f1349 	streq	r1, [pc, #-841]!	; 15f <__code_start__-0x7ea1>
     4a4:	2e180000 	cdpcs	0, 1, cr0, cr8, cr0, {0}
     4a8:	3c193f00 	ldccc	15, cr3, [r9], {-0}
     4ac:	030e6e19 	movweq	r6, #60953	; 0xee19
     4b0:	3b0b3a0e 	blcc	2cecf0 <__bss_end__+0x2c5758>
     4b4:	000b390b 	andeq	r3, fp, fp, lsl #18
     4b8:	11010000 	mrsne	r0, (UNDEF: 1)
     4bc:	130e2501 	movwne	r2, #58625	; 0xe501
     4c0:	1b0e030b 	blne	3810f4 <__bss_end__+0x377b5c>
     4c4:	1201110e 	andne	r1, r1, #-2147483645	; 0x80000003
     4c8:	00171006 	andseq	r1, r7, r6
     4cc:	00240200 	eoreq	r0, r4, r0, lsl #4
     4d0:	0b3e0b0b 	bleq	f83104 <__bss_end__+0xf79b6c>
     4d4:	00000803 	andeq	r0, r0, r3, lsl #16
     4d8:	0b002403 	bleq	94ec <buf.0+0x354>
     4dc:	030b3e0b 	movweq	r3, #48651	; 0xbe0b
     4e0:	0400000e 	streq	r0, [r0], #-14
     4e4:	19270115 	stmdbne	r7!, {r0, r2, r4, r8}
     4e8:	13011349 	movwne	r1, #4937	; 0x1349
     4ec:	05050000 	streq	r0, [r5, #-0]
     4f0:	00134900 	andseq	r4, r3, r0, lsl #18
     4f4:	00340600 	eorseq	r0, r4, r0, lsl #12
     4f8:	0b3a0e03 	bleq	e83d0c <__bss_end__+0xe7a774>
     4fc:	0b390b3b 	bleq	e431f0 <__bss_end__+0xe39c58>
     500:	193f1349 	ldmdbne	pc!, {r0, r3, r6, r8, r9, ip}	; <UNPREDICTABLE>
     504:	0000193c 	andeq	r1, r0, ip, lsr r9
     508:	0b000f07 	bleq	412c <__code_start__-0x3ed4>
     50c:	0013490b 	andseq	r4, r3, fp, lsl #18
     510:	00260800 	eoreq	r0, r6, r0, lsl #16
     514:	00001349 	andeq	r1, r0, r9, asr #6
     518:	47003409 	strmi	r3, [r0, -r9, lsl #8]
     51c:	3b0b3a13 	blcc	2ced70 <__bss_end__+0x2c57d8>
     520:	020b390b 	andeq	r3, fp, #180224	; 0x2c000
     524:	0a000018 	beq	58c <__code_start__-0x7a74>
     528:	193f012e 	ldmdbne	pc!, {r1, r2, r3, r5, r8}	; <UNPREDICTABLE>
     52c:	0b3a0e03 	bleq	e83d40 <__bss_end__+0xe7a7a8>
     530:	0b390b3b 	bleq	e43224 <__bss_end__+0xe39c8c>
     534:	13491927 	movtne	r1, #39207	; 0x9927
     538:	06120111 			; <UNDEFINED> instruction: 0x06120111
     53c:	42961840 	addsmi	r1, r6, #64, 16	; 0x400000
     540:	0b000019 	bleq	5ac <__code_start__-0x7a54>
     544:	08030005 	stmdaeq	r3, {r0, r2}
     548:	0b3b0b3a 	bleq	ec3238 <__bss_end__+0xeb9ca0>
     54c:	13490b39 	movtne	r0, #39737	; 0x9b39
     550:	42b71702 	adcsmi	r1, r7, #524288	; 0x80000
     554:	00000017 	andeq	r0, r0, r7, lsl r0
     558:	25011101 	strcs	r1, [r1, #-257]	; 0xfffffeff
     55c:	030b130e 	movweq	r1, #45838	; 0xb30e
     560:	110e1b0e 	tstne	lr, lr, lsl #22
     564:	10061201 	andne	r1, r6, r1, lsl #4
     568:	02000017 	andeq	r0, r0, #23
     56c:	0b0b0024 	bleq	2c0604 <__bss_end__+0x2b706c>
     570:	08030b3e 	stmdaeq	r3, {r1, r2, r3, r4, r5, r8, r9, fp}
     574:	24030000 	strcs	r0, [r3], #-0
     578:	3e0b0b00 	vmlacc.f64	d0, d11, d0
     57c:	000e030b 	andeq	r0, lr, fp, lsl #6
     580:	01150400 	tsteq	r5, r0, lsl #8
     584:	13491927 	movtne	r1, #39207	; 0x9927
     588:	00001301 	andeq	r1, r0, r1, lsl #6
     58c:	49000505 	stmdbmi	r0, {r0, r2, r8, sl}
     590:	06000013 			; <UNDEFINED> instruction: 0x06000013
     594:	0e030034 	mcreq	0, 0, r0, cr3, cr4, {1}
     598:	0b3b0b3a 	bleq	ec3288 <__bss_end__+0xeb9cf0>
     59c:	13490b39 	movtne	r0, #39737	; 0x9b39
     5a0:	193c193f 	ldmdbne	ip!, {r0, r1, r2, r3, r4, r5, r8, fp, ip}
     5a4:	0f070000 	svceq	0x00070000
     5a8:	490b0b00 	stmdbmi	fp, {r8, r9, fp}
     5ac:	08000013 	stmdaeq	r0, {r0, r1, r4}
     5b0:	13470034 	movtne	r0, #28724	; 0x7034
     5b4:	0b3b0b3a 	bleq	ec32a4 <__bss_end__+0xeb9d0c>
     5b8:	18020b39 	stmdane	r2, {r0, r3, r4, r5, r8, r9, fp}
     5bc:	2e090000 	cdpcs	0, 0, cr0, cr9, cr0, {0}
     5c0:	03193f01 	tsteq	r9, #1, 30
     5c4:	3b0b3a0e 	blcc	2cee04 <__bss_end__+0x2c586c>
     5c8:	270b390b 	strcs	r3, [fp, -fp, lsl #18]
     5cc:	12011119 	andne	r1, r1, #1073741830	; 0x40000006
     5d0:	97184006 	ldrls	r4, [r8, -r6]
     5d4:	13011942 	movwne	r1, #6466	; 0x1942
     5d8:	050a0000 	streq	r0, [sl, #-0]
     5dc:	3a080300 	bcc	2011e4 <__bss_end__+0x1f7c4c>
     5e0:	390b3b0b 	stmdbcc	fp, {r0, r1, r3, r8, r9, fp, ip, sp}
     5e4:	0213490b 	andseq	r4, r3, #180224	; 0x2c000
     5e8:	0b000018 	bleq	650 <__code_start__-0x79b0>
     5ec:	193f002e 	ldmdbne	pc!, {r1, r2, r3, r5}	; <UNPREDICTABLE>
     5f0:	0b3a0e03 	bleq	e83e04 <__bss_end__+0xe7a86c>
     5f4:	0b390b3b 	bleq	e432e8 <__bss_end__+0xe39d50>
     5f8:	01111927 	tsteq	r1, r7, lsr #18
     5fc:	18400612 	stmdane	r0, {r1, r4, r9, sl}^
     600:	00194297 	mulseq	r9, r7, r2
     604:	012e0c00 			; <UNDEFINED> instruction: 0x012e0c00
     608:	0b3a0e03 	bleq	e83e1c <__bss_end__+0xe7a884>
     60c:	0b390b3b 	bleq	e43300 <__bss_end__+0xe39d68>
     610:	13491927 	movtne	r1, #39207	; 0x9927
     614:	06120111 			; <UNDEFINED> instruction: 0x06120111
     618:	42971840 	addsmi	r1, r7, #64, 16	; 0x400000
     61c:	00130119 	andseq	r0, r3, r9, lsl r1
     620:	00050d00 	andeq	r0, r5, r0, lsl #26
     624:	0b3a0803 	bleq	e82638 <__bss_end__+0xe790a0>
     628:	0b390b3b 	bleq	e4331c <__bss_end__+0xe39d84>
     62c:	17021349 	strne	r1, [r2, -r9, asr #6]
     630:	001742b7 			; <UNDEFINED> instruction: 0x001742b7
     634:	82890e00 	addhi	r0, r9, #0, 28
     638:	01110101 	tsteq	r1, r1, lsl #2
     63c:	00001331 	andeq	r1, r0, r1, lsr r3
     640:	01828a0f 	orreq	r8, r2, pc, lsl #20
     644:	91180200 	tstls	r8, r0, lsl #4
     648:	00001842 	andeq	r1, r0, r2, asr #16
     64c:	3f002e10 	svccc	0x00002e10
     650:	6e193c19 	mrcvs	12, 0, r3, cr9, cr9, {0}
     654:	3a0e030e 	bcc	381294 <__bss_end__+0x377cfc>
     658:	390b3b0b 	stmdbcc	fp, {r0, r1, r3, r8, r9, fp, ip, sp}
     65c:	0000000b 	andeq	r0, r0, fp
     660:	25011101 	strcs	r1, [r1, #-257]	; 0xfffffeff
     664:	030b130e 	movweq	r1, #45838	; 0xb30e
     668:	110e1b0e 	tstne	lr, lr, lsl #22
     66c:	10061201 	andne	r1, r6, r1, lsl #4
     670:	02000017 	andeq	r0, r0, #23
     674:	0b0b0024 	bleq	2c070c <__bss_end__+0x2b7174>
     678:	08030b3e 	stmdaeq	r3, {r1, r2, r3, r4, r5, r8, r9, fp}
     67c:	24030000 	strcs	r0, [r3], #-0
     680:	3e0b0b00 	vmlacc.f64	d0, d11, d0
     684:	000e030b 	andeq	r0, lr, fp, lsl #6
     688:	00160400 	andseq	r0, r6, r0, lsl #8
     68c:	0b3a0e03 	bleq	e83ea0 <__bss_end__+0xe7a908>
     690:	0b390b3b 	bleq	e43384 <__bss_end__+0xe39dec>
     694:	00001349 	andeq	r1, r0, r9, asr #6
     698:	27011505 	strcs	r1, [r1, -r5, lsl #10]
     69c:	01134919 	tsteq	r3, r9, lsl r9
     6a0:	06000013 			; <UNDEFINED> instruction: 0x06000013
     6a4:	13490005 	movtne	r0, #36869	; 0x9005
     6a8:	34070000 	strcc	r0, [r7], #-0
     6ac:	3a0e0300 	bcc	3812b4 <__bss_end__+0x377d1c>
     6b0:	390b3b0b 	stmdbcc	fp, {r0, r1, r3, r8, r9, fp, ip, sp}
     6b4:	3f13490b 	svccc	0x0013490b
     6b8:	00193c19 	andseq	r3, r9, r9, lsl ip
     6bc:	000f0800 	andeq	r0, pc, r0, lsl #16
     6c0:	13490b0b 	movtne	r0, #39691	; 0x9b0b
     6c4:	26090000 	strcs	r0, [r9], -r0
     6c8:	00134900 	andseq	r4, r3, r0, lsl #18
     6cc:	01130a00 	tsteq	r3, r0, lsl #20
     6d0:	0b0b0e03 	bleq	2c3ee4 <__bss_end__+0x2ba94c>
     6d4:	0b3b0b3a 	bleq	ec33c4 <__bss_end__+0xeb9e2c>
     6d8:	00001301 	andeq	r1, r0, r1, lsl #6
     6dc:	03000d0b 	movweq	r0, #3339	; 0xd0b
     6e0:	3813490e 	ldmdacc	r3, {r1, r2, r3, r8, fp, lr}
     6e4:	0019340b 	andseq	r3, r9, fp, lsl #8
     6e8:	000f0c00 	andeq	r0, pc, r0, lsl #24
     6ec:	00000b0b 	andeq	r0, r0, fp, lsl #22
     6f0:	3f012e0d 	svccc	0x00012e0d
     6f4:	3a0e0319 	bcc	381360 <__bss_end__+0x377dc8>
     6f8:	390b3b0b 	stmdbcc	fp, {r0, r1, r3, r8, r9, fp, ip, sp}
     6fc:	4919270b 	ldmdbmi	r9, {r0, r1, r3, r8, r9, sl, sp}
     700:	12011113 	andne	r1, r1, #-1073741820	; 0xc0000004
     704:	97184006 	ldrls	r4, [r8, -r6]
     708:	13011942 	movwne	r1, #6466	; 0x1942
     70c:	050e0000 	streq	r0, [lr, #-0]
     710:	3a080300 	bcc	201318 <__bss_end__+0x1f7d80>
     714:	390b3b0b 	stmdbcc	fp, {r0, r1, r3, r8, r9, fp, ip, sp}
     718:	0213490b 	andseq	r4, r3, #180224	; 0x2c000
     71c:	1742b717 	smlaldne	fp, r2, r7, r7
     720:	050f0000 	streq	r0, [pc, #-0]	; 728 <__code_start__-0x78d8>
     724:	3a0e0300 	bcc	38132c <__bss_end__+0x377d94>
     728:	390b3b0b 	stmdbcc	fp, {r0, r1, r3, r8, r9, fp, ip, sp}
     72c:	0213490b 	andseq	r4, r3, #180224	; 0x2c000
     730:	10000018 	andne	r0, r0, r8, lsl r0
     734:	08030034 	stmdaeq	r3, {r2, r4, r5}
     738:	0b3b0b3a 	bleq	ec3428 <__bss_end__+0xeb9e90>
     73c:	13490b39 	movtne	r0, #39737	; 0x9b39
     740:	42b71702 	adcsmi	r1, r7, #524288	; 0x80000
     744:	11000017 	tstne	r0, r7, lsl r0
     748:	0e030034 	mcreq	0, 0, r0, cr3, cr4, {1}
     74c:	0b3b0b3a 	bleq	ec343c <__bss_end__+0xeb9ea4>
     750:	13490b39 	movtne	r0, #39737	; 0x9b39
     754:	42b71702 	adcsmi	r1, r7, #524288	; 0x80000
     758:	12000017 	andne	r0, r0, #23
     75c:	0e030034 	mcreq	0, 0, r0, cr3, cr4, {1}
     760:	19341349 	ldmdbne	r4!, {r0, r3, r6, r8, r9, ip}
     764:	00001802 	andeq	r1, r0, r2, lsl #16
     768:	11010b13 	tstne	r1, r3, lsl fp
     76c:	00061201 	andeq	r1, r6, r1, lsl #4
     770:	00341400 	eorseq	r1, r4, r0, lsl #8
     774:	0b3a0803 	bleq	e82788 <__bss_end__+0xe791f0>
     778:	0b390b3b 	bleq	e4346c <__bss_end__+0xe39ed4>
     77c:	18021349 	stmdane	r2, {r0, r3, r6, r8, r9, ip}
     780:	34150000 	ldrcc	r0, [r5], #-0
     784:	3a0e0300 	bcc	38138c <__bss_end__+0x377df4>
     788:	390b3b0b 	stmdbcc	fp, {r0, r1, r3, r8, r9, fp, ip, sp}
     78c:	0213490b 	andseq	r4, r3, #180224	; 0x2c000
     790:	16000018 			; <UNDEFINED> instruction: 0x16000018
     794:	0111010b 	tsteq	r1, fp, lsl #2
     798:	13010612 	movwne	r0, #5650	; 0x1612
     79c:	34170000 	ldrcc	r0, [r7], #-0
     7a0:	3a080300 	bcc	2013a8 <__bss_end__+0x1f7e10>
     7a4:	390b3b0b 	stmdbcc	fp, {r0, r1, r3, r8, r9, fp, ip, sp}
     7a8:	0013490b 	andseq	r4, r3, fp, lsl #18
     7ac:	82891800 	addhi	r1, r9, #0, 16
     7b0:	01110101 	tsteq	r1, r1, lsl #2
     7b4:	13011331 	movwne	r1, #4913	; 0x1331
     7b8:	8a190000 	bhi	6407c0 <__bss_end__+0x637228>
     7bc:	02000182 	andeq	r0, r0, #-2147483616	; 0x80000020
     7c0:	18429118 	stmdane	r2, {r3, r4, r8, ip, pc}^
     7c4:	891a0000 	ldmdbhi	sl, {}	; <UNPREDICTABLE>
     7c8:	11000182 	smlabbne	r0, r2, r1, r0
     7cc:	00133101 	andseq	r3, r3, r1, lsl #2
     7d0:	82891b00 	addhi	r1, r9, #0, 22
     7d4:	01110101 	tsteq	r1, r1, lsl #2
     7d8:	00001301 	andeq	r1, r0, r1, lsl #6
     7dc:	4901011c 	stmdbmi	r1, {r2, r3, r4, r8}
     7e0:	00130113 	andseq	r0, r3, r3, lsl r1
     7e4:	00211d00 	eoreq	r1, r1, r0, lsl #26
     7e8:	0b2f1349 	bleq	bc5514 <__bss_end__+0xbbbf7c>
     7ec:	2e1e0000 	cdpcs	0, 1, cr0, cr14, cr0, {0}
     7f0:	3a0e0301 	bcc	3813fc <__bss_end__+0x377e64>
     7f4:	390b3b0b 	stmdbcc	fp, {r0, r1, r3, r8, r9, fp, ip, sp}
     7f8:	4919270b 	ldmdbmi	r9, {r0, r1, r3, r8, r9, sl, sp}
     7fc:	12011113 	andne	r1, r1, #-1073741820	; 0xc0000004
     800:	97184006 	ldrls	r4, [r8, -r6]
     804:	13011942 	movwne	r1, #6466	; 0x1942
     808:	051f0000 	ldreq	r0, [pc, #-0]	; 810 <__code_start__-0x77f0>
     80c:	3a0e0300 	bcc	381414 <__bss_end__+0x377e7c>
     810:	390b3b0b 	stmdbcc	fp, {r0, r1, r3, r8, r9, fp, ip, sp}
     814:	0213490b 	andseq	r4, r3, #180224	; 0x2c000
     818:	1742b717 	smlaldne	fp, r2, r7, r7
     81c:	2e200000 	cdpcs	0, 2, cr0, cr0, cr0, {0}
     820:	3a080301 	bcc	20142c <__bss_end__+0x1f7e94>
     824:	390b3b0b 	stmdbcc	fp, {r0, r1, r3, r8, r9, fp, ip, sp}
     828:	4919270b 	ldmdbmi	r9, {r0, r1, r3, r8, r9, sl, sp}
     82c:	12011113 	andne	r1, r1, #-1073741820	; 0xc0000004
     830:	97184006 	ldrls	r4, [r8, -r6]
     834:	13011942 	movwne	r1, #6466	; 0x1942
     838:	2e210000 	cdpcs	0, 2, cr0, cr1, cr0, {0}
     83c:	03193f01 	tsteq	r9, #1, 30
     840:	3b0b3a0e 	blcc	2cf080 <__bss_end__+0x2c5ae8>
     844:	270b390b 	strcs	r3, [fp, -fp, lsl #18]
     848:	12011119 	andne	r1, r1, #1073741830	; 0x40000006
     84c:	97184006 	ldrls	r4, [r8, -r6]
     850:	13011942 	movwne	r1, #6466	; 0x1942
     854:	2e220000 	cdpcs	0, 2, cr0, cr2, cr0, {0}
     858:	3c193f00 	ldccc	15, cr3, [r9], {-0}
     85c:	030e6e19 	movweq	r6, #60953	; 0xee19
     860:	3b0b3a0e 	blcc	2cf0a0 <__bss_end__+0x2c5b08>
     864:	000b390b 	andeq	r3, fp, fp, lsl #18
     868:	11010000 	mrsne	r0, (UNDEF: 1)
     86c:	130e2501 	movwne	r2, #58625	; 0xe501
     870:	1b0e030b 	blne	3814a4 <__bss_end__+0x377f0c>
     874:	1201110e 	andne	r1, r1, #-2147483645	; 0x80000003
     878:	00171006 	andseq	r1, r7, r6
     87c:	00240200 	eoreq	r0, r4, r0, lsl #4
     880:	0b3e0b0b 	bleq	f834b4 <__bss_end__+0xf79f1c>
     884:	00000803 	andeq	r0, r0, r3, lsl #16
     888:	0b002403 	bleq	989c <__bss_end__+0x304>
     88c:	030b3e0b 	movweq	r3, #48651	; 0xbe0b
     890:	0400000e 	streq	r0, [r0], #-14
     894:	19270115 	stmdbne	r7!, {r0, r2, r4, r8}
     898:	13011349 	movwne	r1, #4937	; 0x1349
     89c:	05050000 	streq	r0, [r5, #-0]
     8a0:	00134900 	andseq	r4, r3, r0, lsl #18
     8a4:	000f0600 	andeq	r0, pc, r0, lsl #12
     8a8:	13490b0b 	movtne	r0, #39691	; 0x9b0b
     8ac:	26070000 	strcs	r0, [r7], -r0
     8b0:	00134900 	andseq	r4, r3, r0, lsl #18
     8b4:	00340800 	eorseq	r0, r4, r0, lsl #16
     8b8:	0b3a0e03 	bleq	e840cc <__bss_end__+0xe7ab34>
     8bc:	0b390b3b 	bleq	e435b0 <__bss_end__+0xe3a018>
     8c0:	193f1349 	ldmdbne	pc!, {r0, r3, r6, r8, r9, ip}	; <UNPREDICTABLE>
     8c4:	0000193c 	andeq	r1, r0, ip, lsr r9
     8c8:	3f012e09 	svccc	0x00012e09
     8cc:	3a0e0319 	bcc	381538 <__bss_end__+0x377fa0>
     8d0:	390b3b0b 	stmdbcc	fp, {r0, r1, r3, r8, r9, fp, ip, sp}
     8d4:	8719270b 	ldrhi	r2, [r9, -fp, lsl #14]
     8d8:	01111901 	tsteq	r1, r1, lsl #18
     8dc:	18400612 	stmdane	r0, {r1, r4, r9, sl}^
     8e0:	01194297 			; <UNDEFINED> instruction: 0x01194297
     8e4:	0a000013 	beq	938 <__code_start__-0x76c8>
     8e8:	01018289 	smlabbeq	r1, r9, r2, r8
     8ec:	13010111 	movwne	r0, #4369	; 0x1111
     8f0:	8a0b0000 	bhi	2c08f8 <__bss_end__+0x2b7360>
     8f4:	02000182 	andeq	r0, r0, #-2147483616	; 0x80000020
     8f8:	18429118 	stmdane	r2, {r3, r4, r8, ip, pc}^
     8fc:	890c0000 	stmdbhi	ip, {}	; <UNPREDICTABLE>
     900:	11000182 	smlabbne	r0, r2, r1, r0
     904:	00133101 	andseq	r3, r3, r1, lsl #2
     908:	82890d00 	addhi	r0, r9, #0, 26
     90c:	01110101 	tsteq	r1, r1, lsl #2
     910:	13011331 	movwne	r1, #4913	; 0x1331
     914:	2e0e0000 	cdpcs	0, 0, cr0, cr14, cr0, {0}
     918:	3c193f00 	ldccc	15, cr3, [r9], {-0}
     91c:	030e6e19 	movweq	r6, #60953	; 0xee19
     920:	3b0b3a0e 	blcc	2cf160 <__bss_end__+0x2c5bc8>
     924:	000b390b 	andeq	r3, fp, fp, lsl #18
     928:	11010000 	mrsne	r0, (UNDEF: 1)
     92c:	130e2501 	movwne	r2, #58625	; 0xe501
     930:	1b0e030b 	blne	381564 <__bss_end__+0x377fcc>
     934:	1201110e 	andne	r1, r1, #-2147483645	; 0x80000003
     938:	00171006 	andseq	r1, r7, r6
     93c:	00240200 	eoreq	r0, r4, r0, lsl #4
     940:	0b3e0b0b 	bleq	f83574 <__bss_end__+0xf79fdc>
     944:	00000803 	andeq	r0, r0, r3, lsl #16
     948:	0b002403 	bleq	995c <__bss_end__+0x3c4>
     94c:	030b3e0b 	movweq	r3, #48651	; 0xbe0b
     950:	0400000e 	streq	r0, [r0], #-14
     954:	193f012e 	ldmdbne	pc!, {r1, r2, r3, r5, r8}	; <UNPREDICTABLE>
     958:	0b3a0e03 	bleq	e8416c <__bss_end__+0xe7abd4>
     95c:	0b390b3b 	bleq	e43650 <__bss_end__+0xe3a0b8>
     960:	06120111 			; <UNDEFINED> instruction: 0x06120111
     964:	42971840 	addsmi	r1, r7, #64, 16	; 0x400000
     968:	00130119 	andseq	r0, r3, r9, lsl r1
     96c:	00340500 	eorseq	r0, r4, r0, lsl #10
     970:	0b3a0e03 	bleq	e84184 <__bss_end__+0xe7abec>
     974:	0b390b3b 	bleq	e43668 <__bss_end__+0xe3a0d0>
     978:	193f1349 	ldmdbne	pc!, {r0, r3, r6, r8, r9, ip}	; <UNPREDICTABLE>
     97c:	0000193c 	andeq	r1, r0, ip, lsr r9
     980:	3f002e06 	svccc	0x00002e06
     984:	3a0e0319 	bcc	3815f0 <__bss_end__+0x378058>
     988:	390b3b0b 	stmdbcc	fp, {r0, r1, r3, r8, r9, fp, ip, sp}
     98c:	3c19270b 	ldccc	7, cr2, [r9], {11}
     990:	07000019 	smladeq	r0, r9, r0, r0
     994:	08030034 	stmdaeq	r3, {r2, r4, r5}
     998:	0b3b0b3a 	bleq	ec3688 <__bss_end__+0xeba0f0>
     99c:	13490b39 	movtne	r0, #39737	; 0x9b39
     9a0:	42b71702 	adcsmi	r1, r7, #524288	; 0x80000
     9a4:	08000017 	stmdaeq	r0, {r0, r1, r2, r4}
     9a8:	0e030034 	mcreq	0, 0, r0, cr3, cr4, {1}
     9ac:	0b3b0b3a 	bleq	ec369c <__bss_end__+0xeba104>
     9b0:	13490b39 	movtne	r0, #39737	; 0x9b39
     9b4:	0b090000 	bleq	2409bc <__bss_end__+0x237424>
     9b8:	12011101 	andne	r1, r1, #1073741824	; 0x40000000
     9bc:	00130106 	andseq	r0, r3, r6, lsl #2
     9c0:	00340a00 	eorseq	r0, r4, r0, lsl #20
     9c4:	0b3a0803 	bleq	e829d8 <__bss_end__+0xe79440>
     9c8:	0b390b3b 	bleq	e436bc <__bss_end__+0xe3a124>
     9cc:	0b1c1349 	bleq	7056f8 <__bss_end__+0x6fc160>
     9d0:	890b0000 	stmdbhi	fp, {}	; <UNPREDICTABLE>
     9d4:	11000182 	smlabbne	r0, r2, r1, r0
     9d8:	00133101 	andseq	r3, r3, r1, lsl #2
     9dc:	000f0c00 	andeq	r0, pc, r0, lsl #24
     9e0:	13490b0b 	movtne	r0, #39691	; 0x9b0b
     9e4:	2e0d0000 	cdpcs	0, 0, cr0, cr13, cr0, {0}
     9e8:	3c193f00 	ldccc	15, cr3, [r9], {-0}
     9ec:	030e6e19 	movweq	r6, #60953	; 0xee19
     9f0:	3b0b3a0e 	blcc	2cf230 <__bss_end__+0x2c5c98>
     9f4:	000b3905 	andeq	r3, fp, r5, lsl #18
     9f8:	002e0e00 	eoreq	r0, lr, r0, lsl #28
     9fc:	193c193f 	ldmdbne	ip!, {r0, r1, r2, r3, r4, r5, r8, fp, ip}
     a00:	0e030e6e 	cdpeq	14, 0, cr0, cr3, cr14, {3}
     a04:	0b3b0b3a 	bleq	ec36f4 <__bss_end__+0xeba15c>
     a08:	00000b39 	andeq	r0, r0, r9, lsr fp
     a0c:	01110100 	tsteq	r1, r0, lsl #2
     a10:	0b130e25 	bleq	4c42ac <__bss_end__+0x4bad14>
     a14:	0e1b0e03 	cdpeq	14, 1, cr0, cr11, cr3, {0}
     a18:	01111755 	tsteq	r1, r5, asr r7
     a1c:	00001710 	andeq	r1, r0, r0, lsl r7
     a20:	0b002402 	bleq	9a30 <__bss_end__+0x498>
     a24:	030b3e0b 	movweq	r3, #48651	; 0xbe0b
     a28:	03000008 	movweq	r0, #8
     a2c:	0b0b0024 	bleq	2c0ac4 <__bss_end__+0x2b752c>
     a30:	0e030b3e 	vmoveq.16	d3[0], r0
     a34:	2e040000 	cdpcs	0, 0, cr0, cr4, cr0, {0}
     a38:	03193f01 	tsteq	r9, #1, 30
     a3c:	3b0b3a0e 	blcc	2cf27c <__bss_end__+0x2c5ce4>
     a40:	270b390b 	strcs	r3, [fp, -fp, lsl #18]
     a44:	12011119 	andne	r1, r1, #1073741830	; 0x40000006
     a48:	97184006 	ldrls	r4, [r8, -r6]
     a4c:	13011942 	movwne	r1, #6466	; 0x1942
     a50:	34050000 	strcc	r0, [r5], #-0
     a54:	3a080300 	bcc	20165c <__bss_end__+0x1f80c4>
     a58:	390b3b0b 	stmdbcc	fp, {r0, r1, r3, r8, r9, fp, ip, sp}
     a5c:	0213490b 	andseq	r4, r3, #180224	; 0x2c000
     a60:	1742b717 	smlaldne	fp, r2, r7, r7
     a64:	2e060000 	cdpcs	0, 0, cr0, cr6, cr0, {0}
     a68:	03193f01 	tsteq	r9, #1, 30
     a6c:	3b0b3a0e 	blcc	2cf2ac <__bss_end__+0x2c5d14>
     a70:	270b390b 	strcs	r3, [fp, -fp, lsl #18]
     a74:	12011119 	andne	r1, r1, #1073741830	; 0x40000006
     a78:	97184006 	ldrls	r4, [r8, -r6]
     a7c:	00001942 	andeq	r1, r0, r2, asr #18
     a80:	01110100 	tsteq	r1, r0, lsl #2
     a84:	0b130e25 	bleq	4c4320 <__bss_end__+0x4bad88>
     a88:	0e1b0e03 	cdpeq	14, 1, cr0, cr11, cr3, {0}
     a8c:	01111755 	tsteq	r1, r5, asr r7
     a90:	00001710 	andeq	r1, r0, r0, lsl r7
     a94:	0b002402 	bleq	9aa4 <__bss_end__+0x50c>
     a98:	030b3e0b 	movweq	r3, #48651	; 0xbe0b
     a9c:	03000008 	movweq	r0, #8
     aa0:	13490026 	movtne	r0, #36902	; 0x9026
     aa4:	24040000 	strcs	r0, [r4], #-0
     aa8:	3e0b0b00 	vmlacc.f64	d0, d11, d0
     aac:	000e030b 	andeq	r0, lr, fp, lsl #6
     ab0:	00340500 	eorseq	r0, r4, r0, lsl #10
     ab4:	0b3a0e03 	bleq	e842c8 <__bss_end__+0xe7ad30>
     ab8:	0b390b3b 	bleq	e437ac <__bss_end__+0xe3a214>
     abc:	00001349 	andeq	r1, r0, r9, asr #6
     ac0:	3f012e06 	svccc	0x00012e06
     ac4:	3a0e0319 	bcc	381730 <__bss_end__+0x378198>
     ac8:	390b3b0b 	stmdbcc	fp, {r0, r1, r3, r8, r9, fp, ip, sp}
     acc:	8719270b 	ldrhi	r2, [r9, -fp, lsl #14]
     ad0:	01111901 	tsteq	r1, r1, lsl #18
     ad4:	18400612 	stmdane	r0, {r1, r4, r9, sl}^
     ad8:	01194297 			; <UNDEFINED> instruction: 0x01194297
     adc:	07000013 	smladeq	r0, r3, r0, r0
     ae0:	0e030034 	mcreq	0, 0, r0, cr3, cr4, {1}
     ae4:	0b3b0b3a 	bleq	ec37d4 <__bss_end__+0xeba23c>
     ae8:	13490b39 	movtne	r0, #39737	; 0x9b39
     aec:	42b71702 	adcsmi	r1, r7, #524288	; 0x80000
     af0:	08000017 	stmdaeq	r0, {r0, r1, r2, r4}
     af4:	00018289 	andeq	r8, r1, r9, lsl #5
     af8:	13310111 	teqne	r1, #1073741828	; 0x40000004
     afc:	89090000 	stmdbhi	r9, {}	; <UNPREDICTABLE>
     b00:	11010182 	smlabbne	r1, r2, r1, r0
     b04:	01133101 	tsteq	r3, r1, lsl #2
     b08:	0a000013 	beq	b5c <__code_start__-0x74a4>
     b0c:	0001828a 	andeq	r8, r1, sl, lsl #5
     b10:	42911802 	addsmi	r1, r1, #131072	; 0x20000
     b14:	0b000018 	bleq	b7c <__code_start__-0x7484>
     b18:	193f012e 	ldmdbne	pc!, {r1, r2, r3, r5, r8}	; <UNPREDICTABLE>
     b1c:	0b3a0e03 	bleq	e84330 <__bss_end__+0xe7ad98>
     b20:	0b390b3b 	bleq	e43814 <__bss_end__+0xe3a27c>
     b24:	01111927 	tsteq	r1, r7, lsr #18
     b28:	18400612 	stmdane	r0, {r1, r4, r9, sl}^
     b2c:	01194297 			; <UNDEFINED> instruction: 0x01194297
     b30:	0c000013 	stceq	0, cr0, [r0], {19}
     b34:	193f012e 	ldmdbne	pc!, {r1, r2, r3, r5, r8}	; <UNPREDICTABLE>
     b38:	0b3a0e03 	bleq	e8434c <__bss_end__+0xe7adb4>
     b3c:	0b390b3b 	bleq	e43830 <__bss_end__+0xe3a298>
     b40:	13491927 	movtne	r1, #39207	; 0x9927
     b44:	06120111 			; <UNDEFINED> instruction: 0x06120111
     b48:	42971840 	addsmi	r1, r7, #64, 16	; 0x400000
     b4c:	00130119 	andseq	r0, r3, r9, lsl r1
     b50:	002e0d00 	eoreq	r0, lr, r0, lsl #26
     b54:	193c193f 	ldmdbne	ip!, {r0, r1, r2, r3, r4, r5, r8, fp, ip}
     b58:	0e030e6e 	cdpeq	14, 0, cr0, cr3, cr14, {3}
     b5c:	053b0b3a 	ldreq	r0, [fp, #-2874]!	; 0xfffff4c6
     b60:	00000b39 	andeq	r0, r0, r9, lsr fp
     b64:	3f002e0e 	svccc	0x00002e0e
     b68:	6e193c19 	mrcvs	12, 0, r3, cr9, cr9, {0}
     b6c:	3a0e030e 	bcc	3817ac <__bss_end__+0x378214>
     b70:	390b3b0b 	stmdbcc	fp, {r0, r1, r3, r8, r9, fp, ip, sp}
     b74:	0000000b 	andeq	r0, r0, fp
     b78:	25011101 	strcs	r1, [r1, #-257]	; 0xfffffeff
     b7c:	030b130e 	movweq	r1, #45838	; 0xb30e
     b80:	110e1b0e 	tstne	lr, lr, lsl #22
     b84:	10061201 	andne	r1, r6, r1, lsl #4
     b88:	02000017 	andeq	r0, r0, #23
     b8c:	0b0b0024 	bleq	2c0c24 <__bss_end__+0x2b768c>
     b90:	08030b3e 	stmdaeq	r3, {r1, r2, r3, r4, r5, r8, r9, fp}
     b94:	24030000 	strcs	r0, [r3], #-0
     b98:	3e0b0b00 	vmlacc.f64	d0, d11, d0
     b9c:	000e030b 	andeq	r0, lr, fp, lsl #6
     ba0:	002e0400 	eoreq	r0, lr, r0, lsl #8
     ba4:	0e03193f 			; <UNDEFINED> instruction: 0x0e03193f
     ba8:	0b3b0b3a 	bleq	ec3898 <__bss_end__+0xeba300>
     bac:	19270b39 	stmdbne	r7!, {r0, r3, r4, r5, r8, r9, fp}
     bb0:	06120111 			; <UNDEFINED> instruction: 0x06120111
     bb4:	42971840 	addsmi	r1, r7, #64, 16	; 0x400000
     bb8:	00000019 	andeq	r0, r0, r9, lsl r0
     bbc:	25011101 	strcs	r1, [r1, #-257]	; 0xfffffeff
     bc0:	030b130e 	movweq	r1, #45838	; 0xb30e
     bc4:	110e1b0e 	tstne	lr, lr, lsl #22
     bc8:	10061201 	andne	r1, r6, r1, lsl #4
     bcc:	02000017 	andeq	r0, r0, #23
     bd0:	0b0b0024 	bleq	2c0c68 <__bss_end__+0x2b76d0>
     bd4:	08030b3e 	stmdaeq	r3, {r1, r2, r3, r4, r5, r8, r9, fp}
     bd8:	24030000 	strcs	r0, [r3], #-0
     bdc:	3e0b0b00 	vmlacc.f64	d0, d11, d0
     be0:	000e030b 	andeq	r0, lr, fp, lsl #6
     be4:	002e0400 	eoreq	r0, lr, r0, lsl #8
     be8:	0e03193f 			; <UNDEFINED> instruction: 0x0e03193f
     bec:	0b3b0b3a 	bleq	ec38dc <__bss_end__+0xeba344>
     bf0:	19270b39 	stmdbne	r7!, {r0, r3, r4, r5, r8, r9, fp}
     bf4:	06120111 			; <UNDEFINED> instruction: 0x06120111
     bf8:	42971840 	addsmi	r1, r7, #64, 16	; 0x400000
     bfc:	00000019 	andeq	r0, r0, r9, lsl r0
     c00:	25011101 	strcs	r1, [r1, #-257]	; 0xfffffeff
     c04:	030b130e 	movweq	r1, #45838	; 0xb30e
     c08:	110e1b0e 	tstne	lr, lr, lsl #22
     c0c:	10061201 	andne	r1, r6, r1, lsl #4
     c10:	02000017 	andeq	r0, r0, #23
     c14:	0b0b0024 	bleq	2c0cac <__bss_end__+0x2b7714>
     c18:	08030b3e 	stmdaeq	r3, {r1, r2, r3, r4, r5, r8, r9, fp}
     c1c:	24030000 	strcs	r0, [r3], #-0
     c20:	3e0b0b00 	vmlacc.f64	d0, d11, d0
     c24:	000e030b 	andeq	r0, lr, fp, lsl #6
     c28:	012e0400 			; <UNDEFINED> instruction: 0x012e0400
     c2c:	0e03193f 			; <UNDEFINED> instruction: 0x0e03193f
     c30:	0b3b0b3a 	bleq	ec3920 <__bss_end__+0xeba388>
     c34:	19270b39 	stmdbne	r7!, {r0, r3, r4, r5, r8, r9, fp}
     c38:	06120111 			; <UNDEFINED> instruction: 0x06120111
     c3c:	42971840 	addsmi	r1, r7, #64, 16	; 0x400000
     c40:	00130119 	andseq	r0, r3, r9, lsl r1
     c44:	00050500 	andeq	r0, r5, r0, lsl #10
     c48:	0b3a0803 	bleq	e82c5c <__bss_end__+0xe796c4>
     c4c:	0b390b3b 	bleq	e43940 <__bss_end__+0xe3a3a8>
     c50:	17021349 	strne	r1, [r2, -r9, asr #6]
     c54:	001742b7 			; <UNDEFINED> instruction: 0x001742b7
     c58:	82890600 	addhi	r0, r9, #0, 12
     c5c:	01110101 	tsteq	r1, r1, lsl #2
     c60:	00001331 	andeq	r1, r0, r1, lsr r3
     c64:	01828a07 	orreq	r8, r2, r7, lsl #20
     c68:	91180200 	tstls	r8, r0, lsl #4
     c6c:	00001842 	andeq	r1, r0, r2, asr #16
     c70:	03003408 	movweq	r3, #1032	; 0x408
     c74:	3b0b3a08 	blcc	2cf49c <__bss_end__+0x2c5f04>
     c78:	490b390b 	stmdbmi	fp, {r0, r1, r3, r8, fp, ip, sp}
     c7c:	b7170213 			; <UNDEFINED> instruction: 0xb7170213
     c80:	00001742 	andeq	r1, r0, r2, asr #14
     c84:	11010b09 	tstne	r1, r9, lsl #22
     c88:	01061201 	tsteq	r6, r1, lsl #4
     c8c:	0a000013 	beq	ce0 <__code_start__-0x7320>
     c90:	00018289 	andeq	r8, r1, r9, lsl #5
     c94:	13310111 	teqne	r1, #1073741828	; 0x40000004
     c98:	2e0b0000 	cdpcs	0, 0, cr0, cr11, cr0, {0}
     c9c:	03193f01 	tsteq	r9, #1, 30
     ca0:	3b0b3a0e 	blcc	2cf4e0 <__bss_end__+0x2c5f48>
     ca4:	270b390b 	strcs	r3, [fp, -fp, lsl #18]
     ca8:	11134919 	tstne	r3, r9, lsl r9
     cac:	40061201 	andmi	r1, r6, r1, lsl #4
     cb0:	19429718 	stmdbne	r2, {r3, r4, r8, r9, sl, ip, pc}^
     cb4:	00001301 	andeq	r1, r0, r1, lsl #6
     cb8:	3f002e0c 	svccc	0x00002e0c
     cbc:	6e193c19 	mrcvs	12, 0, r3, cr9, cr9, {0}
     cc0:	3a0e030e 	bcc	381900 <__bss_end__+0x378368>
     cc4:	390b3b0b 	stmdbcc	fp, {r0, r1, r3, r8, r9, fp, ip, sp}
     cc8:	0000000b 	andeq	r0, r0, fp
     ccc:	25011101 	strcs	r1, [r1, #-257]	; 0xfffffeff
     cd0:	030b130e 	movweq	r1, #45838	; 0xb30e
     cd4:	110e1b0e 	tstne	lr, lr, lsl #22
     cd8:	10061201 	andne	r1, r6, r1, lsl #4
     cdc:	02000017 	andeq	r0, r0, #23
     ce0:	0b0b0024 	bleq	2c0d78 <__bss_end__+0x2b77e0>
     ce4:	08030b3e 	stmdaeq	r3, {r1, r2, r3, r4, r5, r8, r9, fp}
     ce8:	24030000 	strcs	r0, [r3], #-0
     cec:	3e0b0b00 	vmlacc.f64	d0, d11, d0
     cf0:	000e030b 	andeq	r0, lr, fp, lsl #6
     cf4:	00350400 	eorseq	r0, r5, r0, lsl #8
     cf8:	00001349 	andeq	r1, r0, r9, asr #6
     cfc:	03001605 	movweq	r1, #1541	; 0x605
     d00:	3b0b3a0e 	blcc	2cf540 <__bss_end__+0x2c5fa8>
     d04:	490b390b 	stmdbmi	fp, {r0, r1, r3, r8, fp, ip, sp}
     d08:	06000013 			; <UNDEFINED> instruction: 0x06000013
     d0c:	0b3e0104 	bleq	f81124 <__bss_end__+0xf77b8c>
     d10:	13490b0b 	movtne	r0, #39691	; 0x9b0b
     d14:	0b3b0b3a 	bleq	ec3a04 <__bss_end__+0xeba46c>
     d18:	13010b39 	movwne	r0, #6969	; 0x1b39
     d1c:	28070000 	stmdacs	r7, {}	; <UNPREDICTABLE>
     d20:	1c0e0300 	stcne	3, cr0, [lr], {-0}
     d24:	0800000b 	stmdaeq	r0, {r0, r1, r3}
     d28:	0e030113 	mcreq	1, 0, r0, cr3, cr3, {0}
     d2c:	0b3a0b0b 	bleq	e83960 <__bss_end__+0xe7a3c8>
     d30:	0b390b3b 	bleq	e43a24 <__bss_end__+0xe3a48c>
     d34:	00001301 	andeq	r1, r0, r1, lsl #6
     d38:	03000d09 	movweq	r0, #3337	; 0xd09
     d3c:	3b0b3a08 	blcc	2cf564 <__bss_end__+0x2c5fcc>
     d40:	490b390b 	stmdbmi	fp, {r0, r1, r3, r8, fp, ip, sp}
     d44:	000b3813 	andeq	r3, fp, r3, lsl r8
     d48:	000d0a00 	andeq	r0, sp, r0, lsl #20
     d4c:	0b3a0e03 	bleq	e84560 <__bss_end__+0xe7afc8>
     d50:	0b390b3b 	bleq	e43a44 <__bss_end__+0xe3a4ac>
     d54:	0b381349 	bleq	e05a80 <__bss_end__+0xdfc4e8>
     d58:	340b0000 	strcc	r0, [fp], #-0
     d5c:	3a0e0300 	bcc	381964 <__bss_end__+0x3783cc>
     d60:	390b3b0b 	stmdbcc	fp, {r0, r1, r3, r8, r9, fp, ip, sp}
     d64:	1c13490b 			; <UNDEFINED> instruction: 0x1c13490b
     d68:	0c000006 	stceq	0, cr0, [r0], {6}
     d6c:	0b0b000f 	bleq	2c0db0 <__bss_end__+0x2b7818>
     d70:	00001349 	andeq	r1, r0, r9, asr #6
     d74:	4900260d 	stmdbmi	r0, {r0, r2, r3, r9, sl, sp}
     d78:	0e000013 	mcreq	0, 0, r0, cr0, cr3, {0}
     d7c:	193f012e 	ldmdbne	pc!, {r1, r2, r3, r5, r8}	; <UNPREDICTABLE>
     d80:	0b3a0e03 	bleq	e84594 <__bss_end__+0xe7affc>
     d84:	0b390b3b 	bleq	e43a78 <__bss_end__+0xe3a4e0>
     d88:	01111927 	tsteq	r1, r7, lsr #18
     d8c:	18400612 	stmdane	r0, {r1, r4, r9, sl}^
     d90:	01194297 			; <UNDEFINED> instruction: 0x01194297
     d94:	0f000013 	svceq	0x00000013
     d98:	00018289 	andeq	r8, r1, r9, lsl #5
     d9c:	13310111 	teqne	r1, #1073741828	; 0x40000004
     da0:	2e100000 	cdpcs	0, 1, cr0, cr0, cr0, {0}
     da4:	03193f01 	tsteq	r9, #1, 30
     da8:	3b0b3a0e 	blcc	2cf5e8 <__bss_end__+0x2c6050>
     dac:	270b390b 	strcs	r3, [fp, -fp, lsl #18]
     db0:	11134919 	tstne	r3, r9, lsl r9
     db4:	40061201 	andmi	r1, r6, r1, lsl #4
     db8:	19429718 	stmdbne	r2, {r3, r4, r8, r9, sl, ip, pc}^
     dbc:	00001301 	andeq	r1, r0, r1, lsl #6
     dc0:	01828911 	orreq	r8, r2, r1, lsl r9
     dc4:	31011101 	tstcc	r1, r1, lsl #2
     dc8:	12000013 	andne	r0, r0, #19
     dcc:	0001828a 	andeq	r8, r1, sl, lsl #5
     dd0:	42911802 	addsmi	r1, r1, #131072	; 0x20000
     dd4:	13000018 	movwne	r0, #24
     dd8:	08030005 	stmdaeq	r3, {r0, r2}
     ddc:	0b3b0b3a 	bleq	ec3acc <__bss_end__+0xeba534>
     de0:	13490b39 	movtne	r0, #39737	; 0x9b39
     de4:	42b71702 	adcsmi	r1, r7, #524288	; 0x80000
     de8:	14000017 	strne	r0, [r0], #-23	; 0xffffffe9
     dec:	01018289 	smlabbeq	r1, r9, r2, r8
     df0:	13310111 	teqne	r1, #1073741828	; 0x40000004
     df4:	00001301 	andeq	r1, r0, r1, lsl #6
     df8:	03003415 	movweq	r3, #1045	; 0x415
     dfc:	3b0b3a08 	blcc	2cf624 <__bss_end__+0x2c608c>
     e00:	490b390b 	stmdbmi	fp, {r0, r1, r3, r8, fp, ip, sp}
     e04:	b7170213 			; <UNDEFINED> instruction: 0xb7170213
     e08:	00001742 	andeq	r1, r0, r2, asr #14
     e0c:	03003416 	movweq	r3, #1046	; 0x416
     e10:	3b0b3a0e 	blcc	2cf650 <__bss_end__+0x2c60b8>
     e14:	490b390b 	stmdbmi	fp, {r0, r1, r3, r8, fp, ip, sp}
     e18:	00051c13 	andeq	r1, r5, r3, lsl ip
     e1c:	012e1700 			; <UNDEFINED> instruction: 0x012e1700
     e20:	0b3a0e03 	bleq	e84634 <__bss_end__+0xe7b09c>
     e24:	0b390b3b 	bleq	e43b18 <__bss_end__+0xe3a580>
     e28:	01111927 	tsteq	r1, r7, lsr #18
     e2c:	18400612 	stmdane	r0, {r1, r4, r9, sl}^
     e30:	01194297 			; <UNDEFINED> instruction: 0x01194297
     e34:	18000013 	stmdane	r0, {r0, r1, r4}
     e38:	0e030005 	cdpeq	0, 0, cr0, cr3, cr5, {0}
     e3c:	0b3b0b3a 	bleq	ec3b2c <__bss_end__+0xeba594>
     e40:	13490b39 	movtne	r0, #39737	; 0x9b39
     e44:	42b71702 	adcsmi	r1, r7, #524288	; 0x80000
     e48:	19000017 	stmdbne	r0, {r0, r1, r2, r4}
     e4c:	00000035 	andeq	r0, r0, r5, lsr r0
     e50:	3f002e1a 	svccc	0x00002e1a
     e54:	6e193c19 	mrcvs	12, 0, r3, cr9, cr9, {0}
     e58:	3a0e030e 	bcc	381a98 <__bss_end__+0x378500>
     e5c:	390b3b0b 	stmdbcc	fp, {r0, r1, r3, r8, r9, fp, ip, sp}
     e60:	0000000b 	andeq	r0, r0, fp
     e64:	25011101 	strcs	r1, [r1, #-257]	; 0xfffffeff
     e68:	030b130e 	movweq	r1, #45838	; 0xb30e
     e6c:	110e1b0e 	tstne	lr, lr, lsl #22
     e70:	10061201 	andne	r1, r6, r1, lsl #4
     e74:	02000017 	andeq	r0, r0, #23
     e78:	0b0b0024 	bleq	2c0f10 <__bss_end__+0x2b7978>
     e7c:	08030b3e 	stmdaeq	r3, {r1, r2, r3, r4, r5, r8, r9, fp}
     e80:	24030000 	strcs	r0, [r3], #-0
     e84:	3e0b0b00 	vmlacc.f64	d0, d11, d0
     e88:	000e030b 	andeq	r0, lr, fp, lsl #6
     e8c:	000f0400 	andeq	r0, pc, r0, lsl #8
     e90:	13490b0b 	movtne	r0, #39691	; 0x9b0b
     e94:	26050000 	strcs	r0, [r5], -r0
     e98:	00134900 	andseq	r4, r3, r0, lsl #18
     e9c:	012e0600 			; <UNDEFINED> instruction: 0x012e0600
     ea0:	0e03193f 			; <UNDEFINED> instruction: 0x0e03193f
     ea4:	0b3b0b3a 	bleq	ec3b94 <__bss_end__+0xeba5fc>
     ea8:	19270b39 	stmdbne	r7!, {r0, r3, r4, r5, r8, r9, fp}
     eac:	01111349 	tsteq	r1, r9, asr #6
     eb0:	18400612 	stmdane	r0, {r1, r4, r9, sl}^
     eb4:	01194297 			; <UNDEFINED> instruction: 0x01194297
     eb8:	07000013 	smladeq	r0, r3, r0, r0
     ebc:	08030005 	stmdaeq	r3, {r0, r2}
     ec0:	0b3b0b3a 	bleq	ec3bb0 <__bss_end__+0xeba618>
     ec4:	13490b39 	movtne	r0, #39737	; 0x9b39
     ec8:	00001802 	andeq	r1, r0, r2, lsl #16
     ecc:	03000508 	movweq	r0, #1288	; 0x508
     ed0:	3b0b3a08 	blcc	2cf6f8 <__bss_end__+0x2c6160>
     ed4:	490b390b 	stmdbmi	fp, {r0, r1, r3, r8, fp, ip, sp}
     ed8:	b7170213 			; <UNDEFINED> instruction: 0xb7170213
     edc:	00001742 	andeq	r1, r0, r2, asr #14
     ee0:	03003409 	movweq	r3, #1033	; 0x409
     ee4:	3b0b3a08 	blcc	2cf70c <__bss_end__+0x2c6174>
     ee8:	490b390b 	stmdbmi	fp, {r0, r1, r3, r8, fp, ip, sp}
     eec:	b7170213 			; <UNDEFINED> instruction: 0xb7170213
     ef0:	00001742 	andeq	r1, r0, r2, asr #14
     ef4:	01110100 	tsteq	r1, r0, lsl #2
     ef8:	0b130e25 	bleq	4c4794 <__bss_end__+0x4bb1fc>
     efc:	0e1b0e03 	cdpeq	14, 1, cr0, cr11, cr3, {0}
     f00:	06120111 			; <UNDEFINED> instruction: 0x06120111
     f04:	00001710 	andeq	r1, r0, r0, lsl r7
     f08:	0b002402 	bleq	9f18 <__bss_end__+0x980>
     f0c:	030b3e0b 	movweq	r3, #48651	; 0xbe0b
     f10:	03000008 	movweq	r0, #8
     f14:	0b0b0024 	bleq	2c0fac <__bss_end__+0x2b7a14>
     f18:	0e030b3e 	vmoveq.16	d3[0], r0
     f1c:	0f040000 	svceq	0x00040000
     f20:	490b0b00 	stmdbmi	fp, {r8, r9, fp}
     f24:	05000013 	streq	r0, [r0, #-19]	; 0xffffffed
     f28:	13490026 	movtne	r0, #36902	; 0x9026
     f2c:	2e060000 	cdpcs	0, 0, cr0, cr6, cr0, {0}
     f30:	03193f01 	tsteq	r9, #1, 30
     f34:	3b0b3a0e 	blcc	2cf774 <__bss_end__+0x2c61dc>
     f38:	270b390b 	strcs	r3, [fp, -fp, lsl #18]
     f3c:	11134919 	tstne	r3, r9, lsl r9
     f40:	40061201 	andmi	r1, r6, r1, lsl #4
     f44:	19429718 	stmdbne	r2, {r3, r4, r8, r9, sl, ip, pc}^
     f48:	00001301 	andeq	r1, r0, r1, lsl #6
     f4c:	03000507 	movweq	r0, #1287	; 0x507
     f50:	3b0b3a0e 	blcc	2cf790 <__bss_end__+0x2c61f8>
     f54:	490b390b 	stmdbmi	fp, {r0, r1, r3, r8, fp, ip, sp}
     f58:	00180213 	andseq	r0, r8, r3, lsl r2
     f5c:	00050800 	andeq	r0, r5, r0, lsl #16
     f60:	0b3a0803 	bleq	e82f74 <__bss_end__+0xe799dc>
     f64:	0b390b3b 	bleq	e43c58 <__bss_end__+0xe3a6c0>
     f68:	17021349 	strne	r1, [r2, -r9, asr #6]
     f6c:	001742b7 			; <UNDEFINED> instruction: 0x001742b7
     f70:	00340900 	eorseq	r0, r4, r0, lsl #18
     f74:	0b3a0803 	bleq	e82f88 <__bss_end__+0xe799f0>
     f78:	0b390b3b 	bleq	e43c6c <__bss_end__+0xe3a6d4>
     f7c:	17021349 	strne	r1, [r2, -r9, asr #6]
     f80:	001742b7 			; <UNDEFINED> instruction: 0x001742b7
     f84:	11010000 	mrsne	r0, (UNDEF: 1)
     f88:	130e2501 	movwne	r2, #58625	; 0xe501
     f8c:	1b0e030b 	blne	381bc0 <__bss_end__+0x378628>
     f90:	1201110e 	andne	r1, r1, #-2147483645	; 0x80000003
     f94:	00171006 	andseq	r1, r7, r6
     f98:	00240200 	eoreq	r0, r4, r0, lsl #4
     f9c:	0b3e0b0b 	bleq	f83bd0 <__bss_end__+0xf7a638>
     fa0:	00000803 	andeq	r0, r0, r3, lsl #16
     fa4:	0b002403 	bleq	9fb8 <__bss_end__+0xa20>
     fa8:	030b3e0b 	movweq	r3, #48651	; 0xbe0b
     fac:	0400000e 	streq	r0, [r0], #-14
     fb0:	0b0b000f 	bleq	2c0ff4 <__bss_end__+0x2b7a5c>
     fb4:	00001349 	andeq	r1, r0, r9, asr #6
     fb8:	49002605 	stmdbmi	r0, {r0, r2, r9, sl, sp}
     fbc:	06000013 			; <UNDEFINED> instruction: 0x06000013
     fc0:	193f012e 	ldmdbne	pc!, {r1, r2, r3, r5, r8}	; <UNPREDICTABLE>
     fc4:	0b3a0e03 	bleq	e847d8 <__bss_end__+0xe7b240>
     fc8:	0b390b3b 	bleq	e43cbc <__bss_end__+0xe3a724>
     fcc:	13491927 	movtne	r1, #39207	; 0x9927
     fd0:	06120111 			; <UNDEFINED> instruction: 0x06120111
     fd4:	42971840 	addsmi	r1, r7, #64, 16	; 0x400000
     fd8:	07000019 	smladeq	r0, r9, r0, r0
     fdc:	08030005 	stmdaeq	r3, {r0, r2}
     fe0:	0b3b0b3a 	bleq	ec3cd0 <__bss_end__+0xeba738>
     fe4:	13490b39 	movtne	r0, #39737	; 0x9b39
     fe8:	42b71702 	adcsmi	r1, r7, #524288	; 0x80000
     fec:	00000017 	andeq	r0, r0, r7, lsl r0
     ff0:	25011101 	strcs	r1, [r1, #-257]	; 0xfffffeff
     ff4:	030b130e 	movweq	r1, #45838	; 0xb30e
     ff8:	550e1b0e 	strpl	r1, [lr, #-2830]	; 0xfffff4f2
     ffc:	10011117 	andne	r1, r1, r7, lsl r1
    1000:	02000017 	andeq	r0, r0, #23
    1004:	0b0b0024 	bleq	2c109c <__bss_end__+0x2b7b04>
    1008:	08030b3e 	stmdaeq	r3, {r1, r2, r3, r4, r5, r8, r9, fp}
    100c:	16030000 	strne	r0, [r3], -r0
    1010:	3a0e0300 	bcc	381c18 <__bss_end__+0x378680>
    1014:	390b3b0b 	stmdbcc	fp, {r0, r1, r3, r8, r9, fp, ip, sp}
    1018:	0013490b 	andseq	r4, r3, fp, lsl #18
    101c:	00240400 	eoreq	r0, r4, r0, lsl #8
    1020:	0b3e0b0b 	bleq	f83c54 <__bss_end__+0xf7a6bc>
    1024:	00000e03 	andeq	r0, r0, r3, lsl #28
    1028:	49002605 	stmdbmi	r0, {r0, r2, r9, sl, sp}
    102c:	06000013 			; <UNDEFINED> instruction: 0x06000013
    1030:	0b0b000f 	bleq	2c1074 <__bss_end__+0x2b7adc>
    1034:	00001349 	andeq	r1, r0, r9, asr #6
    1038:	3f012e07 	svccc	0x00012e07
    103c:	3a0e0319 	bcc	381ca8 <__bss_end__+0x378710>
    1040:	390b3b0b 	stmdbcc	fp, {r0, r1, r3, r8, r9, fp, ip, sp}
    1044:	4919270b 	ldmdbmi	r9, {r0, r1, r3, r8, r9, sl, sp}
    1048:	12011113 	andne	r1, r1, #-1073741820	; 0xc0000004
    104c:	97184006 	ldrls	r4, [r8, -r6]
    1050:	13011942 	movwne	r1, #6466	; 0x1942
    1054:	05080000 	streq	r0, [r8, #-0]
    1058:	3a080300 	bcc	201c60 <__bss_end__+0x1f86c8>
    105c:	390b3b0b 	stmdbcc	fp, {r0, r1, r3, r8, r9, fp, ip, sp}
    1060:	0213490b 	andseq	r4, r3, #180224	; 0x2c000
    1064:	1742b717 	smlaldne	fp, r2, r7, r7
    1068:	34090000 	strcc	r0, [r9], #-0
    106c:	3a080300 	bcc	201c74 <__bss_end__+0x1f86dc>
    1070:	390b3b0b 	stmdbcc	fp, {r0, r1, r3, r8, r9, fp, ip, sp}
    1074:	0213490b 	andseq	r4, r3, #180224	; 0x2c000
    1078:	1742b717 	smlaldne	fp, r2, r7, r7
    107c:	Address 0x000000000000107c is out of bounds.


Disassembly of section .debug_loc:

00000000 <.debug_loc>:
       0:	00000004 	andeq	r0, r0, r4
       4:	00000100 	andeq	r0, r0, r0, lsl #2
       8:	00000108 	andeq	r0, r0, r8, lsl #2
       c:	9f300002 	svcls	0x00300002
      10:	00000108 	andeq	r0, r0, r8, lsl #2
      14:	000001b8 			; <UNDEFINED> instruction: 0x000001b8
      18:	00580001 	subseq	r0, r8, r1
	...
      24:	08000000 	stmdaeq	r0, {}	; <UNPREDICTABLE>
      28:	7c000001 	stcvc	0, cr0, [r0], {1}
      2c:	01000001 	tsteq	r0, r1
      30:	019c5700 	orrseq	r5, ip, r0, lsl #14
      34:	01ac0000 			; <UNDEFINED> instruction: 0x01ac0000
      38:	00010000 	andeq	r0, r1, r0
      3c:	00000050 	andeq	r0, r0, r0, asr r0
      40:	00000000 	andeq	r0, r0, r0
      44:	01020000 	mrseq	r0, (UNDEF: 2)
      48:	00010800 	andeq	r0, r1, r0, lsl #16
      4c:	00017800 	andeq	r7, r1, r0, lsl #16
      50:	0a000400 	beq	1058 <__code_start__-0x6fa8>
      54:	9c9f1770 	ldcls	7, cr1, [pc], {112}	; 0x70
      58:	ac000001 	stcge	0, cr0, [r0], {1}
      5c:	04000001 	streq	r0, [r0], #-1
      60:	17700a00 	ldrbne	r0, [r0, -r0, lsl #20]!
      64:	0000009f 	muleq	r0, pc, r0	; <UNPREDICTABLE>
      68:	00000000 	andeq	r0, r0, r0
      6c:	01020000 	mrseq	r0, (UNDEF: 2)
      70:	00010800 	andeq	r0, r1, r0, lsl #16
      74:	00017800 	andeq	r7, r1, r0, lsl #16
      78:	57000100 	strpl	r0, [r0, -r0, lsl #2]
      7c:	0000019c 	muleq	r0, ip, r1
      80:	000001ac 	andeq	r0, r0, ip, lsr #3
      84:	00500001 	subseq	r0, r0, r1
	...
      90:	08000102 	stmdaeq	r0, {r1, r8}
      94:	78000001 	stmdavc	r0, {r0}
      98:	04000001 	streq	r0, [r0], #-1
      9c:	7de09100 	stfvcp	f1, [r0]
      a0:	00019c9f 	muleq	r1, pc, ip	; <UNPREDICTABLE>
      a4:	0001ac00 	andeq	sl, r1, r0, lsl #24
      a8:	91000400 	tstls	r0, r0, lsl #8
      ac:	009f7de0 	addseq	r7, pc, r0, ror #27
	...
      b8:	03000100 	movweq	r0, #256	; 0x100
      bc:	00010800 	andeq	r0, r1, r0, lsl #16
      c0:	00013400 	andeq	r3, r1, r0, lsl #8
      c4:	54000100 	strpl	r0, [r0], #-256	; 0xffffff00
      c8:	00000154 	andeq	r0, r0, r4, asr r1
      cc:	00000178 	andeq	r0, r0, r8, ror r1
      d0:	9c540001 	mrrcls	0, 0, r0, r4, cr1
      d4:	ac000001 	stcge	0, cr0, [r0], {1}
      d8:	02000001 	andeq	r0, r0, #1
      dc:	009f3000 	addseq	r3, pc, r0
	...
      e8:	08000302 	stmdaeq	r0, {r1, r8, r9}
      ec:	78000001 	stmdavc	r0, {r0}
      f0:	01000001 	tsteq	r0, r1
      f4:	019c5600 	orrseq	r5, ip, r0, lsl #12
      f8:	01ac0000 			; <UNDEFINED> instruction: 0x01ac0000
      fc:	00020000 	andeq	r0, r2, r0
     100:	00009f30 	andeq	r9, r0, r0, lsr pc
	...
     10c:	00010000 	andeq	r0, r1, r0
     110:	00040200 	andeq	r0, r4, r0, lsl #4
     114:	00000108 	andeq	r0, r0, r8, lsl #2
     118:	00000134 	andeq	r0, r0, r4, lsr r1
     11c:	34540001 	ldrbcc	r0, [r4], #-1
     120:	54000001 	strpl	r0, [r0], #-1
     124:	01000001 	tsteq	r0, r1
     128:	01545300 	cmpeq	r4, r0, lsl #6
     12c:	01780000 	cmneq	r8, r0
     130:	00010000 	andeq	r0, r1, r0
     134:	00017854 	andeq	r7, r1, r4, asr r8
     138:	00017800 	andeq	r7, r1, r0, lsl #16
     13c:	53000100 	movwpl	r0, #256	; 0x100
     140:	0000019c 	muleq	r0, ip, r1
     144:	000001ac 	andeq	r0, r0, ip, lsr #3
     148:	9f300002 	svcls	0x00300002
	...
     154:	02000000 	andeq	r0, r0, #0
     158:	02000002 	andeq	r0, r0, #2
     15c:	01080006 	tsteq	r8, r6
     160:	012b0000 			; <UNDEFINED> instruction: 0x012b0000
     164:	00010000 	andeq	r0, r1, r0
     168:	00012b51 	andeq	r2, r1, r1, asr fp
     16c:	00012c00 	andeq	r2, r1, r0, lsl #24
     170:	75000300 	strvc	r0, [r0, #-768]	; 0xfffffd00
     174:	012c9f7f 			; <UNDEFINED> instruction: 0x012c9f7f
     178:	01340000 	teqeq	r4, r0
     17c:	00010000 	andeq	r0, r1, r0
     180:	00013455 	andeq	r3, r1, r5, asr r4
     184:	00017800 	andeq	r7, r1, r0, lsl #16
     188:	51000100 	mrspl	r0, (UNDEF: 16)
     18c:	0000019c 	muleq	r0, ip, r1
     190:	000001ac 	andeq	r0, r0, ip, lsr #3
     194:	9f300002 	svcls	0x00300002
	...
     1a8:	00000108 	andeq	r0, r0, r8, lsl #2
     1ac:	0000012b 	andeq	r0, r0, fp, lsr #2
     1b0:	0071000c 	rsbseq	r0, r1, ip
     1b4:	7c912433 	cfldrsvc	mvf2, [r1], {51}	; 0x33
     1b8:	011c0a22 	tsteq	ip, r2, lsr #20
     1bc:	012b9f1c 			; <UNDEFINED> instruction: 0x012b9f1c
     1c0:	01340000 	teqeq	r4, r0
     1c4:	000c0000 	andeq	r0, ip, r0
     1c8:	24337f75 	ldrtcs	r7, [r3], #-3957	; 0xfffff08b
     1cc:	0a227c91 	beq	89f418 <__bss_end__+0x895e80>
     1d0:	9f1c011c 	svcls	0x001c011c
     1d4:	0000014c 	andeq	r0, r0, ip, asr #2
     1d8:	0000015c 	andeq	r0, r0, ip, asr r1
     1dc:	5c520001 	mrrcpl	0, 0, r0, r2, cr1
     1e0:	78000001 	stmdavc	r0, {r0}
     1e4:	0c000001 	stceq	0, cr0, [r0], {1}
     1e8:	33007100 	movwcc	r7, #256	; 0x100
     1ec:	227c9124 	rsbscs	r9, ip, #36, 2
     1f0:	1c011c0a 	stcne	12, cr1, [r1], {10}
     1f4:	0000009f 	muleq	r0, pc, r0	; <UNPREDICTABLE>
	...
     200:	08000000 	stmdaeq	r0, {}	; <UNPREDICTABLE>
     204:	2b000001 	blcs	210 <__code_start__-0x7df0>
     208:	01000001 	tsteq	r0, r1
     20c:	01505300 	cmpeq	r0, r0, lsl #6
     210:	01540000 	cmpeq	r4, r0
     214:	00010000 	andeq	r0, r1, r0
     218:	00015454 	andeq	r5, r1, r4, asr r4
     21c:	00017800 	andeq	r7, r1, r0, lsl #16
     220:	53000100 	movwpl	r0, #256	; 0x100
	...
     230:	01080000 	mrseq	r0, (UNDEF: 8)
     234:	012b0000 			; <UNDEFINED> instruction: 0x012b0000
     238:	00010000 	andeq	r0, r1, r0
     23c:	00012b5e 	andeq	r2, r1, lr, asr fp
     240:	00013400 	andeq	r3, r1, r0, lsl #8
     244:	75001600 	strvc	r1, [r0, #-1536]	; 0xfffffa00
     248:	75243200 	strvc	r3, [r4, #-512]!	; 0xfffffe00
     24c:	00752200 	rsbseq	r2, r5, r0, lsl #4
     250:	00752432 	rsbseq	r2, r5, r2, lsr r4
     254:	22243222 	eorcs	r3, r4, #536870914	; 0x20000002
     258:	24341e3f 	ldrtcs	r1, [r4], #-3647	; 0xfffff1c1
     25c:	0001689f 	muleq	r1, pc, r8	; <UNPREDICTABLE>
     260:	00017800 	andeq	r7, r1, r0, lsl #16
     264:	5e000100 	adfpls	f0, f0, f0
	...
     274:	0000010c 	andeq	r0, r0, ip, lsl #2
     278:	00000124 	andeq	r0, r0, r4, lsr #2
     27c:	24520001 	ldrbcs	r0, [r2], #-1
     280:	2b000001 	blcs	28c <__code_start__-0x7d74>
     284:	03000001 	movweq	r0, #1
     288:	7dd89100 	ldfvcp	f1, [r8]
	...
     29c:	000f0000 	andeq	r0, pc, r0
     2a0:	00010000 	andeq	r0, r1, r0
     2a4:	00000f50 	andeq	r0, r0, r0, asr pc
     2a8:	00003000 	andeq	r3, r0, r0
     2ac:	56000100 	strpl	r0, [r0], -r0, lsl #2
     2b0:	00000030 	andeq	r0, r0, r0, lsr r0
     2b4:	000000e4 	andeq	r0, r0, r4, ror #1
     2b8:	01f30004 	mvnseq	r0, r4
     2bc:	00009f50 	andeq	r9, r0, r0, asr pc
	...
     2cc:	000f0000 	andeq	r0, pc, r0
     2d0:	00010000 	andeq	r0, r1, r0
     2d4:	00000f51 	andeq	r0, r0, r1, asr pc
     2d8:	0000e400 	andeq	lr, r0, r0, lsl #8
     2dc:	55000100 	strpl	r0, [r0, #-256]	; 0xffffff00
	...
     2f0:	0000000f 	andeq	r0, r0, pc
     2f4:	0f520001 	svceq	0x00520001
     2f8:	e4000000 	str	r0, [r0], #-0
     2fc:	04000000 	streq	r0, [r0], #-0
     300:	5201f300 	andpl	pc, r1, #0, 6
     304:	0000009f 	muleq	r0, pc, r0	; <UNPREDICTABLE>
	...
     314:	00000f00 	andeq	r0, r0, r0, lsl #30
     318:	53000100 	movwpl	r0, #256	; 0x100
     31c:	0000000f 	andeq	r0, r0, pc
     320:	000000e4 	andeq	r0, r0, r4, ror #1
     324:	01f30004 	mvnseq	r0, r4
     328:	00009f53 	andeq	r9, r0, r3, asr pc
	...
     334:	0000001c 	andeq	r0, r0, ip, lsl r0
     338:	00000033 	andeq	r0, r0, r3, lsr r0
     33c:	00500001 	subseq	r0, r0, r1
	...
     348:	14000101 	strne	r0, [r0], #-257	; 0xfffffeff
     34c:	14000000 	strne	r0, [r0], #-0
     350:	01000000 	mrseq	r0, (UNDEF: 0)
     354:	00145000 	andseq	r5, r4, r0
     358:	00e40000 	rsceq	r0, r4, r0
     35c:	00010000 	andeq	r0, r1, r0
     360:	00000054 	andeq	r0, r0, r4, asr r0
     364:	00000000 	andeq	r0, r0, r0
     368:	30000100 	andcc	r0, r0, r0, lsl #2
     36c:	e4000000 	str	r0, [r0], #-0
     370:	01000000 	mrseq	r0, (UNDEF: 0)
     374:	00005600 	andeq	r5, r0, r0, lsl #12
     378:	00000000 	andeq	r0, r0, r0
     37c:	00030000 	andeq	r0, r3, r0
	...
     394:	00300000 	eorseq	r0, r0, r0
     398:	00380000 	eorseq	r0, r8, r0
     39c:	00020000 	andeq	r0, r2, r0
     3a0:	00389f30 	eorseq	r9, r8, r0, lsr pc
     3a4:	00400000 	subeq	r0, r0, r0
     3a8:	00020000 	andeq	r0, r2, r0
     3ac:	00409f31 	subeq	r9, r0, r1, lsr pc
     3b0:	00480000 	subeq	r0, r8, r0
     3b4:	00020000 	andeq	r0, r2, r0
     3b8:	00489f32 	subeq	r9, r8, r2, lsr pc
     3bc:	00500000 	subseq	r0, r0, r0
     3c0:	00020000 	andeq	r0, r2, r0
     3c4:	00509f33 	subseq	r9, r0, r3, lsr pc
     3c8:	00580000 	subseq	r0, r8, r0
     3cc:	00020000 	andeq	r0, r2, r0
     3d0:	00589f34 	subseq	r9, r8, r4, lsr pc
     3d4:	00600000 	rsbeq	r0, r0, r0
     3d8:	00020000 	andeq	r0, r2, r0
     3dc:	00609f35 	rsbeq	r9, r0, r5, lsr pc
     3e0:	00680000 	rsbeq	r0, r8, r0
     3e4:	00020000 	andeq	r0, r2, r0
     3e8:	00689f36 	rsbeq	r9, r8, r6, lsr pc
     3ec:	00700000 	rsbseq	r0, r0, r0
     3f0:	00020000 	andeq	r0, r2, r0
     3f4:	00709f37 	rsbseq	r9, r0, r7, lsr pc
     3f8:	00780000 	rsbseq	r0, r8, r0
     3fc:	00020000 	andeq	r0, r2, r0
     400:	00789f38 	rsbseq	r9, r8, r8, lsr pc
     404:	00800000 	addeq	r0, r0, r0
     408:	00020000 	andeq	r0, r2, r0
     40c:	00809f39 	addeq	r9, r0, r9, lsr pc
     410:	00880000 	addeq	r0, r8, r0
     414:	00020000 	andeq	r0, r2, r0
     418:	00889f3a 	addeq	r9, r8, sl, lsr pc
     41c:	00e40000 	rsceq	r0, r4, r0
     420:	00020000 	andeq	r0, r2, r0
     424:	00009f3b 	andeq	r9, r0, fp, lsr pc
	...
     430:	0000009c 	muleq	r0, ip, r0
     434:	000000d7 	ldrdeq	r0, [r0], -r7
     438:	005c0001 	subseq	r0, ip, r1
	...
     444:	00003000 	andeq	r3, r0, r0
     448:	0000e400 	andeq	lr, r0, r0, lsl #8
     44c:	56000100 	strpl	r0, [r0], -r0, lsl #2
	...
     458:	00000002 	andeq	r0, r0, r2
     45c:	0000009c 	muleq	r0, ip, r0
     460:	000000a4 	andeq	r0, r0, r4, lsr #1
     464:	9f300002 	svcls	0x00300002
     468:	000000a4 	andeq	r0, r0, r4, lsr #1
     46c:	000000d7 	ldrdeq	r0, [r0], -r7
     470:	00530001 	subseq	r0, r3, r1
	...
     480:	e8000000 	stmda	r0, {}	; <UNPREDICTABLE>
     484:	00000000 	andeq	r0, r0, r0
     488:	01000001 	tsteq	r0, r1
     48c:	01005000 	mrseq	r5, (UNDEF: 0)
     490:	01100000 	tsteq	r0, r0
     494:	00040000 	andeq	r0, r4, r0
     498:	9f5001f3 	svcls	0x005001f3
     49c:	00000110 	andeq	r0, r0, r0, lsl r1
     4a0:	00000114 	andeq	r0, r0, r4, lsl r1
     4a4:	14500001 	ldrbne	r0, [r0], #-1
     4a8:	1c000001 	stcne	0, cr0, [r0], {1}
     4ac:	04000001 	streq	r0, [r0], #-1
     4b0:	5001f300 	andpl	pc, r1, r0, lsl #6
     4b4:	0000009f 	muleq	r0, pc, r0	; <UNPREDICTABLE>
     4b8:	00000000 	andeq	r0, r0, r0
     4bc:	00000100 	andeq	r0, r0, r0, lsl #2
     4c0:	f4000000 	vst4.8	{d0-d3}, [r0], r0
     4c4:	00000000 	andeq	r0, r0, r0
     4c8:	0b000001 	bleq	4d4 <__code_start__-0x7b2c>
     4cc:	35007000 	strcc	r7, [r0, #-0]
     4d0:	80b42325 	adcshi	r2, r4, r5, lsr #6
     4d4:	9f028180 	svcls	0x00028180
     4d8:	00000100 	andeq	r0, r0, r0, lsl #2
     4dc:	00000103 	andeq	r0, r0, r3, lsl #2
     4e0:	03500001 	cmpeq	r0, #1
     4e4:	10000001 	andne	r0, r0, r1
     4e8:	0c000001 	stceq	0, cr0, [r0], {1}
     4ec:	5001f300 	andpl	pc, r1, r0, lsl #6
     4f0:	b4232535 	strtlt	r2, [r3], #-1333	; 0xfffffacb
     4f4:	02818080 	addeq	r8, r1, #128	; 0x80
     4f8:	0000009f 	muleq	r0, pc, r0	; <UNPREDICTABLE>
     4fc:	00000000 	andeq	r0, r0, r0
     500:	f8000000 			; <UNDEFINED> instruction: 0xf8000000
     504:	10000000 	andne	r0, r0, r0
     508:	01000001 	tsteq	r0, r1
     50c:	00005400 	andeq	r5, r0, r0, lsl #8
	...
     51c:	00cc0000 	sbceq	r0, ip, r0
     520:	00db0000 	sbcseq	r0, fp, r0
     524:	00010000 	andeq	r0, r1, r0
     528:	0000db50 	andeq	sp, r0, r0, asr fp
     52c:	0000e000 	andeq	lr, r0, r0
     530:	f3000400 	vshl.u8	d0, d0, d0
     534:	e09f5001 	adds	r5, pc, r1
     538:	e3000000 	movw	r0, #0
     53c:	01000000 	mrseq	r0, (UNDEF: 0)
     540:	00e35000 	rsceq	r5, r3, r0
     544:	00e80000 	rsceq	r0, r8, r0
     548:	00040000 	andeq	r0, r4, r0
     54c:	9f5001f3 	svcls	0x005001f3
	...
     560:	000000cc 	andeq	r0, r0, ip, asr #1
     564:	000000db 	ldrdeq	r0, [r0], -fp
     568:	db510001 	blle	1440574 <__bss_end__+0x1436fdc>
     56c:	e0000000 	and	r0, r0, r0
     570:	04000000 	streq	r0, [r0], #-0
     574:	5101f300 	mrspl	pc, SP_irq	; <UNPREDICTABLE>
     578:	0000e09f 	muleq	r0, pc, r0	; <UNPREDICTABLE>
     57c:	0000e300 	andeq	lr, r0, r0, lsl #6
     580:	51000100 	mrspl	r0, (UNDEF: 16)
     584:	000000e3 	andeq	r0, r0, r3, ror #1
     588:	000000e8 	andeq	r0, r0, r8, ror #1
     58c:	01f30004 	mvnseq	r0, r4
     590:	00009f51 	andeq	r9, r0, r1, asr pc
	...
     59c:	00bc0000 	adcseq	r0, ip, r0
     5a0:	00c70000 	sbceq	r0, r7, r0
     5a4:	00010000 	andeq	r0, r1, r0
     5a8:	0000c750 	andeq	ip, r0, r0, asr r7
     5ac:	0000cc00 	andeq	ip, r0, r0, lsl #24
     5b0:	f3000400 	vshl.u8	d0, d0, d0
     5b4:	009f5001 	addseq	r5, pc, r1
	...
     5c0:	98000000 	stmdals	r0, {}	; <UNPREDICTABLE>
     5c4:	b0000000 	andlt	r0, r0, r0
     5c8:	01000000 	mrseq	r0, (UNDEF: 0)
     5cc:	00b05000 	adcseq	r5, r0, r0
     5d0:	00bc0000 	adcseq	r0, ip, r0
     5d4:	00040000 	andeq	r0, r4, r0
     5d8:	9f5001f3 	svcls	0x005001f3
	...
     5e8:	00000074 	andeq	r0, r0, r4, ror r0
     5ec:	0000008c 	andeq	r0, r0, ip, lsl #1
     5f0:	8c500001 	mrrchi	0, 0, r0, r0, cr1	; <UNPREDICTABLE>
     5f4:	98000000 	stmdals	r0, {}	; <UNPREDICTABLE>
     5f8:	04000000 	streq	r0, [r0], #-0
     5fc:	5001f300 	andpl	pc, r1, r0, lsl #6
     600:	0000009f 	muleq	r0, pc, r0	; <UNPREDICTABLE>
	...
     60c:	00006400 	andeq	r6, r0, r0, lsl #8
     610:	00006f00 	andeq	r6, r0, r0, lsl #30
     614:	50000100 	andpl	r0, r0, r0, lsl #2
     618:	0000006f 	andeq	r0, r0, pc, rrx
     61c:	00000074 	andeq	r0, r0, r4, ror r0
     620:	01f30004 	mvnseq	r0, r4
     624:	00009f50 	andeq	r9, r0, r0, asr pc
	...
     634:	00380000 	eorseq	r0, r8, r0
     638:	00010000 	andeq	r0, r1, r0
     63c:	00003850 	andeq	r3, r0, r0, asr r8
     640:	00006400 	andeq	r6, r0, r0, lsl #8
     644:	f3000400 	vshl.u8	d0, d0, d0
     648:	009f5001 	addseq	r5, pc, r1
	...
     658:	47000000 	strmi	r0, [r0, -r0]
     65c:	01000000 	mrseq	r0, (UNDEF: 0)
     660:	00475100 	subeq	r5, r7, r0, lsl #2
     664:	00640000 	rsbeq	r0, r4, r0
     668:	00040000 	andeq	r0, r4, r0
     66c:	9f5101f3 	svcls	0x005101f3
	...
     678:	00340000 	eorseq	r0, r4, r0
     67c:	00640000 	rsbeq	r0, r4, r0
     680:	00010000 	andeq	r0, r1, r0
     684:	00000054 	andeq	r0, r0, r4, asr r0
     688:	00000000 	andeq	r0, r0, r0
     68c:	40000000 	andmi	r0, r0, r0
     690:	64000000 	strvs	r0, [r0], #-0
     694:	01000000 	mrseq	r0, (UNDEF: 0)
     698:	00005600 	andeq	r5, r0, r0, lsl #12
	...
     6a4:	00010100 	andeq	r0, r1, r0, lsl #2
     6a8:	00480000 	subeq	r0, r8, r0
     6ac:	00500000 	subseq	r0, r0, r0
     6b0:	00010000 	andeq	r0, r1, r0
     6b4:	00005050 	andeq	r5, r0, r0, asr r0
     6b8:	00005000 	andeq	r5, r0, r0
     6bc:	51000100 	mrspl	r0, (UNDEF: 16)
     6c0:	00000050 	andeq	r0, r0, r0, asr r0
     6c4:	00000054 	andeq	r0, r0, r4, asr r0
     6c8:	00750009 	rsbseq	r0, r5, r9
     6cc:	71240074 			; <UNDEFINED> instruction: 0x71240074
     6d0:	549f2100 	ldrpl	r2, [pc], #256	; 6d8 <__code_start__-0x7928>
     6d4:	5b000000 	blpl	6dc <__code_start__-0x7924>
     6d8:	01000000 	mrseq	r0, (UNDEF: 0)
     6dc:	00005100 	andeq	r5, r0, r0, lsl #2
	...
     6ec:	0000002c 	andeq	r0, r0, ip, lsr #32
     6f0:	00000038 	andeq	r0, r0, r8, lsr r0
     6f4:	38500001 	ldmdacc	r0, {r0}^
     6f8:	48000000 	stmdami	r0, {}	; <UNPREDICTABLE>
     6fc:	01000000 	mrseq	r0, (UNDEF: 0)
     700:	00485400 	subeq	r5, r8, r0, lsl #8
     704:	00580000 	subseq	r0, r8, r0
     708:	00010000 	andeq	r0, r1, r0
     70c:	00000050 	andeq	r0, r0, r0, asr r0
	...
     71c:	00000c00 	andeq	r0, r0, r0, lsl #24
     720:	50000100 	andpl	r0, r0, r0, lsl #2
     724:	0000000c 	andeq	r0, r0, ip
     728:	00000034 	andeq	r0, r0, r4, lsr r0
     72c:	00540001 	subseq	r0, r4, r1
	...
     73c:	0b000000 	bleq	744 <__code_start__-0x78bc>
     740:	01000000 	mrseq	r0, (UNDEF: 0)
     744:	000b5000 	andeq	r5, fp, r0
     748:	00140000 	andseq	r0, r4, r0
     74c:	00010000 	andeq	r0, r1, r0
     750:	00000054 	andeq	r0, r0, r4, asr r0
	...
     75c:	90000000 	andls	r0, r0, r0
     760:	c0000002 	andgt	r0, r0, r2
     764:	01000002 	tsteq	r0, r2
     768:	02c05000 	sbceq	r5, r0, #0
     76c:	070c0000 	streq	r0, [ip, -r0]
     770:	00010000 	andeq	r0, r1, r0
     774:	00070c59 	andeq	r0, r7, r9, asr ip
     778:	00074800 	andeq	r4, r7, r0, lsl #16
     77c:	f3000400 	vshl.u8	d0, d0, d0
     780:	009f5001 	addseq	r5, pc, r1
	...
     790:	00029000 	andeq	r9, r2, r0
     794:	0002a800 	andeq	sl, r2, r0, lsl #16
     798:	51000100 	mrspl	r0, (UNDEF: 16)
     79c:	000002a8 	andeq	r0, r0, r8, lsr #5
     7a0:	000002c0 	andeq	r0, r0, r0, asr #5
     7a4:	01710003 	cmneq	r1, r3
     7a8:	0002c09f 	muleq	r2, pc, r0	; <UNPREDICTABLE>
     7ac:	00074800 	andeq	r4, r7, r0, lsl #16
     7b0:	f3000400 	vshl.u8	d0, d0, d0
     7b4:	009f5101 	addseq	r5, pc, r1, lsl #2
	...
     7c8:	90000000 	andls	r0, r0, r0
     7cc:	c0000002 	andgt	r0, r0, r2
     7d0:	01000002 	tsteq	r0, r2
     7d4:	02c05200 	sbceq	r5, r0, #0, 4
     7d8:	03f40000 	mvnseq	r0, #0
     7dc:	00010000 	andeq	r0, r1, r0
     7e0:	0003f456 	andeq	pc, r3, r6, asr r4	; <UNPREDICTABLE>
     7e4:	0004c000 	andeq	ip, r4, r0
     7e8:	5b000100 	blpl	bf0 <__code_start__-0x7410>
     7ec:	000004c0 	andeq	r0, r0, r0, asr #9
     7f0:	000004e0 	andeq	r0, r0, r0, ror #9
     7f4:	e0560001 	subs	r0, r6, r1
     7f8:	64000004 	strvs	r0, [r0], #-4
     7fc:	01000005 	tsteq	r0, r5
     800:	05645b00 	strbeq	r5, [r4, #-2816]!	; 0xfffff500
     804:	070c0000 	streq	r0, [ip, -r0]
     808:	00010000 	andeq	r0, r1, r0
     80c:	00000056 	andeq	r0, r0, r6, asr r0
     810:	00000000 	andeq	r0, r0, r0
     814:	00000100 	andeq	r0, r0, r0, lsl #2
     818:	00000101 	andeq	r0, r0, r1, lsl #2
	...
     824:	00000202 	andeq	r0, r0, r2, lsl #4
     828:	0002a400 	andeq	sl, r2, r0, lsl #8
     82c:	0002c000 	andeq	ip, r2, r0
     830:	50000100 	andpl	r0, r0, r0, lsl #2
     834:	000002c0 	andeq	r0, r0, r0, asr #5
     838:	000002cc 	andeq	r0, r0, ip, asr #5
     83c:	cc540001 	mrrcgt	0, 0, r0, r4, cr1
     840:	d0000002 	andle	r0, r0, r2
     844:	03000002 	movweq	r0, #2
     848:	9f017400 	svcls	0x00017400
     84c:	000002d0 	ldrdeq	r0, [r0], -r0	; <UNPREDICTABLE>
     850:	000002f4 	strdeq	r0, [r0], -r4
     854:	f4540001 			; <UNDEFINED> instruction: 0xf4540001
     858:	f8000002 			; <UNDEFINED> instruction: 0xf8000002
     85c:	03000002 	movweq	r0, #2
     860:	9f017400 	svcls	0x00017400
     864:	000002f8 	strdeq	r0, [r0], -r8
     868:	000006dc 	ldrdeq	r0, [r0], -ip
     86c:	dc540001 	mrrcle	0, 0, r0, r4, cr1
     870:	e0000006 	and	r0, r0, r6
     874:	03000006 	movweq	r0, #6
     878:	9f017400 	svcls	0x00017400
     87c:	000006e0 	andeq	r0, r0, r0, ror #13
     880:	000006f8 	strdeq	r0, [r0], -r8
     884:	f8540001 			; <UNDEFINED> instruction: 0xf8540001
     888:	00000006 	andeq	r0, r0, r6
     88c:	03000007 	movweq	r0, #7
     890:	9f017400 	svcls	0x00017400
     894:	00000700 	andeq	r0, r0, r0, lsl #14
     898:	0000070c 	andeq	r0, r0, ip, lsl #14
     89c:	00540001 	subseq	r0, r4, r1
	...
     8a8:	ac000000 	stcge	0, cr0, [r0], {-0}
     8ac:	0c000002 	stceq	0, cr0, [r0], {2}
     8b0:	01000007 	tsteq	r0, r7
     8b4:	070c5800 	streq	r5, [ip, -r0, lsl #16]
     8b8:	07480000 	strbeq	r0, [r8, -r0]
     8bc:	000a0000 	andeq	r0, sl, r0
     8c0:	f35101f3 	vbsl	q8, <illegal reg q8.5>, <illegal reg q9.5>
     8c4:	31225001 			; <UNDEFINED> instruction: 0x31225001
     8c8:	00009f1c 	andeq	r9, r0, ip, lsl pc
     8cc:	00000000 	andeq	r0, r0, r0
     8d0:	00010000 	andeq	r0, r1, r0
     8d4:	00000000 	andeq	r0, r0, r0
     8d8:	00000410 	andeq	r0, r0, r0, lsl r4
     8dc:	0000047c 	andeq	r0, r0, ip, ror r4
     8e0:	e0570001 	subs	r0, r7, r1
     8e4:	04000004 	streq	r0, [r0], #-4
     8e8:	01000005 	tsteq	r0, r5
     8ec:	05485700 	strbeq	r5, [r8, #-1792]	; 0xfffff900
     8f0:	05640000 	strbeq	r0, [r4, #-0]!
     8f4:	00010000 	andeq	r0, r1, r0
     8f8:	00000057 	andeq	r0, r0, r7, asr r0
     8fc:	00000000 	andeq	r0, r0, r0
     900:	00000200 	andeq	r0, r0, r0, lsl #4
     904:	00041000 	andeq	r1, r4, r0
     908:	0004c000 	andeq	ip, r4, r0
     90c:	5a000100 	bpl	d14 <__code_start__-0x72ec>
     910:	000004e0 	andeq	r0, r0, r0, ror #9
     914:	00000564 	andeq	r0, r0, r4, ror #10
     918:	005a0001 	subseq	r0, sl, r1
     91c:	00000000 	andeq	r0, r0, r0
     920:	01000000 	mrseq	r0, (UNDEF: 0)
     924:	b4000000 	strlt	r0, [r0], #-0
     928:	c0000002 	andgt	r0, r0, r2
     92c:	01000002 	tsteq	r0, r2
     930:	02c05200 	sbceq	r5, r0, #0, 4
     934:	07480000 	strbeq	r0, [r8, -r0]
     938:	00030000 	andeq	r0, r3, r0
     93c:	007dc891 			; <UNDEFINED> instruction: 0x007dc891
	...
     950:	00000101 	andeq	r0, r0, r1, lsl #2
	...
     95c:	00047c00 	andeq	r7, r4, r0, lsl #24
     960:	00049400 	andeq	r9, r4, r0, lsl #8
     964:	50000100 	andpl	r0, r0, r0, lsl #2
     968:	00000494 	muleq	r0, r4, r4
     96c:	000004c0 	andeq	r0, r0, r0, asr #9
     970:	04570001 	ldrbeq	r0, [r7], #-1
     974:	1c000005 	stcne	0, cr0, [r0], {5}
     978:	01000005 	tsteq	r0, r5
     97c:	051c5000 	ldreq	r5, [ip, #-0]
     980:	05480000 	strbeq	r0, [r8, #-0]
     984:	00010000 	andeq	r0, r1, r0
     988:	0005ac57 	andeq	sl, r5, r7, asr ip
     98c:	0005ac00 	andeq	sl, r5, r0, lsl #24
     990:	50000100 	andpl	r0, r0, r0, lsl #2
     994:	000005ac 	andeq	r0, r0, ip, lsr #11
     998:	000005b4 			; <UNDEFINED> instruction: 0x000005b4
     99c:	e4570001 	ldrb	r0, [r7], #-1
     9a0:	e8000005 	stmda	r0, {r0, r2}
     9a4:	01000005 	tsteq	r0, r5
     9a8:	06185000 	ldreq	r5, [r8], -r0
     9ac:	061c0000 	ldreq	r0, [ip], -r0
     9b0:	00010000 	andeq	r0, r1, r0
     9b4:	00064c50 	andeq	r4, r6, r0, asr ip
     9b8:	00065000 	andeq	r5, r6, r0
     9bc:	50000100 	andpl	r0, r0, r0, lsl #2
     9c0:	00000694 	muleq	r0, r4, r6
     9c4:	00000698 	muleq	r0, r8, r6
     9c8:	d8500001 	ldmdale	r0, {r0}^
     9cc:	f8000006 			; <UNDEFINED> instruction: 0xf8000006
     9d0:	01000006 	tsteq	r0, r6
     9d4:	00005700 	andeq	r5, r0, r0, lsl #14
     9d8:	00000000 	andeq	r0, r0, r0
     9dc:	00020000 	andeq	r0, r2, r0
     9e0:	00000000 	andeq	r0, r0, r0
     9e4:	00000300 	andeq	r0, r0, r0, lsl #6
     9e8:	00000308 	andeq	r0, r0, r8, lsl #6
     9ec:	9f300002 	svcls	0x00300002
     9f0:	00000308 	andeq	r0, r0, r8, lsl #6
     9f4:	0000030c 	andeq	r0, r0, ip, lsl #6
     9f8:	14550001 	ldrbne	r0, [r5], #-1
     9fc:	f8000003 			; <UNDEFINED> instruction: 0xf8000003
     a00:	01000006 	tsteq	r0, r6
     a04:	00005500 	andeq	r5, r0, r0, lsl #10
     a08:	00000000 	andeq	r0, r0, r0
     a0c:	00010000 	andeq	r0, r1, r0
	...
     a18:	000003c0 	andeq	r0, r0, r0, asr #7
     a1c:	0000045c 	andeq	r0, r0, ip, asr r4
     a20:	5c560001 	mrrcpl	0, 0, r0, r6, cr1
     a24:	c0000004 	andgt	r0, r0, r4
     a28:	03000004 	movweq	r0, #4
     a2c:	9f7e7b00 	svcls	0x007e7b00
     a30:	000004c0 	andeq	r0, r0, r0, asr #9
     a34:	000004e4 	andeq	r0, r0, r4, ror #9
     a38:	e4560001 	ldrb	r0, [r6], #-1
     a3c:	48000004 	stmdami	r0, {r2}
     a40:	03000005 	movweq	r0, #5
     a44:	9f7e7b00 	svcls	0x007e7b00
     a48:	00000548 	andeq	r0, r0, r8, asr #10
     a4c:	00000564 	andeq	r0, r0, r4, ror #10
     a50:	00560001 	subseq	r0, r6, r1
	...
     a60:	00007800 	andeq	r7, r0, r0, lsl #16
     a64:	00009c00 	andeq	r9, r0, r0, lsl #24
     a68:	50000100 	andpl	r0, r0, r0, lsl #2
     a6c:	0000009c 	muleq	r0, ip, r0
     a70:	00000104 	andeq	r0, r0, r4, lsl #2
     a74:	02700003 	rsbseq	r0, r0, #3
     a78:	0001049f 	muleq	r1, pc, r4	; <UNPREDICTABLE>
     a7c:	00022c00 	andeq	r2, r2, r0, lsl #24
     a80:	f3000400 	vshl.u8	d0, d0, d0
     a84:	009f5001 	addseq	r5, pc, r1
	...
     a9c:	78000000 	stmdavc	r0, {}	; <UNPREDICTABLE>
     aa0:	e8000000 	stmda	r0, {}	; <UNPREDICTABLE>
     aa4:	01000000 	mrseq	r0, (UNDEF: 0)
     aa8:	00e85100 	rsceq	r5, r8, r0, lsl #2
     aac:	015c0000 	cmpeq	ip, r0
     ab0:	00010000 	andeq	r0, r1, r0
     ab4:	00015c55 	andeq	r5, r1, r5, asr ip
     ab8:	00016000 	andeq	r6, r1, r0
     abc:	51000100 	mrspl	r0, (UNDEF: 16)
     ac0:	00000160 	andeq	r0, r0, r0, ror #2
     ac4:	000001b8 			; <UNDEFINED> instruction: 0x000001b8
     ac8:	b8550001 	ldmdalt	r5, {r0}^
     acc:	c8000001 	stmdagt	r0, {r0}
     ad0:	01000001 	tsteq	r0, r1
     ad4:	01c85100 	biceq	r5, r8, r0, lsl #2
     ad8:	01ec0000 	mvneq	r0, r0
     adc:	00010000 	andeq	r0, r1, r0
     ae0:	0001ec55 	andeq	lr, r1, r5, asr ip
     ae4:	00020000 	andeq	r0, r2, r0
     ae8:	51000100 	mrspl	r0, (UNDEF: 16)
     aec:	00000200 	andeq	r0, r0, r0, lsl #4
     af0:	0000022c 	andeq	r0, r0, ip, lsr #4
     af4:	00550001 	subseq	r0, r5, r1
	...
     b00:	78000000 	stmdavc	r0, {}	; <UNPREDICTABLE>
     b04:	8c000000 	stchi	0, cr0, [r0], {-0}
     b08:	01000000 	mrseq	r0, (UNDEF: 0)
     b0c:	008c5200 	addeq	r5, ip, r0, lsl #4
     b10:	022c0000 	eoreq	r0, ip, #0
     b14:	00010000 	andeq	r0, r1, r0
     b18:	00000054 	andeq	r0, r0, r4, asr r0
	...
     b24:	00010000 	andeq	r0, r1, r0
     b28:	00000000 	andeq	r0, r0, r0
     b2c:	00007800 	andeq	r7, r0, r0, lsl #16
     b30:	0000fc00 	andeq	pc, r0, r0, lsl #24
     b34:	53000100 	movwpl	r0, #256	; 0x100
     b38:	00000154 	andeq	r0, r0, r4, asr r1
     b3c:	00000188 	andeq	r0, r0, r8, lsl #3
     b40:	88530001 	ldmdahi	r3, {r0}^
     b44:	94000001 	strls	r0, [r0], #-1
     b48:	04000001 	streq	r0, [r0], #-1
     b4c:	5301f300 	movwpl	pc, #4864	; 0x1300	; <UNPREDICTABLE>
     b50:	0001b89f 	muleq	r1, pc, r8	; <UNPREDICTABLE>
     b54:	0001f000 	andeq	pc, r1, r0
     b58:	53000100 	movwpl	r0, #256	; 0x100
     b5c:	000001f0 	strdeq	r0, [r0], -r0	; <UNPREDICTABLE>
     b60:	00000207 	andeq	r0, r0, r7, lsl #4
     b64:	075c0001 	ldrbeq	r0, [ip, -r1]
     b68:	2c000002 	stccs	0, cr0, [r0], {2}
     b6c:	04000002 	streq	r0, [r0], #-2
     b70:	5301f300 	movwpl	pc, #4864	; 0x1300	; <UNPREDICTABLE>
     b74:	0000009f 	muleq	r0, pc, r0	; <UNPREDICTABLE>
	...
     b80:	78000000 	stmdavc	r0, {}	; <UNPREDICTABLE>
     b84:	94000000 	strls	r0, [r0], #-0
     b88:	02000000 	andeq	r0, r0, #0
     b8c:	94009100 	strls	r9, [r0], #-256	; 0xffffff00
     b90:	9b000000 	blls	b98 <__code_start__-0x7468>
     b94:	01000001 	tsteq	r0, r1
     b98:	01b85200 			; <UNDEFINED> instruction: 0x01b85200
     b9c:	01fc0000 	mvnseq	r0, r0
     ba0:	00010000 	andeq	r0, r1, r0
     ba4:	00000052 	andeq	r0, r0, r2, asr r0
     ba8:	00000000 	andeq	r0, r0, r0
     bac:	00000100 	andeq	r0, r0, r0, lsl #2
     bb0:	00000101 	andeq	r0, r0, r1, lsl #2
     bb4:	00000000 	andeq	r0, r0, r0
     bb8:	01010000 	mrseq	r0, (UNDEF: 1)
     bbc:	00000101 	andeq	r0, r0, r1, lsl #2
     bc0:	00000101 	andeq	r0, r0, r1, lsl #2
     bc4:	00000000 	andeq	r0, r0, r0
     bc8:	94000000 	strls	r0, [r0], #-0
     bcc:	04000000 	streq	r0, [r0], #-0
     bd0:	04000001 	streq	r0, [r0], #-1
     bd4:	7fa09100 	svcvc	0x00a09100
     bd8:	0001049f 	muleq	r1, pc, r4	; <UNPREDICTABLE>
     bdc:	00014400 	andeq	r4, r1, r0, lsl #8
     be0:	50000100 	andpl	r0, r0, r0, lsl #2
     be4:	00000144 	andeq	r0, r0, r4, asr #2
     be8:	00000150 	andeq	r0, r0, r0, asr r1
     bec:	02710003 	rsbseq	r0, r1, #3
     bf0:	0001509f 	muleq	r1, pc, r0	; <UNPREDICTABLE>
     bf4:	00015400 	andeq	r5, r1, r0, lsl #8
     bf8:	50000100 	andpl	r0, r0, r0, lsl #2
     bfc:	00000154 	andeq	r0, r0, r4, asr r1
     c00:	00000160 	andeq	r0, r0, r0, ror #2
     c04:	a0910004 	addsge	r0, r1, r4
     c08:	01609f7f 	smceq	2559	; 0x9ff
     c0c:	01740000 	cmneq	r4, r0
     c10:	00010000 	andeq	r0, r1, r0
     c14:	00017451 	andeq	r7, r1, r1, asr r4
     c18:	00018000 	andeq	r8, r1, r0
     c1c:	71000300 	mrsvc	r0, LR_irq
     c20:	01809f7f 	orreq	r9, r0, pc, ror pc
     c24:	018c0000 	orreq	r0, ip, r0
     c28:	00030000 	andeq	r0, r3, r0
     c2c:	8c9f0171 	ldfhis	f0, [pc], {113}	; 0x71
     c30:	9b000001 	blls	c3c <__code_start__-0x73c4>
     c34:	01000001 	tsteq	r0, r1
     c38:	01b85000 			; <UNDEFINED> instruction: 0x01b85000
     c3c:	01b80000 			; <UNDEFINED> instruction: 0x01b80000
     c40:	00040000 	andeq	r0, r4, r0
     c44:	9f7fa091 	svcls	0x007fa091
     c48:	000001b8 			; <UNDEFINED> instruction: 0x000001b8
     c4c:	000001c4 	andeq	r0, r0, r4, asr #3
     c50:	a1910004 	orrsge	r0, r1, r4
     c54:	01c49f7f 	biceq	r9, r4, pc, ror pc
     c58:	01c80000 	biceq	r0, r8, r0
     c5c:	00040000 	andeq	r0, r4, r0
     c60:	9f7fa091 	svcls	0x007fa091
     c64:	000001c8 	andeq	r0, r0, r8, asr #3
     c68:	000001dc 	ldrdeq	r0, [r0], -ip
     c6c:	dc500001 	mrrcle	0, 0, r0, r0, cr1	; <UNPREDICTABLE>
     c70:	ec000001 	stc	0, cr0, [r0], {1}
     c74:	03000001 	movweq	r0, #1
     c78:	9f7f7000 	svcls	0x007f7000
     c7c:	000001ec 	andeq	r0, r0, ip, ror #3
     c80:	0000022c 	andeq	r0, r0, ip, lsr #4
     c84:	a0910004 	addsge	r0, r1, r4
     c88:	00009f7f 	andeq	r9, r0, pc, ror pc
	...
     c94:	00010100 	andeq	r0, r1, r0, lsl #2
	...
     ca4:	00980000 	addseq	r0, r8, r0
     ca8:	00e40000 	rsceq	r0, r4, r0
     cac:	00010000 	andeq	r0, r1, r0
     cb0:	0000e45c 	andeq	lr, r0, ip, asr r4
     cb4:	0000fc00 	andeq	pc, r0, r0, lsl #24
     cb8:	53000100 	movwpl	r0, #256	; 0x100
     cbc:	000000fc 	strdeq	r0, [r0], -ip
     cc0:	00000154 	andeq	r0, r0, r4, asr r1
     cc4:	545c0001 	ldrbpl	r0, [ip], #-1
     cc8:	60000001 	andvs	r0, r0, r1
     ccc:	01000001 	tsteq	r0, r1
     cd0:	01605300 	cmneq	r0, r0, lsl #6
     cd4:	017c0000 	cmneq	ip, r0
     cd8:	00010000 	andeq	r0, r1, r0
     cdc:	0001b85c 	andeq	fp, r1, ip, asr r8
     ce0:	0001c800 	andeq	ip, r1, r0, lsl #16
     ce4:	53000100 	movwpl	r0, #256	; 0x100
     ce8:	000001c8 	andeq	r0, r0, r8, asr #3
     cec:	000001e4 	andeq	r0, r0, r4, ror #3
     cf0:	ec5c0001 	mrrc	0, 0, r0, ip, cr1
     cf4:	f0000001 			; <UNDEFINED> instruction: 0xf0000001
     cf8:	01000001 	tsteq	r0, r1
     cfc:	01f05300 	mvnseq	r5, r0, lsl #6
     d00:	02070000 	andeq	r0, r7, #0
     d04:	00010000 	andeq	r0, r1, r0
     d08:	0002075c 	andeq	r0, r2, ip, asr r7
     d0c:	00022c00 	andeq	r2, r2, r0, lsl #24
     d10:	f3000400 	vshl.u8	d0, d0, d0
     d14:	009f5301 	addseq	r5, pc, r1, lsl #6
     d18:	00000000 	andeq	r0, r0, r0
     d1c:	01000000 	mrseq	r0, (UNDEF: 0)
     d20:	00000101 	andeq	r0, r0, r1, lsl #2
     d24:	e4000000 	str	r0, [r0], #-0
     d28:	f8000000 			; <UNDEFINED> instruction: 0xf8000000
     d2c:	02000000 	andeq	r0, r0, #0
     d30:	f89f3000 			; <UNDEFINED> instruction: 0xf89f3000
     d34:	00000000 	andeq	r0, r0, r0
     d38:	02000001 	andeq	r0, r0, #1
     d3c:	049f3100 	ldreq	r3, [pc], #256	; d44 <__code_start__-0x72bc>
     d40:	54000001 	strpl	r0, [r0], #-1
     d44:	01000001 	tsteq	r0, r1
     d48:	01545600 	cmpeq	r4, r0, lsl #12
     d4c:	015c0000 	cmpeq	ip, r0
     d50:	00020000 	andeq	r0, r2, r0
     d54:	00009f30 	andeq	r9, r0, r0, lsr pc
	...
     d60:	00010100 	andeq	r0, r1, r0, lsl #2
     d64:	00010100 	andeq	r0, r1, r0, lsl #2
     d68:	0000003c 	andeq	r0, r0, ip, lsr r0
     d6c:	0000005c 	andeq	r0, r0, ip, asr r0
     d70:	5c500001 	mrrcpl	0, 0, r0, r0, cr1	; <UNPREDICTABLE>
     d74:	5c000000 	stcpl	0, cr0, [r0], {-0}
     d78:	01000000 	mrseq	r0, (UNDEF: 0)
     d7c:	005c5200 	subseq	r5, ip, r0, lsl #4
     d80:	00640000 	rsbeq	r0, r4, r0
     d84:	00030000 	andeq	r0, r3, r0
     d88:	649f0172 	ldrvs	r0, [pc], #370	; d90 <__code_start__-0x7270>
     d8c:	6c000000 	stcvs	0, cr0, [r0], {-0}
     d90:	01000000 	mrseq	r0, (UNDEF: 0)
     d94:	006c5200 	rsbeq	r5, ip, r0, lsl #4
     d98:	00780000 	rsbseq	r0, r8, r0
     d9c:	00030000 	andeq	r0, r3, r0
     da0:	009f0172 	addseq	r0, pc, r2, ror r1	; <UNPREDICTABLE>
	...
     dac:	3c000000 	stccc	0, cr0, [r0], {-0}
     db0:	54000000 	strpl	r0, [r0], #-0
     db4:	01000000 	mrseq	r0, (UNDEF: 0)
     db8:	00545100 	subseq	r5, r4, r0, lsl #2
     dbc:	00780000 	rsbseq	r0, r8, r0
     dc0:	00040000 	andeq	r0, r4, r0
     dc4:	9f5101f3 	svcls	0x005101f3
	...
     dd4:	00010100 	andeq	r0, r1, r0, lsl #2
     dd8:	0000003c 	andeq	r0, r0, ip, lsr r0
     ddc:	00000054 	andeq	r0, r0, r4, asr r0
     de0:	54520001 	ldrbpl	r0, [r2], #-1
     de4:	60000000 	andvs	r0, r0, r0
     de8:	01000000 	mrseq	r0, (UNDEF: 0)
     dec:	00605100 	rsbeq	r5, r0, r0, lsl #2
     df0:	00640000 	rsbeq	r0, r4, r0
     df4:	00030000 	andeq	r0, r3, r0
     df8:	649f0171 	ldrvs	r0, [pc], #369	; e00 <__code_start__-0x7200>
     dfc:	78000000 	stmdavc	r0, {}	; <UNPREDICTABLE>
     e00:	01000000 	mrseq	r0, (UNDEF: 0)
     e04:	00005100 	andeq	r5, r0, r0, lsl #2
	...
     e10:	003c0000 	eorseq	r0, ip, r0
     e14:	00500000 	subseq	r0, r0, r0
     e18:	00010000 	andeq	r0, r1, r0
     e1c:	00005053 	andeq	r5, r0, r3, asr r0
     e20:	00007000 	andeq	r7, r0, r0
     e24:	53000100 	movwpl	r0, #256	; 0x100
	...
     e38:	00440000 	subeq	r0, r4, r0
     e3c:	004c0000 	subeq	r0, ip, r0
     e40:	00010000 	andeq	r0, r1, r0
     e44:	00004c5c 	andeq	r4, r0, ip, asr ip
     e48:	00005000 	andeq	r5, r0, r0
     e4c:	72000800 	andvc	r0, r0, #0, 16
     e50:	1c007300 	stcne	3, cr7, [r0], {-0}
     e54:	509f0123 	addspl	r0, pc, r3, lsr #2
     e58:	58000000 	stmdapl	r0, {}	; <UNPREDICTABLE>
     e5c:	09000000 	stmdbeq	r0, {}	; <UNPREDICTABLE>
     e60:	f3007200 	vhsub.u8	d7, d0, d0
     e64:	231c5301 	tstcs	ip, #67108864	; 0x4000000
     e68:	00589f01 	subseq	r9, r8, r1, lsl #30
     e6c:	005c0000 	subseq	r0, ip, r0
     e70:	00090000 	andeq	r0, r9, r0
     e74:	01f30071 	mvnseq	r0, r1, ror r0
     e78:	02231c53 	eoreq	r1, r3, #21248	; 0x5300
     e7c:	00005c9f 	muleq	r0, pc, ip	; <UNPREDICTABLE>
     e80:	00007800 	andeq	r7, r0, r0, lsl #16
     e84:	f3000a00 	vpmax.u8	d0, d0, d0
     e88:	01f35201 	mvnseq	r5, r1, lsl #4
     e8c:	01231c53 			; <UNDEFINED> instruction: 0x01231c53
     e90:	0000009f 	muleq	r0, pc, r0	; <UNPREDICTABLE>
     e94:	00000000 	andeq	r0, r0, r0
     e98:	50000100 	andpl	r0, r0, r0, lsl #2
     e9c:	78000000 	stmdavc	r0, {}	; <UNPREDICTABLE>
     ea0:	01000000 	mrseq	r0, (UNDEF: 0)
     ea4:	00005000 	andeq	r5, r0, r0
     ea8:	00000000 	andeq	r0, r0, r0
     eac:	01000000 	mrseq	r0, (UNDEF: 0)
     eb0:	00000001 	andeq	r0, r0, r1
     eb4:	00000014 	andeq	r0, r0, r4, lsl r0
     eb8:	0000001c 	andeq	r0, r0, ip, lsl r0
     ebc:	1c500001 	mrrcne	0, 0, r0, r0, cr1	; <UNPREDICTABLE>
     ec0:	24000000 	strcs	r0, [r0], #-0
     ec4:	03000000 	movweq	r0, #0
     ec8:	9f017000 	svcls	0x00017000
     ecc:	00000024 	andeq	r0, r0, r4, lsr #32
     ed0:	0000003c 	andeq	r0, r0, ip, lsr r0
     ed4:	00500001 	subseq	r0, r0, r1
	...
     ee0:	14000000 	strne	r0, [r0], #-0
     ee4:	18000000 	stmdane	r0, {}	; <UNPREDICTABLE>
     ee8:	01000000 	mrseq	r0, (UNDEF: 0)
     eec:	00185100 	andseq	r5, r8, r0, lsl #2
     ef0:	003c0000 	eorseq	r0, ip, r0
     ef4:	00040000 	andeq	r0, r4, r0
     ef8:	9f5101f3 	svcls	0x005101f3
	...
     f04:	00180000 	andseq	r0, r8, r0
     f08:	003c0000 	eorseq	r0, ip, r0
     f0c:	00010000 	andeq	r0, r1, r0
     f10:	00000051 	andeq	r0, r0, r1, asr r0
	...
     f20:	04000000 	streq	r0, [r0], #-0
     f24:	01000000 	mrseq	r0, (UNDEF: 0)
     f28:	00045000 	andeq	r5, r4, r0
     f2c:	000c0000 	andeq	r0, ip, r0
     f30:	00030000 	andeq	r0, r3, r0
     f34:	0c9f3070 	ldceq	0, cr3, [pc], {112}	; 0x70
     f38:	14000000 	strne	r0, [r0], #-0
     f3c:	04000000 	streq	r0, [r0], #-0
     f40:	5001f300 	andpl	pc, r1, r0, lsl #6
     f44:	0000009f 	muleq	r0, pc, r0	; <UNPREDICTABLE>
	...
     f50:	00022c00 	andeq	r2, r2, r0, lsl #24
     f54:	00027000 	andeq	r7, r2, r0
     f58:	50000100 	andpl	r0, r0, r0, lsl #2
     f5c:	00000270 	andeq	r0, r0, r0, ror r2
     f60:	00000290 	muleq	r0, r0, r2
     f64:	01f30004 	mvnseq	r0, r4
     f68:	00009f50 	andeq	r9, r0, r0, asr pc
	...
     f74:	022c0000 	eoreq	r0, ip, #0
     f78:	026c0000 	rsbeq	r0, ip, #0
     f7c:	00010000 	andeq	r0, r1, r0
     f80:	00026c51 	andeq	r6, r2, r1, asr ip
     f84:	00029000 	andeq	r9, r2, r0
     f88:	f3000400 	vshl.u8	d0, d0, d0
     f8c:	009f5101 	addseq	r5, pc, r1, lsl #2
	...
     f98:	00000101 	andeq	r0, r0, r1, lsl #2
     f9c:	00001000 	andeq	r1, r0, r0
     fa0:	00001000 	andeq	r1, r0, r0
     fa4:	53000100 	movwpl	r0, #256	; 0x100
     fa8:	00000010 	andeq	r0, r0, r0, lsl r0
     fac:	00000018 	andeq	r0, r0, r8, lsl r0
     fb0:	04730003 	ldrbteq	r0, [r3], #-3
     fb4:	0000189f 	muleq	r0, pc, r8	; <UNPREDICTABLE>
     fb8:	00002700 	andeq	r2, r0, r0, lsl #14
     fbc:	53000100 	movwpl	r0, #256	; 0x100
	...
     fc8:	00010100 	andeq	r0, r1, r0, lsl #2
     fcc:	8be40000 	blhi	ff900fd4 <__bss_end__+0xff8f7a3c>
     fd0:	8be40000 	blhi	ff900fd8 <__bss_end__+0xff8f7a40>
     fd4:	00010000 	andeq	r0, r1, r0
     fd8:	008be453 	addeq	lr, fp, r3, asr r4
     fdc:	008be800 	addeq	lr, fp, r0, lsl #16
     fe0:	73000700 	movwvc	r0, #1792	; 0x700
     fe4:	efff0b00 	svc	0x00ff0b00
     fe8:	8be89f1a 	blhi	ffa28c58 <__bss_end__+0xffa1f6c0>
     fec:	8bf00000 	blhi	ffc00ff4 <__bss_end__+0xffbf7a5c>
     ff0:	00010000 	andeq	r0, r1, r0
     ff4:	00000053 	andeq	r0, r0, r3, asr r0
     ff8:	00000000 	andeq	r0, r0, r0
     ffc:	01010000 	mrseq	r0, (UNDEF: 1)
    1000:	d4000000 	strle	r0, [r0], #-0
    1004:	d400008b 	strle	r0, [r0], #-139	; 0xffffff75
    1008:	0100008b 	smlabbeq	r0, fp, r0, r0
    100c:	8bd45300 	blhi	ff515c14 <__bss_end__+0xff50c67c>
    1010:	8bd80000 	blhi	ff601018 <__bss_end__+0xff5f7a80>
    1014:	00070000 	andeq	r0, r7, r0
    1018:	000a0073 	andeq	r0, sl, r3, ror r0
    101c:	d89f2110 	ldmle	pc, {r4, r8, sp}	; <UNPREDICTABLE>
    1020:	e000008b 	and	r0, r0, fp, lsl #1
    1024:	0100008b 	smlabbeq	r0, fp, r0, r0
    1028:	00005300 	andeq	r5, r0, r0, lsl #6
    102c:	00000000 	andeq	r0, r0, r0
    1030:	00010000 	andeq	r0, r1, r0
    1034:	00008c3c 	andeq	r8, r0, ip, lsr ip
    1038:	00008c58 	andeq	r8, r0, r8, asr ip
    103c:	1c0c0006 	stcne	0, cr0, [ip], {6}
    1040:	9f201000 	svcls	0x00201000
	...
    104c:	8c3c0002 	ldchi	0, cr0, [ip], #-8
    1050:	8c580000 	mrahi	r0, r8, acc0
    1054:	00060000 	andeq	r0, r6, r0
    1058:	1000240c 	andne	r2, r0, ip, lsl #8
    105c:	00009f20 	andeq	r9, r0, r0, lsr #30
    1060:	00000000 	andeq	r0, r0, r0
    1064:	00030000 	andeq	r0, r3, r0
    1068:	00008c3c 	andeq	r8, r0, ip, lsr ip
    106c:	00008c58 	andeq	r8, r0, r8, asr ip
    1070:	b4080005 	strlt	r0, [r8], #-5
    1074:	009f2447 	addseq	r2, pc, r7, asr #8
    1078:	00000000 	andeq	r0, r0, r0
    107c:	04000000 	streq	r0, [r0], #-0
    1080:	008c3c00 	addeq	r3, ip, r0, lsl #24
    1084:	008c5800 	addeq	r5, ip, r0, lsl #16
    1088:	08000300 	stmdaeq	r0, {r8, r9}
    108c:	00009f20 	andeq	r9, r0, r0, lsr #30
    1090:	00000000 	andeq	r0, r0, r0
    1094:	00020000 	andeq	r0, r2, r0
    1098:	00000000 	andeq	r0, r0, r0
    109c:	00008c08 	andeq	r8, r0, r8, lsl #24
    10a0:	00008c0c 	andeq	r8, r0, ip, lsl #24
    10a4:	9f300002 	svcls	0x00300002
    10a8:	00008c0c 	andeq	r8, r0, ip, lsl #24
    10ac:	00008c10 	andeq	r8, r0, r0, lsl ip
    10b0:	14530001 	ldrbne	r0, [r3], #-1
    10b4:	1c00008c 	stcne	0, cr0, [r0], {140}	; 0x8c
    10b8:	0100008c 	smlabbeq	r0, ip, r0, r0
    10bc:	00005300 	andeq	r5, r0, r0, lsl #6
    10c0:	00000000 	andeq	r0, r0, r0
    10c4:	00020000 	andeq	r0, r2, r0
    10c8:	8bf00000 	blhi	ffc010d0 <__bss_end__+0xffbf7b38>
    10cc:	8bf40000 	blhi	ffd010d4 <__bss_end__+0xffcf7b3c>
    10d0:	00020000 	andeq	r0, r2, r0
    10d4:	8bf49f30 	blhi	ffd28d9c <__bss_end__+0xffd1f804>
    10d8:	8bf80000 	blhi	ffe010e0 <__bss_end__+0xffdf7b48>
    10dc:	00010000 	andeq	r0, r1, r0
    10e0:	00000050 	andeq	r0, r0, r0, asr r0
	...
    10ec:	00006c00 	andeq	r6, r0, r0, lsl #24
    10f0:	00007800 	andeq	r7, r0, r0, lsl #16
    10f4:	50000100 	andpl	r0, r0, r0, lsl #2
    10f8:	00000078 	andeq	r0, r0, r8, ror r0
    10fc:	00000084 	andeq	r0, r0, r4, lsl #1
    1100:	01f30004 	mvnseq	r0, r4
    1104:	00009f50 	andeq	r9, r0, r0, asr pc
	...
    1110:	00540000 	subseq	r0, r4, r0
    1114:	00600000 	rsbeq	r0, r0, r0
    1118:	00010000 	andeq	r0, r1, r0
    111c:	00006050 	andeq	r6, r0, r0, asr r0
    1120:	00006c00 	andeq	r6, r0, r0, lsl #24
    1124:	f3000400 	vshl.u8	d0, d0, d0
    1128:	009f5001 	addseq	r5, pc, r1
	...
    1134:	30000000 	andcc	r0, r0, r0
    1138:	3b000000 	blcc	1140 <__code_start__-0x6ec0>
    113c:	01000000 	mrseq	r0, (UNDEF: 0)
    1140:	003b5000 	eorseq	r5, fp, r0
    1144:	00540000 	subseq	r0, r4, r0
    1148:	00010000 	andeq	r0, r1, r0
    114c:	00000055 	andeq	r0, r0, r5, asr r0
    1150:	00000000 	andeq	r0, r0, r0
    1154:	40000000 	andmi	r0, r0, r0
    1158:	54000000 	strpl	r0, [r0], #-0
    115c:	01000000 	mrseq	r0, (UNDEF: 0)
    1160:	00005400 	andeq	r5, r0, r0, lsl #8
	...
    116c:	00000044 	andeq	r0, r0, r4, asr #32
    1170:	00000048 	andeq	r0, r0, r8, asr #32
    1174:	00500001 	subseq	r0, r0, r1
	...
    1180:	24000000 	strcs	r0, [r0], #-0
    1184:	27000000 	strcs	r0, [r0, -r0]
    1188:	01000000 	mrseq	r0, (UNDEF: 0)
    118c:	00275000 	eoreq	r5, r7, r0
    1190:	00300000 	eorseq	r0, r0, r0
    1194:	00010000 	andeq	r0, r1, r0
    1198:	00000054 	andeq	r0, r0, r4, asr r0
	...
    11a4:	00015800 	andeq	r5, r1, r0, lsl #16
    11a8:	00016300 	andeq	r6, r1, r0, lsl #6
    11ac:	50000100 	andpl	r0, r0, r0, lsl #2
    11b0:	00000163 	andeq	r0, r0, r3, ror #2
    11b4:	00000188 	andeq	r0, r0, r8, lsl #3
    11b8:	00540001 	subseq	r0, r4, r1
	...
    11c4:	00014800 	andeq	r4, r1, r0, lsl #16
    11c8:	00015800 	andeq	r5, r1, r0, lsl #16
    11cc:	54000100 	strpl	r0, [r0], #-256	; 0xffffff00
	...
    11e0:	0000000f 	andeq	r0, r0, pc
    11e4:	0f500001 	svceq	0x00500001
    11e8:	20000000 	andcs	r0, r0, r0
    11ec:	01000000 	mrseq	r0, (UNDEF: 0)
    11f0:	00005400 	andeq	r5, r0, r0, lsl #8
	...
    1200:	000f0000 	andeq	r0, pc, r0
    1204:	00010000 	andeq	r0, r1, r0
    1208:	00000f51 	andeq	r0, r0, r1, asr pc
    120c:	00002000 	andeq	r2, r0, r0
    1210:	55000100 	strpl	r0, [r0, #-256]	; 0xffffff00
	...
    1220:	00000020 	andeq	r0, r0, r0, lsr #32
    1224:	0000002f 	andeq	r0, r0, pc, lsr #32
    1228:	2f500001 	svccs	0x00500001
    122c:	40000000 	andmi	r0, r0, r0
    1230:	01000000 	mrseq	r0, (UNDEF: 0)
    1234:	00005400 	andeq	r5, r0, r0, lsl #8
	...
    1240:	00200000 	eoreq	r0, r0, r0
    1244:	002f0000 	eoreq	r0, pc, r0
    1248:	00010000 	andeq	r0, r1, r0
    124c:	00002f51 	andeq	r2, r0, r1, asr pc
    1250:	00004000 	andeq	r4, r0, r0
    1254:	55000100 	strpl	r0, [r0, #-256]	; 0xffffff00
	...
    1268:	00040000 	andeq	r0, r4, r0
    126c:	00010000 	andeq	r0, r1, r0
    1270:	00000451 	andeq	r0, r0, r1, asr r4
    1274:	00000c00 	andeq	r0, r0, r0, lsl #24
    1278:	51000100 	mrspl	r0, (UNDEF: 16)
    127c:	0000000c 	andeq	r0, r0, ip
    1280:	00000020 	andeq	r0, r0, r0, lsr #32
    1284:	7f710003 	svcvc	0x00710003
    1288:	0000009f 	muleq	r0, pc, r0	; <UNPREDICTABLE>
    128c:	00000000 	andeq	r0, r0, r0
    1290:	00000200 	andeq	r0, r0, r0, lsl #4
    1294:	00000000 	andeq	r0, r0, r0
    1298:	04000000 	streq	r0, [r0], #-0
    129c:	01000000 	mrseq	r0, (UNDEF: 0)
    12a0:	00045000 	andeq	r5, r4, r0
    12a4:	00140000 	andseq	r0, r4, r0
    12a8:	00010000 	andeq	r0, r1, r0
    12ac:	0000145c 	andeq	r1, r0, ip, asr r4
    12b0:	00002000 	andeq	r2, r0, r0
    12b4:	7c000300 	stcvc	3, cr0, [r0], {-0}
    12b8:	00009f7f 	andeq	r9, r0, pc, ror pc
	...
    12c8:	001c0000 	andseq	r0, ip, r0
    12cc:	00010000 	andeq	r0, r1, r0
    12d0:	00001c51 	andeq	r1, r0, r1, asr ip
    12d4:	00003400 	andeq	r3, r0, r0, lsl #8
    12d8:	f3000400 	vshl.u8	d0, d0, d0
    12dc:	009f5101 	addseq	r5, pc, r1, lsl #2
    12e0:	00000000 	andeq	r0, r0, r0
    12e4:	02000000 	andeq	r0, r0, #0
    12e8:	00000000 	andeq	r0, r0, r0
    12ec:	00000101 	andeq	r0, r0, r1, lsl #2
    12f0:	00000000 	andeq	r0, r0, r0
    12f4:	00000400 	andeq	r0, r0, r0, lsl #8
    12f8:	50000100 	andpl	r0, r0, r0, lsl #2
    12fc:	00000004 	andeq	r0, r0, r4
    1300:	0000001c 	andeq	r0, r0, ip, lsl r0
    1304:	1c520001 	mrrcne	0, 0, r0, r2, cr1
    1308:	24000000 	strcs	r0, [r0], #-0
    130c:	01000000 	mrseq	r0, (UNDEF: 0)
    1310:	00245300 	eoreq	r5, r4, r0, lsl #6
    1314:	00280000 	eoreq	r0, r8, r0
    1318:	00030000 	andeq	r0, r3, r0
    131c:	289f0173 	ldmcs	pc, {r0, r1, r4, r5, r6, r8}	; <UNPREDICTABLE>
    1320:	34000000 	strcc	r0, [r0], #-0
    1324:	01000000 	mrseq	r0, (UNDEF: 0)
    1328:	00005300 	andeq	r5, r0, r0, lsl #6
    132c:	00000000 	andeq	r0, r0, r0
    1330:	00030000 	andeq	r0, r3, r0
    1334:	00000000 	andeq	r0, r0, r0
    1338:	00240000 	eoreq	r0, r4, r0
    133c:	00010000 	andeq	r0, r1, r0
    1340:	00002451 	andeq	r2, r0, r1, asr r4
    1344:	00003400 	andeq	r3, r0, r0, lsl #8
    1348:	71000300 	mrsvc	r0, LR_irq
    134c:	00009f7f 	andeq	r9, r0, pc, ror pc
	...
    1358:	00100000 	andseq	r0, r0, r0
    135c:	001c0000 	andseq	r0, ip, r0
    1360:	00010000 	andeq	r0, r1, r0
    1364:	0000245c 	andeq	r2, r0, ip, asr r4
    1368:	00003400 	andeq	r3, r0, r0, lsl #8
    136c:	52000100 	andpl	r0, r0, #0, 2
	...
    1380:	00000008 	andeq	r0, r0, r8
    1384:	08500001 	ldmdaeq	r0, {r0}^
    1388:	28000000 	stmdacs	r0, {}	; <UNPREDICTABLE>
    138c:	01000000 	mrseq	r0, (UNDEF: 0)
    1390:	00005000 	andeq	r5, r0, r0
	...
    13a0:	000c0000 	andeq	r0, ip, r0
    13a4:	00010000 	andeq	r0, r1, r0
    13a8:	00000c51 	andeq	r0, r0, r1, asr ip
    13ac:	00003000 	andeq	r3, r0, r0
    13b0:	51000100 	mrspl	r0, (UNDEF: 16)
	...
    13bc:	00030300 	andeq	r0, r3, r0, lsl #6
    13c0:	00008f70 	andeq	r8, r0, r0, ror pc
    13c4:	00008f70 	andeq	r8, r0, r0, ror pc
    13c8:	70500001 	subsvc	r0, r0, r1
    13cc:	9c00008f 	stcls	0, cr0, [r0], {143}	; 0x8f
    13d0:	0400008f 	streq	r0, [r0], #-143	; 0xffffff71
    13d4:	5001f300 	andpl	pc, r1, r0, lsl #6
    13d8:	0000009f 	muleq	r0, pc, r0	; <UNPREDICTABLE>
    13dc:	00000000 	andeq	r0, r0, r0
    13e0:	03030000 	movweq	r0, #12288	; 0x3000
    13e4:	008f7000 	addeq	r7, pc, r0
    13e8:	008f7000 	addeq	r7, pc, r0
    13ec:	51000100 	mrspl	r0, (UNDEF: 16)
    13f0:	00008f70 	andeq	r8, r0, r0, ror pc
    13f4:	00008f9c 	muleq	r0, ip, pc	; <UNPREDICTABLE>
    13f8:	01f30004 	mvnseq	r0, r4
    13fc:	00009f51 	andeq	r9, r0, r1, asr pc
    1400:	00000000 	andeq	r0, r0, r0
    1404:	03000000 	movweq	r0, #0
    1408:	00000003 	andeq	r0, r0, r3
    140c:	00008f70 	andeq	r8, r0, r0, ror pc
    1410:	00008f70 	andeq	r8, r0, r0, ror pc
    1414:	70520001 	subsvc	r0, r2, r1
    1418:	7800008f 	stmdavc	r0, {r0, r1, r2, r3, r7}
    141c:	0100008f 	smlabbeq	r0, pc, r0, r0	; <UNPREDICTABLE>
    1420:	8f785200 	svchi	0x00785200
    1424:	8f9c0000 	svchi	0x009c0000
    1428:	00030000 	andeq	r0, r3, r0
    142c:	009f0172 	addseq	r0, pc, r2, ror r1	; <UNPREDICTABLE>
    1430:	00000000 	andeq	r0, r0, r0
    1434:	02000000 	andeq	r0, r0, #0
    1438:	00000101 	andeq	r0, r0, r1, lsl #2
    143c:	70000000 	andvc	r0, r0, r0
    1440:	7c00008f 	stcvc	0, cr0, [r0], {143}	; 0x8f
    1444:	0100008f 	smlabbeq	r0, pc, r0, r0	; <UNPREDICTABLE>
    1448:	8f7c5000 	svchi	0x007c5000
    144c:	8f800000 	svchi	0x00800000
    1450:	00030000 	andeq	r0, r3, r0
    1454:	809f0170 	addshi	r0, pc, r0, ror r1	; <UNPREDICTABLE>
    1458:	9000008f 	andls	r0, r0, pc, lsl #1
    145c:	0100008f 	smlabbeq	r0, pc, r0, r0	; <UNPREDICTABLE>
    1460:	8f945000 	svchi	0x00945000
    1464:	8f980000 	svchi	0x00980000
    1468:	00010000 	andeq	r0, r1, r0
    146c:	00000050 	andeq	r0, r0, r0, asr r0
    1470:	00000000 	andeq	r0, r0, r0
    1474:	00000200 	andeq	r0, r0, r0, lsl #4
    1478:	70000000 	andvc	r0, r0, r0
    147c:	8000008f 	andhi	r0, r0, pc, lsl #1
    1480:	0100008f 	smlabbeq	r0, pc, r0, r0	; <UNPREDICTABLE>
    1484:	8f805100 	svchi	0x00805100
    1488:	8f840000 	svchi	0x00840000
    148c:	00030000 	andeq	r0, r3, r0
    1490:	849f0171 	ldrhi	r0, [pc], #369	; 1498 <__code_start__-0x6b68>
    1494:	9c00008f 	stcls	0, cr0, [r0], {143}	; 0x8f
    1498:	0100008f 	smlabbeq	r0, pc, r0, r0	; <UNPREDICTABLE>
    149c:	00005100 	andeq	r5, r0, r0, lsl #2
    14a0:	00000000 	andeq	r0, r0, r0
	...

Disassembly of section .debug_aranges:

00000000 <.debug_aranges>:
   0:	0000001c 	andeq	r0, r0, ip, lsl r0
   4:	00000002 	andeq	r0, r0, r2
   8:	00040000 	andeq	r0, r4, r0
   c:	00000000 	andeq	r0, r0, r0
  10:	00008038 	andeq	r8, r0, r8, lsr r0
  14:	000001b8 			; <UNDEFINED> instruction: 0x000001b8
	...
  20:	0000001c 	andeq	r0, r0, ip, lsl r0
  24:	05bf0002 	ldreq	r0, [pc, #2]!	; 2e <__code_start__-0x7fd2>
  28:	00040000 	andeq	r0, r4, r0
  2c:	00000000 	andeq	r0, r0, r0
  30:	00008238 	andeq	r8, r0, r8, lsr r2
  34:	0000011c 	andeq	r0, r0, ip, lsl r1
	...
  40:	0000001c 	andeq	r0, r0, ip, lsl r0
  44:	09680002 	stmdbeq	r8!, {r1}^
  48:	00040000 	andeq	r0, r4, r0
  4c:	00000000 	andeq	r0, r0, r0
  50:	00008354 	andeq	r8, r0, r4, asr r3
  54:	00000058 	andeq	r0, r0, r8, asr r0
	...
  60:	0000001c 	andeq	r0, r0, ip, lsl r0
  64:	0ae80002 	beq	ffa00074 <__bss_end__+0xff9f6adc>
  68:	00040000 	andeq	r0, r4, r0
  6c:	00000000 	andeq	r0, r0, r0
  70:	000083ac 	andeq	r8, r0, ip, lsr #7
  74:	00000034 	andeq	r0, r0, r4, lsr r0
	...
  80:	0000001c 	andeq	r0, r0, ip, lsl r0
  84:	0bdf0002 	bleq	ff7c0094 <__bss_end__+0xff7b6afc>
  88:	00040000 	andeq	r0, r4, r0
  8c:	00000000 	andeq	r0, r0, r0
  90:	000083e0 	andeq	r8, r0, r0, ror #7
  94:	0000003c 	andeq	r0, r0, ip, lsr r0
	...
  a0:	0000001c 	andeq	r0, r0, ip, lsl r0
  a4:	0d000002 	stceq	0, cr0, [r0, #-8]
  a8:	00040000 	andeq	r0, r4, r0
  ac:	00000000 	andeq	r0, r0, r0
  b0:	0000841c 	andeq	r8, r0, ip, lsl r4
  b4:	00000748 	andeq	r0, r0, r8, asr #14
	...
  c0:	0000001c 	andeq	r0, r0, ip, lsl r0
  c4:	177b0002 	ldrbne	r0, [fp, -r2]!
  c8:	00040000 	andeq	r0, r4, r0
  cc:	00000000 	andeq	r0, r0, r0
  d0:	00008b64 	andeq	r8, r0, r4, ror #22
  d4:	0000002c 	andeq	r0, r0, ip, lsr #32
	...
  e0:	0000001c 	andeq	r0, r0, ip, lsl r0
  e4:	188d0002 	stmne	sp, {r1}
  e8:	00040000 	andeq	r0, r4, r0
  ec:	00000000 	andeq	r0, r0, r0
  f0:	00008b90 	muleq	r0, r0, fp
  f4:	00000040 	andeq	r0, r0, r0, asr #32
	...
 100:	0000001c 	andeq	r0, r0, ip, lsl r0
 104:	19cd0002 	stmibne	sp, {r1}^
 108:	00040000 	andeq	r0, r4, r0
 10c:	00000000 	andeq	r0, r0, r0
 110:	00008bd0 	ldrdeq	r8, [r0], -r0
 114:	00000020 	andeq	r0, r0, r0, lsr #32
	...
 120:	0000001c 	andeq	r0, r0, ip, lsl r0
 124:	1a8e0002 	bne	fe380134 <__bss_end__+0xfe376b9c>
 128:	00040000 	andeq	r0, r4, r0
 12c:	00000000 	andeq	r0, r0, r0
 130:	00008bf0 	strdeq	r8, [r0], -r0
 134:	00000080 	andeq	r0, r0, r0, lsl #1
	...
 140:	0000001c 	andeq	r0, r0, ip, lsl r0
 144:	1c7b0002 	ldclne	0, cr0, [fp], #-8
 148:	00040000 	andeq	r0, r4, r0
 14c:	00000000 	andeq	r0, r0, r0
 150:	00008c70 	andeq	r8, r0, r0, ror ip
 154:	00000004 	andeq	r0, r0, r4
	...
 160:	0000001c 	andeq	r0, r0, ip, lsl r0
 164:	1d000002 	stcne	0, cr0, [r0, #-8]
 168:	00040000 	andeq	r0, r4, r0
 16c:	00000000 	andeq	r0, r0, r0
 170:	00008c74 	andeq	r8, r0, r4, ror ip
 174:	00000004 	andeq	r0, r0, r4
	...
 180:	0000001c 	andeq	r0, r0, ip, lsl r0
 184:	1d850002 	stcne	0, cr0, [r5, #8]
 188:	00040000 	andeq	r0, r4, r0
 18c:	00000000 	andeq	r0, r0, r0
 190:	00008c78 	andeq	r8, r0, r8, ror ip
 194:	00000084 	andeq	r0, r0, r4, lsl #1
	...
 1a0:	0000001c 	andeq	r0, r0, ip, lsl r0
 1a4:	1f890002 	svcne	0x00890002
 1a8:	00040000 	andeq	r0, r4, r0
 1ac:	00000000 	andeq	r0, r0, r0
 1b0:	00008cfc 	strdeq	r8, [r0], -ip
 1b4:	000001f0 	strdeq	r0, [r0], -r0	; <UNPREDICTABLE>
	...
 1c0:	0000001c 	andeq	r0, r0, ip, lsl r0
 1c4:	255a0002 	ldrbcs	r0, [sl, #-2]
 1c8:	00040000 	andeq	r0, r4, r0
 1cc:	00000000 	andeq	r0, r0, r0
 1d0:	00008eec 	andeq	r8, r0, ip, ror #29
 1d4:	00000020 	andeq	r0, r0, r0, lsr #32
	...
 1e0:	0000001c 	andeq	r0, r0, ip, lsl r0
 1e4:	262b0002 	strtcs	r0, [fp], -r2
 1e8:	00040000 	andeq	r0, r4, r0
 1ec:	00000000 	andeq	r0, r0, r0
 1f0:	00008f0c 	andeq	r8, r0, ip, lsl #30
 1f4:	00000034 	andeq	r0, r0, r4, lsr r0
	...
 200:	0000001c 	andeq	r0, r0, ip, lsl r0
 204:	27240002 	strcs	r0, [r4, -r2]!
 208:	00040000 	andeq	r0, r4, r0
 20c:	00000000 	andeq	r0, r0, r0
 210:	00008f40 	andeq	r8, r0, r0, asr #30
 214:	00000030 	andeq	r0, r0, r0, lsr r0
	...
 220:	0000001c 	andeq	r0, r0, ip, lsl r0
 224:	27dd0002 	ldrbcs	r0, [sp, r2]
 228:	00040000 	andeq	r0, r4, r0
 22c:	00000000 	andeq	r0, r0, r0
 230:	00008f70 	andeq	r8, r0, r0, ror pc
 234:	0000002c 	andeq	r0, r0, ip, lsr #32
	...

Disassembly of section .debug_ranges:

00000000 <.debug_ranges>:
   0:	00000100 	andeq	r0, r0, r0, lsl #2
   4:	00000184 	andeq	r0, r0, r4, lsl #3
   8:	00000184 	andeq	r0, r0, r4, lsl #3
   c:	000001ac 	andeq	r0, r0, ip, lsr #3
	...
  18:	00000108 	andeq	r0, r0, r8, lsl #2
  1c:	00000178 	andeq	r0, r0, r8, ror r1
  20:	00000184 	andeq	r0, r0, r4, lsl #3
  24:	00000184 	andeq	r0, r0, r4, lsl #3
  28:	00000184 	andeq	r0, r0, r4, lsl #3
  2c:	000001ac 	andeq	r0, r0, ip, lsr #3
	...
  38:	00000108 	andeq	r0, r0, r8, lsl #2
  3c:	00000178 	andeq	r0, r0, r8, ror r1
  40:	0000019c 	muleq	r0, ip, r1
  44:	000001ac 	andeq	r0, r0, ip, lsr #3
	...
  50:	00000108 	andeq	r0, r0, r8, lsl #2
  54:	00000178 	andeq	r0, r0, r8, ror r1
  58:	0000019c 	muleq	r0, ip, r1
  5c:	000001a0 	andeq	r0, r0, r0, lsr #3
  60:	000001a8 	andeq	r0, r0, r8, lsr #3
  64:	000001ac 	andeq	r0, r0, ip, lsr #3
	...
  70:	00000108 	andeq	r0, r0, r8, lsl #2
  74:	0000012c 	andeq	r0, r0, ip, lsr #2
  78:	00000130 	andeq	r0, r0, r0, lsr r1
  7c:	00000134 	andeq	r0, r0, r4, lsr r1
  80:	00000140 	andeq	r0, r0, r0, asr #2
  84:	00000178 	andeq	r0, r0, r8, ror r1
	...
  90:	00008bd0 	ldrdeq	r8, [r0], -r0
  94:	00008bf0 	strdeq	r8, [r0], -r0
	...
  a0:	00008bf0 	strdeq	r8, [r0], -r0
  a4:	00008c70 	andeq	r8, r0, r0, ror ip
	...
  b0:	00008f70 	andeq	r8, r0, r0, ror pc
  b4:	00008f9c 	muleq	r0, ip, pc	; <UNPREDICTABLE>
	...

Disassembly of section .debug_line:

00000000 <.debug_line>:
       0:	000002d2 	ldrdeq	r0, [r0], -r2
       4:	008e0003 	addeq	r0, lr, r3
       8:	01020000 	mrseq	r0, (UNDEF: 2)
       c:	000d0efb 	strdeq	r0, [sp], -fp
      10:	01010101 	tsteq	r1, r1, lsl #2
      14:	01000000 	mrseq	r0, (UNDEF: 0)
      18:	2f010000 	svccs	0x00010000
      1c:	656d6f68 	strbvs	r6, [sp, #-3944]!	; 0xfffff098
      20:	7261702f 	rsbvc	r7, r1, #47	; 0x2f
      24:	76696874 			; <UNDEFINED> instruction: 0x76696874
      28:	636f442f 	cmnvs	pc, #788529152	; 0x2f000000
      2c:	6e656d75 	mcrvs	13, 3, r6, cr5, cr5, {3}
      30:	632f7374 			; <UNDEFINED> instruction: 0x632f7374
      34:	30343273 	eorscc	r3, r4, r3, ror r2
      38:	632f786c 			; <UNDEFINED> instruction: 0x632f786c
      3c:	30343273 	eorscc	r3, r4, r3, ror r2
      40:	6c2f786c 	stcvs	8, cr7, [pc], #-432	; fffffe98 <__bss_end__+0xffff6900>
      44:	69706269 	ldmdbvs	r0!, {r0, r3, r5, r6, r9, sp, lr}^
      48:	636e692f 	cmnvs	lr, #770048	; 0xbc000
      4c:	6564756c 	strbvs	r7, [r4, #-1388]!	; 0xfffffa94
      50:	63730000 	cmnvs	r3, #0
      54:	2e65706f 	cdpcs	0, 6, cr7, cr5, cr15, {3}
      58:	00000063 	andeq	r0, r0, r3, rrx
      5c:	6d617300 	stclvs	3, cr7, [r1, #-0]
      60:	73656c70 	cmnvc	r5, #112, 24	; 0x7000
      64:	0000682e 	andeq	r6, r0, lr, lsr #16
      68:	79630000 	stmdbvc	r3!, {}^	; <UNPREDICTABLE>
      6c:	2e656c63 	cdpcs	12, 6, cr6, cr5, cr3, {3}
      70:	00000068 	andeq	r0, r0, r8, rrx
      74:	69707200 	ldmdbvs	r0!, {r9, ip, sp, lr}^
      78:	0100682e 	tsteq	r0, lr, lsr #16
      7c:	70670000 	rsbvc	r0, r7, r0
      80:	682e6f69 	stmdavs	lr!, {r0, r3, r5, r6, r8, r9, sl, fp, sp, lr}
      84:	00000100 	andeq	r0, r0, r0, lsl #2
      88:	706f6373 	rsbvc	r6, pc, r3, ror r3	; <UNPREDICTABLE>
      8c:	73612d65 	cmnvc	r1, #6464	; 0x1940
      90:	00682e6d 	rsbeq	r2, r8, sp, ror #28
      94:	00000000 	andeq	r0, r0, r0
      98:	05004805 	streq	r4, [r0, #-2053]	; 0xfffff7fb
      9c:	00803802 	addeq	r3, r0, r2, lsl #16
      a0:	01180300 	tsteq	r8, r0, lsl #6
      a4:	05050106 	streq	r0, [r5, #-262]	; 0xfffffefa
      a8:	17056706 	strne	r6, [r5, -r6, lsl #14]
      ac:	052e0106 	streq	r0, [lr, #-262]!	; 0xfffffefa
      b0:	05310605 	ldreq	r0, [r1, #-1541]!	; 0xfffff9fb
      b4:	04020009 	streq	r0, [r2], #-9
      b8:	0a051301 	beq	144cc4 <__bss_end__+0x13b72c>
      bc:	01040200 	mrseq	r0, R12_usr
      c0:	00110511 	andseq	r0, r1, r1, lsl r5
      c4:	06010402 	streq	r0, [r1], -r2, lsl #8
      c8:	000a0501 	andeq	r0, sl, r1, lsl #10
      cc:	4a010402 	bmi	410dc <__bss_end__+0x37b44>
      d0:	4d060505 	cfstr32mi	mvfx0, [r6, #-20]	; 0xffffffec
      d4:	01011405 	tsteq	r1, r5, lsl #8
      d8:	0501062e 	streq	r0, [r1, #-1582]	; 0xfffff9d2
      dc:	05130605 	ldreq	r0, [r3, #-1541]	; 0xfffff9fb
      e0:	2e010114 	mcrcs	1, 0, r0, cr1, cr4, {0}
      e4:	05050106 	streq	r0, [r5, #-262]	; 0xfffffefa
      e8:	05151306 	ldreq	r1, [r5, #-774]	; 0xfffffcfa
      ec:	2e010116 	mcrcs	1, 0, r0, cr1, cr6, {0}
      f0:	05050106 	streq	r0, [r5, #-262]	; 0xfffffefa
      f4:	30181506 	andscc	r1, r8, r6, lsl #10
      f8:	01061605 	tsteq	r6, r5, lsl #12
      fc:	052e1405 	streq	r1, [lr, #-1029]!	; 0xfffffbfb
     100:	052f0605 	streq	r0, [pc, #-1541]!	; fffffb03 <__bss_end__+0xffff656b>
     104:	05010616 	streq	r0, [r1, #-1558]	; 0xfffff9ea
     108:	05052e14 	streq	r2, [r5, #-3604]	; 0xfffff1ec
     10c:	16052f06 	strne	r2, [r5], -r6, lsl #30
     110:	14050106 	strne	r0, [r5], #-262	; 0xfffffefa
     114:	0605052e 	streq	r0, [r5], -lr, lsr #10
     118:	0616052f 	ldreq	r0, [r6], -pc, lsr #10
     11c:	2e140501 	cfmul32cs	mvfx0, mvfx4, mvfx1
     120:	2f060505 	svccs	0x00060505
     124:	01061605 	tsteq	r6, r5, lsl #12
     128:	052e1405 	streq	r1, [lr, #-1029]!	; 0xfffffbfb
     12c:	052f0605 	streq	r0, [pc, #-1541]!	; fffffb2f <__bss_end__+0xffff6597>
     130:	05010616 	streq	r0, [r1, #-1558]	; 0xfffff9ea
     134:	05052e14 	streq	r2, [r5, #-3604]	; 0xfffff1ec
     138:	16052f06 	strne	r2, [r5], -r6, lsl #30
     13c:	14050106 	strne	r0, [r5], #-262	; 0xfffffefa
     140:	0605052e 	streq	r0, [r5], -lr, lsr #10
     144:	0616052f 	ldreq	r0, [r6], -pc, lsr #10
     148:	2e140501 	cfmul32cs	mvfx0, mvfx4, mvfx1
     14c:	2f060505 	svccs	0x00060505
     150:	01061605 	tsteq	r6, r5, lsl #12
     154:	052e1405 	streq	r1, [lr, #-1029]!	; 0xfffffbfb
     158:	052f0605 	streq	r0, [pc, #-1541]!	; fffffb5b <__bss_end__+0xffff65c3>
     15c:	05010616 	streq	r0, [r1, #-1558]	; 0xfffff9ea
     160:	05052e14 	streq	r2, [r5, #-3604]	; 0xfffff1ec
     164:	16052f06 	strne	r2, [r5], -r6, lsl #30
     168:	14050106 	strne	r0, [r5], #-262	; 0xfffffefa
     16c:	0605052e 	streq	r0, [r5], -lr, lsr #10
     170:	06140530 			; <UNDEFINED> instruction: 0x06140530
     174:	2e1d0501 	cfmul32cs	mvfx0, mvfx13, mvfx1
     178:	052e3605 	streq	r3, [lr, #-1541]!	; 0xfffff9fb
     17c:	054c0605 	strbeq	r0, [ip, #-1541]	; 0xfffff9fb
     180:	0e05010a 	adfeqs	f0, f5, #2.0
     184:	05050106 	streq	r0, [r5, #-262]	; 0xfffffefa
     188:	0009052e 	andeq	r0, r9, lr, lsr #10
     18c:	06030402 	streq	r0, [r3], -r2, lsl #8
     190:	0016052f 	andseq	r0, r6, pc, lsr #10
     194:	06030402 	streq	r0, [r3], -r2, lsl #8
     198:	001f0501 	andseq	r0, pc, r1, lsl #10
     19c:	2e030402 	cdpcs	4, 0, cr0, cr3, cr2, {0}
     1a0:	02001605 	andeq	r1, r0, #5242880	; 0x500000
     1a4:	052e0304 	streq	r0, [lr, #-772]!	; 0xfffffcfc
     1a8:	04020009 	streq	r0, [r2], #-9
     1ac:	05670603 	strbeq	r0, [r7, #-1539]!	; 0xfffff9fd
     1b0:	04020010 	streq	r0, [r2], #-16
     1b4:	05010603 	streq	r0, [r1, #-1539]	; 0xfffff9fd
     1b8:	04020009 	streq	r0, [r2], #-9
     1bc:	052f0603 	streq	r0, [pc, #-1539]!	; fffffbc1 <__bss_end__+0xffff6629>
     1c0:	0402000c 	streq	r0, [r2], #-12
     1c4:	05010603 	streq	r0, [r1, #-1539]	; 0xfffff9fd
     1c8:	0402001c 	streq	r0, [r2], #-28	; 0xffffffe4
     1cc:	052b0603 	streq	r0, [fp, #-1539]!	; 0xfffff9fd
     1d0:	0402001d 	streq	r0, [r2], #-29	; 0xffffffe3
     1d4:	05010603 	streq	r0, [r1, #-1539]	; 0xfffff9fd
     1d8:	04020015 	streq	r0, [r2], #-21	; 0xffffffeb
     1dc:	052e0601 	streq	r0, [lr, #-1537]!	; 0xfffff9ff
     1e0:	04020005 	streq	r0, [r2], #-5
     1e4:	00010601 	andeq	r0, r1, r1, lsl #12
     1e8:	4a010402 	bmi	411f8 <__bss_end__+0x37c60>
     1ec:	05681806 	strbeq	r1, [r8, #-2054]!	; 0xfffff7fa
     1f0:	05130601 	ldreq	r0, [r3, #-1537]	; 0xfffff9ff
     1f4:	05680614 	strbeq	r0, [r8, #-1556]!	; 0xfffff9ec
     1f8:	4b134c05 	blmi	4d3214 <__bss_end__+0x4c9c7c>
     1fc:	4a010131 	bmi	406c8 <__bss_end__+0x37130>
     200:	09051915 	stmdbeq	r5, {r0, r2, r4, r8, fp, ip}
     204:	060d0501 	streq	r0, [sp], -r1, lsl #10
     208:	2e050501 	cfsh32cs	mvfx0, mvfx5, #1
     20c:	2e050204 	cdpcs	2, 0, cr0, cr5, cr4, {0}
     210:	2e7fbf03 	cdpcs	15, 7, cr11, cr15, cr3, {0}
     214:	2f060905 	svccs	0x00060905
     218:	01061105 	tsteq	r6, r5, lsl #2
     21c:	30060905 	andcc	r0, r6, r5, lsl #18
     220:	054a9e06 	strbeq	r9, [sl, #-3590]	; 0xfffff1fa
     224:	7503061d 	strvc	r0, [r3, #-1565]	; 0xfffff9e3
     228:	061e0501 	ldreq	r0, [lr], -r1, lsl #10
     22c:	330e0501 	movwcc	r0, #58625	; 0xe501
     230:	0614052e 	ldreq	r0, [r4], -lr, lsr #10
     234:	0619050d 	ldreq	r0, [r9], -sp, lsl #10
     238:	2e050501 	cfsh32cs	mvfx0, mvfx5, #1
     23c:	4b060905 	blmi	182658 <__bss_end__+0x1790c0>
     240:	01061a05 	tsteq	r6, r5, lsl #20
     244:	052e1405 	streq	r1, [lr, #-1029]!	; 0xfffffbfb
     248:	054c0609 	strbeq	r0, [ip, #-1545]	; 0xfffff9f7
     24c:	05010612 	streq	r0, [r1, #-1554]	; 0xfffff9ee
     250:	052f0609 	streq	r0, [pc, #-1545]!	; fffffc4f <__bss_end__+0xffff66b7>
     254:	0501060e 	streq	r0, [r1, #-1550]	; 0xfffff9f2
     258:	142f0609 	strtne	r0, [pc], #-1545	; 260 <__code_start__-0x7da0>
     25c:	01062305 	tsteq	r6, r5, lsl #6
     260:	2e2e1205 	cdpcs	2, 2, cr1, cr14, cr5, {0}
     264:	67060905 	strvs	r0, [r6, -r5, lsl #18]
     268:	01062e05 	tsteq	r6, r5, lsl #28
     26c:	06050582 	streq	r0, [r5], -r2, lsl #11
     270:	04010617 	streq	r0, [r1], #-1559	; 0xfffff9e9
     274:	061b0501 	ldreq	r0, [fp], -r1, lsl #10
     278:	05013c03 	streq	r3, [r1, #-3075]	; 0xfffff3fd
     27c:	0501061c 	streq	r0, [r1, #-1564]	; 0xfffff9e4
     280:	04020014 	streq	r0, [r2], #-20	; 0xffffffec
     284:	052e0601 	streq	r0, [lr, #-1537]!	; 0xfffff9ff
     288:	04020005 	streq	r0, [r2], #-5
     28c:	05010601 	streq	r0, [r1, #-1537]	; 0xfffff9ff
     290:	064b0609 	strbeq	r0, [fp], -r9, lsl #12
     294:	05030401 	streq	r0, [r3, #-1025]	; 0xfffffbff
     298:	ae030605 	cfmadd32ge	mvax0, mvfx0, mvfx3, mvfx5
     29c:	040f017f 	streq	r0, [pc], #-383	; 2a4 <__code_start__-0x7d5c>
     2a0:	06160501 	ldreq	r0, [r6], -r1, lsl #10
     2a4:	0100d503 	tsteq	r0, r3, lsl #10
     2a8:	bb060905 	bllt	1826c4 <__bss_end__+0x17912c>
     2ac:	01050204 	tsteq	r5, r4, lsl #4
     2b0:	017fb103 	cmneq	pc, r3, lsl #2
     2b4:	14130505 	ldrne	r0, [r3], #-1285	; 0xfffffafb
     2b8:	01090513 	tsteq	r9, r3, lsl r5
     2bc:	01060d05 	tsteq	r6, r5, lsl #26
     2c0:	052d0e05 	streq	r0, [sp, #-3589]!	; 0xfffff1fb
     2c4:	05052c17 	streq	r2, [r5, #-3095]	; 0xfffff3e9
     2c8:	01042e31 	tsteq	r4, r1, lsr lr
     2cc:	00cd0306 	sbceq	r0, sp, r6, lsl #6
     2d0:	00060201 	andeq	r0, r6, r1, lsl #4
     2d4:	01c50101 	biceq	r0, r5, r1, lsl #2
     2d8:	00030000 	andeq	r0, r3, r0
     2dc:	000000c9 	andeq	r0, r0, r9, asr #1
     2e0:	0efb0102 	cdpeq	1, 15, cr0, cr11, cr2, {0}
     2e4:	0101000d 	tsteq	r1, sp
     2e8:	00000101 	andeq	r0, r0, r1, lsl #2
     2ec:	00000100 	andeq	r0, r0, r0, lsl #2
     2f0:	732f2e01 			; <UNDEFINED> instruction: 0x732f2e01
     2f4:	2f006372 	svccs	0x00006372
     2f8:	656d6f68 	strbvs	r6, [sp, #-3944]!	; 0xfffff098
     2fc:	7261702f 	rsbvc	r7, r1, #47	; 0x2f
     300:	76696874 			; <UNDEFINED> instruction: 0x76696874
     304:	636f442f 	cmnvs	pc, #788529152	; 0x2f000000
     308:	6e656d75 	mcrvs	13, 3, r6, cr5, cr5, {3}
     30c:	632f7374 			; <UNDEFINED> instruction: 0x632f7374
     310:	30343273 	eorscc	r3, r4, r3, ror r2
     314:	632f786c 			; <UNDEFINED> instruction: 0x632f786c
     318:	30343273 	eorscc	r3, r4, r3, ror r2
     31c:	6c2f786c 	stcvs	8, cr7, [pc], #-432	; 174 <__code_start__-0x7e8c>
     320:	69706269 	ldmdbvs	r0!, {r0, r3, r5, r6, r9, sp, lr}^
     324:	636e692f 	cmnvs	lr, #770048	; 0xbc000
     328:	6564756c 	strbvs	r7, [r4, #-1388]!	; 0xfffffa94
     32c:	73752f00 	cmnvc	r5, #0, 30
     330:	706f2f72 	rsbvc	r2, pc, r2, ror pc	; <UNPREDICTABLE>
     334:	63672f74 	cmnvs	r7, #116, 30	; 0x1d0
     338:	72612d63 	rsbvc	r2, r1, #6336	; 0x18c0
     33c:	6f6e2d6d 	svcvs	0x006e2d6d
     340:	652d656e 	strvs	r6, [sp, #-1390]!	; 0xfffffa92
     344:	2d696261 	sfmcs	f6, 2, [r9, #-388]!	; 0xfffffe7c
     348:	332e3031 			; <UNDEFINED> instruction: 0x332e3031
     34c:	3230322d 	eorscc	r3, r0, #-805306366	; 0xd0000002
     350:	30312e31 	eorscc	r2, r1, r1, lsr lr
     354:	62696c2f 	rsbvs	r6, r9, #12032	; 0x2f00
     358:	6363672f 	cmnvs	r3, #12320768	; 0xbc0000
     35c:	6d72612f 	ldfvse	f6, [r2, #-188]!	; 0xffffff44
     360:	6e6f6e2d 	cdpvs	14, 6, cr6, cr15, cr13, {1}
     364:	61652d65 	cmnvs	r5, r5, ror #26
     368:	312f6962 			; <UNDEFINED> instruction: 0x312f6962
     36c:	2e332e30 	mrccs	14, 1, r2, cr3, cr0, {1}
     370:	6e692f31 	mcrvs	15, 3, r2, cr9, cr1, {1}
     374:	64756c63 	ldrbtvs	r6, [r5], #-3171	; 0xfffff39d
     378:	67000065 	strvs	r0, [r0, -r5, rrx]
     37c:	2e6f6970 			; <UNDEFINED> instruction: 0x2e6f6970
     380:	00010063 	andeq	r0, r1, r3, rrx
     384:	69707200 	ldmdbvs	r0!, {r9, ip, sp, lr}^
     388:	0200682e 	andeq	r6, r0, #3014656	; 0x2e0000
     38c:	74730000 	ldrbtvc	r0, [r3], #-0
     390:	746e6964 	strbtvc	r6, [lr], #-2404	; 0xfffff69c
     394:	6363672d 	cmnvs	r3, #11796480	; 0xb40000
     398:	0300682e 	movweq	r6, #2094	; 0x82e
     39c:	70670000 	rsbvc	r0, r7, r0
     3a0:	682e6f69 	stmdavs	lr!, {r0, r3, r5, r6, r8, r9, sl, fp, sp, lr}
     3a4:	00000200 	andeq	r0, r0, r0, lsl #4
     3a8:	00380500 	eorseq	r0, r8, r0, lsl #10
     3ac:	82380205 	eorshi	r0, r8, #1342177280	; 0x50000000
     3b0:	27030000 	strcs	r0, [r3, -r0]
     3b4:	13050501 	movwne	r0, #21761	; 0x5501
     3b8:	01060705 	tsteq	r6, r5, lsl #14
     3bc:	05493805 	strbeq	r3, [r9, #-2053]	; 0xfffff7fb
     3c0:	054d0605 	strbeq	r0, [sp, #-1541]	; 0xfffff9fb
     3c4:	05010607 	streq	r0, [r1, #-1543]	; 0xfffff9f9
     3c8:	054c0605 	strbeq	r0, [ip, #-1541]	; 0xfffff9fb
     3cc:	05010618 	streq	r0, [r1, #-1560]	; 0xfffff9e8
     3d0:	0505ba0e 	streq	fp, [r5, #-2574]	; 0xfffff5f2
     3d4:	1c052f06 	stcne	15, cr2, [r5], {6}
     3d8:	052e0106 	streq	r0, [lr, #-262]!	; 0xfffffefa
     3dc:	05052e0e 	streq	r2, [r5, #-3598]	; 0xfffff1f2
     3e0:	12053006 	andne	r3, r5, #6
     3e4:	05050106 	streq	r0, [r5, #-262]	; 0xfffffefa
     3e8:	07054b06 	streq	r4, [r5, -r6, lsl #22]
     3ec:	05050106 	streq	r0, [r5, #-262]	; 0xfffffefa
     3f0:	06134b06 	ldreq	r4, [r3], -r6, lsl #22
     3f4:	4b01052e 	blmi	418b4 <__bss_end__+0x3831c>
     3f8:	4c062405 	cfstrsmi	mvf2, [r6], {5}
     3fc:	05050106 	streq	r0, [r5, #-262]	; 0xfffffefa
     400:	01052f06 	tsteq	r5, r6, lsl #30
     404:	20054b06 	andcs	r4, r5, r6, lsl #22
     408:	05053106 	streq	r3, [r5, #-262]	; 0xfffffefa
     40c:	06070513 			; <UNDEFINED> instruction: 0x06070513
     410:	49200501 	stmdbmi	r0!, {r0, r8, sl}
     414:	31060505 	tstcc	r6, r5, lsl #10
     418:	01056606 	tsteq	r5, r6, lsl #12
     41c:	0621052f 	strteq	r0, [r1], -pc, lsr #10
     420:	1305054d 	movwne	r0, #21837	; 0x554d
     424:	01060705 	tsteq	r6, r5, lsl #14
     428:	05492105 	strbeq	r2, [r9, #-261]	; 0xfffffefb
     42c:	06310605 	ldrteq	r0, [r1], -r5, lsl #12
     430:	2f010566 	svccs	0x00010566
     434:	4d062305 	stcmi	3, cr2, [r6, #-20]	; 0xffffffec
     438:	05050106 	streq	r0, [r5, #-262]	; 0xfffffefa
     43c:	01052f06 	tsteq	r5, r6, lsl #30
     440:	2b054b06 	blcs	153060 <__bss_end__+0x149ac8>
     444:	01063106 	tsteq	r6, r6, lsl #2
     448:	2f060505 	svccs	0x00060505
     44c:	01060705 	tsteq	r6, r5, lsl #14
     450:	4b060905 	blmi	18286c <__bss_end__+0x1792d4>
     454:	30062e06 	andcc	r2, r6, r6, lsl #28
     458:	2f060105 	svccs	0x00060105
     45c:	30061d05 	andcc	r1, r6, r5, lsl #26
     460:	05130505 	ldreq	r0, [r3, #-1285]	; 0xfffffafb
     464:	05010607 	streq	r0, [r1, #-1543]	; 0xfffff9f9
     468:	0505491d 	streq	r4, [r5, #-2333]	; 0xfffff6e3
     46c:	05133106 	ldreq	r3, [r3, #-262]	; 0xfffffefa
     470:	0501060e 	streq	r0, [r1, #-1550]	; 0xfffff9f2
     474:	052f0605 	streq	r0, [pc, #-1541]!	; fffffe77 <__bss_end__+0xffff68df>
     478:	4a010617 	bmi	41cdc <__bss_end__+0x38744>
     47c:	042e2305 	strteq	r2, [lr], #-773	; 0xfffffcfb
     480:	06300502 	ldrteq	r0, [r0], -r2, lsl #10
     484:	2e00d703 	cdpcs	7, 0, cr13, cr0, cr3, {0}
     488:	0c050104 	stfeqs	f0, [r5], {4}
     48c:	7fa90306 	svcvc	0x00a90306
     490:	2f010501 	svccs	0x00010501
     494:	052a1005 	streq	r1, [sl, #-5]!
     498:	04023201 	streq	r3, [r2], #-513	; 0xfffffdff
     49c:	0d010100 	stfeqs	f0, [r1, #-0]
     4a0:	03000001 	movweq	r0, #1
     4a4:	0000db00 	andeq	sp, r0, r0, lsl #22
     4a8:	fb010200 	blx	40cb2 <__bss_end__+0x3771a>
     4ac:	01000d0e 	tsteq	r0, lr, lsl #26
     4b0:	00010101 	andeq	r0, r1, r1, lsl #2
     4b4:	00010000 	andeq	r0, r1, r0
     4b8:	2f2e0100 	svccs	0x002e0100
     4bc:	6362696c 	cmnvs	r2, #108, 18	; 0x1b0000
     4c0:	73752f00 	cmnvc	r5, #0, 30
     4c4:	706f2f72 	rsbvc	r2, pc, r2, ror pc	; <UNPREDICTABLE>
     4c8:	63672f74 	cmnvs	r7, #116, 30	; 0x1d0
     4cc:	72612d63 	rsbvc	r2, r1, #6336	; 0x18c0
     4d0:	6f6e2d6d 	svcvs	0x006e2d6d
     4d4:	652d656e 	strvs	r6, [sp, #-1390]!	; 0xfffffa92
     4d8:	2d696261 	sfmcs	f6, 2, [r9, #-388]!	; 0xfffffe7c
     4dc:	332e3031 			; <UNDEFINED> instruction: 0x332e3031
     4e0:	3230322d 	eorscc	r3, r0, #-805306366	; 0xd0000002
     4e4:	30312e31 	eorscc	r2, r1, r1, lsr lr
     4e8:	62696c2f 	rsbvs	r6, r9, #12032	; 0x2f00
     4ec:	6363672f 	cmnvs	r3, #12320768	; 0xbc0000
     4f0:	6d72612f 	ldfvse	f6, [r2, #-188]!	; 0xffffff44
     4f4:	6e6f6e2d 	cdpvs	14, 6, cr6, cr15, cr13, {1}
     4f8:	61652d65 	cmnvs	r5, r5, ror #26
     4fc:	312f6962 			; <UNDEFINED> instruction: 0x312f6962
     500:	2e332e30 	mrccs	14, 1, r2, cr3, cr0, {1}
     504:	6e692f31 	mcrvs	15, 3, r2, cr9, cr1, {1}
     508:	64756c63 	ldrbtvs	r6, [r5], #-3171	; 0xfffff39d
     50c:	682f0065 	stmdavs	pc!, {r0, r2, r5, r6}	; <UNPREDICTABLE>
     510:	2f656d6f 	svccs	0x00656d6f
     514:	74726170 	ldrbtvc	r6, [r2], #-368	; 0xfffffe90
     518:	2f766968 	svccs	0x00766968
     51c:	75636f44 	strbvc	r6, [r3, #-3908]!	; 0xfffff0bc
     520:	746e656d 	strbtvc	r6, [lr], #-1389	; 0xfffffa93
     524:	73632f73 	cmnvc	r3, #460	; 0x1cc
     528:	6c303432 	cfldrsvs	mvf3, [r0], #-200	; 0xffffff38
     52c:	73632f78 	cmnvc	r3, #120, 30	; 0x1e0
     530:	6c303432 	cfldrsvs	mvf3, [r0], #-200	; 0xffffff38
     534:	696c2f78 	stmdbvs	ip!, {r3, r4, r5, r6, r8, r9, sl, fp, sp}^
     538:	2f697062 	svccs	0x00697062
     53c:	6c636e69 	stclvs	14, cr6, [r3], #-420	; 0xfffffe5c
     540:	00656475 	rsbeq	r6, r5, r5, ror r4
     544:	69727000 	ldmdbvs	r2!, {ip, sp, lr}^
     548:	2e6b746e 	cdpcs	4, 6, cr7, cr11, cr14, {3}
     54c:	00010063 	andeq	r0, r1, r3, rrx
     550:	64747300 	ldrbtvs	r7, [r4], #-768	; 0xfffffd00
     554:	2e677261 	cdpcs	2, 6, cr7, cr7, cr1, {3}
     558:	00020068 	andeq	r0, r2, r8, rrx
     55c:	75623c00 	strbvc	r3, [r2, #-3072]!	; 0xfffff400
     560:	2d746c69 	ldclcs	12, cr6, [r4, #-420]!	; 0xfffffe5c
     564:	003e6e69 	eorseq	r6, lr, r9, ror #28
     568:	72000000 	andvc	r0, r0, #0
     56c:	682e6970 	stmdavs	lr!, {r4, r5, r6, r8, fp, sp, lr}
     570:	00000300 	andeq	r0, r0, r0, lsl #6
     574:	702d6176 	eorvc	r6, sp, r6, ror r1
     578:	746e6972 	strbtvc	r6, [lr], #-2418	; 0xfffff68e
     57c:	00682e6b 	rsbeq	r2, r8, fp, ror #28
     580:	00000001 	andeq	r0, r0, r1
     584:	05002205 	streq	r2, [r0, #-517]	; 0xfffffdfb
     588:	00835402 	addeq	r5, r3, r2, lsl #8
     58c:	01061700 	tsteq	r6, r0, lsl #14
     590:	68060505 	stmdavs	r6, {r0, r2, r8, sl}
     594:	09051413 	stmdbeq	r5, {r0, r1, r4, sl, ip}
     598:	0612054b 	ldreq	r0, [r2], -fp, asr #10
     59c:	06050501 	streq	r0, [r5], -r1, lsl #10
     5a0:	660616bb 			; <UNDEFINED> instruction: 0x660616bb
     5a4:	01053406 	tsteq	r5, r6, lsl #8
     5a8:	02661306 	rsbeq	r1, r6, #402653184	; 0x18000000
     5ac:	01010008 	tsteq	r1, r8
     5b0:	000000aa 	andeq	r0, r0, sl, lsr #1
     5b4:	00630003 	rsbeq	r0, r3, r3
     5b8:	01020000 	mrseq	r0, (UNDEF: 2)
     5bc:	000d0efb 	strdeq	r0, [sp], -fp
     5c0:	01010101 	tsteq	r1, r1, lsl #2
     5c4:	01000000 	mrseq	r0, (UNDEF: 0)
     5c8:	2e010000 	cdpcs	0, 0, cr0, cr1, cr0, {0}
     5cc:	62696c2f 	rsbvs	r6, r9, #12032	; 0x2f00
     5d0:	682f0063 	stmdavs	pc!, {r0, r1, r5, r6}	; <UNPREDICTABLE>
     5d4:	2f656d6f 	svccs	0x00656d6f
     5d8:	74726170 	ldrbtvc	r6, [r2], #-368	; 0xfffffe90
     5dc:	2f766968 	svccs	0x00766968
     5e0:	75636f44 	strbvc	r6, [r3, #-3908]!	; 0xfffff0bc
     5e4:	746e656d 	strbtvc	r6, [lr], #-1389	; 0xfffffa93
     5e8:	73632f73 	cmnvc	r3, #460	; 0x1cc
     5ec:	6c303432 	cfldrsvs	mvf3, [r0], #-200	; 0xffffff38
     5f0:	73632f78 	cmnvc	r3, #120, 30	; 0x1e0
     5f4:	6c303432 	cfldrsvs	mvf3, [r0], #-200	; 0xffffff38
     5f8:	696c2f78 	stmdbvs	ip!, {r3, r4, r5, r6, r8, r9, sl, fp, sp}^
     5fc:	2f697062 	svccs	0x00697062
     600:	6c636e69 	stclvs	14, cr6, [r3], #-420	; 0xfffffe5c
     604:	00656475 	rsbeq	r6, r5, r5, ror r4
     608:	74757000 	ldrbtvc	r7, [r5], #-0
     60c:	00632e6b 	rsbeq	r2, r3, fp, ror #28
     610:	72000001 	andvc	r0, r0, #1
     614:	682e6970 	stmdavs	lr!, {r4, r5, r6, r8, fp, sp, lr}
     618:	00000200 	andeq	r0, r0, r0, lsl #4
     61c:	00220500 	eoreq	r0, r2, r0, lsl #10
     620:	83ac0205 			; <UNDEFINED> instruction: 0x83ac0205
     624:	06150000 	ldreq	r0, [r5], -r0
     628:	06050501 	streq	r0, [r5], -r1, lsl #10
     62c:	0009054b 	andeq	r0, r9, fp, asr #10
     630:	2f020402 	svccs	0x00020402
     634:	02000f05 	andeq	r0, r0, #5, 30
     638:	05650204 	strbeq	r0, [r5, #-516]!	; 0xfffffdfc
     63c:	04020010 	streq	r0, [r2], #-16
     640:	05010602 	streq	r0, [r1, #-1538]	; 0xfffff9fe
     644:	0402000b 	streq	r0, [r2], #-11
     648:	052e0601 	streq	r0, [lr, #-1537]!	; 0xfffff9ff
     64c:	04020005 	streq	r0, [r2], #-5
     650:	062e0601 	strteq	r0, [lr], -r1, lsl #12
     654:	0601054e 	streq	r0, [r1], -lr, asr #10
     658:	00060213 	andeq	r0, r6, r3, lsl r2
     65c:	00a40101 	adceq	r0, r4, r1, lsl #2
     660:	00030000 	andeq	r0, r3, r0
     664:	00000066 	andeq	r0, r0, r6, rrx
     668:	0efb0102 	cdpeq	1, 15, cr0, cr11, cr2, {0}
     66c:	0101000d 	tsteq	r1, sp
     670:	00000101 	andeq	r0, r0, r1, lsl #2
     674:	00000100 	andeq	r0, r0, r0, lsl #2
     678:	6c2f2e01 	stcvs	14, cr2, [pc], #-4	; 67c <__code_start__-0x7984>
     67c:	00636269 	rsbeq	r6, r3, r9, ror #4
     680:	6d6f682f 	stclvs	8, cr6, [pc, #-188]!	; 5cc <__code_start__-0x7a34>
     684:	61702f65 	cmnvs	r0, r5, ror #30
     688:	69687472 	stmdbvs	r8!, {r1, r4, r5, r6, sl, ip, sp, lr}^
     68c:	6f442f76 	svcvs	0x00442f76
     690:	656d7563 	strbvs	r7, [sp, #-1379]!	; 0xfffffa9d
     694:	2f73746e 	svccs	0x0073746e
     698:	34327363 	ldrtcc	r7, [r2], #-867	; 0xfffffc9d
     69c:	2f786c30 	svccs	0x00786c30
     6a0:	34327363 	ldrtcc	r7, [r2], #-867	; 0xfffffc9d
     6a4:	2f786c30 	svccs	0x00786c30
     6a8:	7062696c 	rsbvc	r6, r2, ip, ror #18
     6ac:	6e692f69 	cdpvs	15, 6, cr2, cr9, cr9, {3}
     6b0:	64756c63 	ldrbtvs	r6, [r5], #-3171	; 0xfffff39d
     6b4:	70000065 	andvc	r0, r0, r5, rrx
     6b8:	68637475 	stmdavs	r3!, {r0, r2, r4, r5, r6, sl, ip, sp, lr}^
     6bc:	632e7261 			; <UNDEFINED> instruction: 0x632e7261
     6c0:	00000100 	andeq	r0, r0, r0, lsl #2
     6c4:	2e697072 	mcrcs	0, 3, r7, cr9, cr2, {3}
     6c8:	00020068 	andeq	r0, r2, r8, rrx
     6cc:	24050000 	strcs	r0, [r5], #-0
     6d0:	e0020500 	and	r0, r2, r0, lsl #10
     6d4:	14000083 	strne	r0, [r0], #-131	; 0xffffff7d
     6d8:	26050106 	strcs	r0, [r5], -r6, lsl #2
     6dc:	34054a06 	strcc	r4, [r5], #-2566	; 0xfffff5fa
     6e0:	063e052e 	ldrteq	r0, [lr], -lr, lsr #10
     6e4:	061b0501 	ldreq	r0, [fp], -r1, lsl #10
     6e8:	1305054f 	movwne	r0, #21839	; 0x554f
     6ec:	01061105 	tsteq	r6, r5, lsl #2
     6f0:	05670105 	strbeq	r0, [r7, #-261]!	; 0xfffffefb
     6f4:	05670623 	strbeq	r0, [r7, #-1571]!	; 0xfffff9dd
     6f8:	11051305 	tstne	r5, r5, lsl #6
     6fc:	01050106 	tsteq	r5, r6, lsl #2
     700:	0004024b 	andeq	r0, r4, fp, asr #4
     704:	05da0101 	ldrbeq	r0, [sl, #257]	; 0x101
     708:	00030000 	andeq	r0, r3, r0
     70c:	000000df 	ldrdeq	r0, [r0], -pc	; <UNPREDICTABLE>
     710:	0efb0102 	cdpeq	1, 15, cr0, cr11, cr2, {0}
     714:	0101000d 	tsteq	r1, sp
     718:	00000101 	andeq	r0, r0, r1, lsl #2
     71c:	00000100 	andeq	r0, r0, r0, lsl #2
     720:	6c2f2e01 	stcvs	14, cr2, [pc], #-4	; 724 <__code_start__-0x78dc>
     724:	00636269 	rsbeq	r6, r3, r9, ror #4
     728:	7273752f 	rsbsvc	r7, r3, #197132288	; 0xbc00000
     72c:	74706f2f 	ldrbtvc	r6, [r0], #-3887	; 0xfffff0d1
     730:	6363672f 	cmnvs	r3, #12320768	; 0xbc0000
     734:	6d72612d 	ldfvse	f6, [r2, #-180]!	; 0xffffff4c
     738:	6e6f6e2d 	cdpvs	14, 6, cr6, cr15, cr13, {1}
     73c:	61652d65 	cmnvs	r5, r5, ror #26
     740:	312d6962 			; <UNDEFINED> instruction: 0x312d6962
     744:	2d332e30 	ldccs	14, cr2, [r3, #-192]!	; 0xffffff40
     748:	31323032 	teqcc	r2, r2, lsr r0
     74c:	2f30312e 	svccs	0x0030312e
     750:	2f62696c 	svccs	0x0062696c
     754:	2f636367 	svccs	0x00636367
     758:	2d6d7261 	sfmcs	f7, 2, [sp, #-388]!	; 0xfffffe7c
     75c:	656e6f6e 	strbvs	r6, [lr, #-3950]!	; 0xfffff092
     760:	6261652d 	rsbvs	r6, r1, #188743680	; 0xb400000
     764:	30312f69 	eorscc	r2, r1, r9, ror #30
     768:	312e332e 			; <UNDEFINED> instruction: 0x312e332e
     76c:	636e692f 	cmnvs	lr, #770048	; 0xbc000
     770:	6564756c 	strbvs	r7, [r4, #-1388]!	; 0xfffffa94
     774:	6f682f00 	svcvs	0x00682f00
     778:	702f656d 	eorvc	r6, pc, sp, ror #10
     77c:	68747261 	ldmdavs	r4!, {r0, r5, r6, r9, ip, sp, lr}^
     780:	442f7669 	strtmi	r7, [pc], #-1641	; 788 <__code_start__-0x7878>
     784:	6d75636f 	ldclvs	3, cr6, [r5, #-444]!	; 0xfffffe44
     788:	73746e65 	cmnvc	r4, #1616	; 0x650
     78c:	3273632f 	rsbscc	r6, r3, #-1140850688	; 0xbc000000
     790:	786c3034 	stmdavc	ip!, {r2, r4, r5, ip, sp}^
     794:	3273632f 	rsbscc	r6, r3, #-1140850688	; 0xbc000000
     798:	786c3034 	stmdavc	ip!, {r2, r4, r5, ip, sp}^
     79c:	62696c2f 	rsbvs	r6, r9, #12032	; 0x2f00
     7a0:	692f6970 	stmdbvs	pc!, {r4, r5, r6, r8, fp, sp, lr}	; <UNPREDICTABLE>
     7a4:	756c636e 	strbvc	r6, [ip, #-878]!	; 0xfffffc92
     7a8:	00006564 	andeq	r6, r0, r4, ror #10
     7ac:	702d6176 	eorvc	r6, sp, r6, ror r1
     7b0:	746e6972 	strbtvc	r6, [lr], #-2418	; 0xfffff68e
     7b4:	00632e6b 	rsbeq	r2, r3, fp, ror #28
     7b8:	73000001 	movwvc	r0, #1
     7bc:	6e696474 	mcrvs	4, 3, r6, cr9, cr4, {3}
     7c0:	63672d74 	cmnvs	r7, #116, 26	; 0x1d00
     7c4:	00682e63 	rsbeq	r2, r8, r3, ror #28
     7c8:	72000002 	andvc	r0, r0, #2
     7cc:	682e6970 	stmdavs	lr!, {r4, r5, r6, r8, fp, sp, lr}
     7d0:	00000300 	andeq	r0, r0, r0, lsl #6
     7d4:	61647473 	smcvs	18243	; 0x4743
     7d8:	682e6772 	stmdavs	lr!, {r1, r4, r5, r6, r8, r9, sl, sp, lr}
     7dc:	00000200 	andeq	r0, r0, r0, lsl #4
     7e0:	6975623c 	ldmdbvs	r5!, {r2, r3, r4, r5, r9, sp, lr}^
     7e4:	692d746c 	pushvs	{r2, r3, r5, r6, sl, ip, sp, lr}
     7e8:	00003e6e 	andeq	r3, r0, lr, ror #28
     7ec:	05000000 	streq	r0, [r0, #-0]
     7f0:	0205001b 	andeq	r0, r5, #27
     7f4:	0000841c 	andeq	r8, r0, ip, lsl r4
     7f8:	05012603 	streq	r2, [r1, #-1539]	; 0xfffff9fd
     7fc:	2d05011d 	stfcss	f0, [r5, #-116]	; 0xffffff8c
     800:	3a050106 	bcc	140c20 <__bss_end__+0x137688>
     804:	33054a2e 	movwcc	r4, #23086	; 0x5a2e
     808:	02055106 	andeq	r5, r5, #-2147483647	; 0x80000001
     80c:	06060513 			; <UNDEFINED> instruction: 0x06060513
     810:	06020501 	streq	r0, [r2], -r1, lsl #10
     814:	00030530 	andeq	r0, r3, r0, lsr r5
     818:	2f020402 	svccs	0x00020402
     81c:	02000805 	andeq	r0, r0, #327680	; 0x50000
     820:	01060204 	tsteq	r6, r4, lsl #4
     824:	02001505 	andeq	r1, r0, #20971520	; 0x1400000
     828:	49060204 	stmdbmi	r6, {r2, r9}
     82c:	02001805 	andeq	r1, r0, #327680	; 0x50000
     830:	01060204 	tsteq	r6, r4, lsl #4
     834:	02000805 	andeq	r0, r0, #327680	; 0x50000
     838:	2e060104 	adfcss	f0, f6, f4
     83c:	02000205 	andeq	r0, r0, #1342177280	; 0x50000000
     840:	01060104 	tsteq	r6, r4, lsl #2
     844:	05054c06 	streq	r4, [r5, #-3078]	; 0xfffff3fa
     848:	02050106 	andeq	r0, r5, #-2147483647	; 0x80000001
     84c:	01054b06 	tsteq	r5, r6, lsl #22
     850:	3e051306 	cdpcc	3, 0, cr1, cr5, cr6, {0}
     854:	02053106 	andeq	r3, r5, #-2147483647	; 0x80000001
     858:	060e0514 			; <UNDEFINED> instruction: 0x060e0514
     85c:	2e060501 	cfsh32cs	mvfx0, mvfx6, #1
     860:	2f060205 	svccs	0x00060205
     864:	01060405 	tsteq	r6, r5, lsl #8
     868:	2f060305 	svccs	0x00060305
     86c:	01061105 	tsteq	r6, r5, lsl #2
     870:	052e0905 	streq	r0, [lr, #-2309]!	; 0xfffff6fb
     874:	15300602 	ldrne	r0, [r0, #-1538]!	; 0xfffff9fe
     878:	01060705 	tsteq	r6, r5, lsl #14
     87c:	2e2e0205 	cdpcs	2, 2, cr0, cr14, cr5, {0}
     880:	02000305 	andeq	r0, r0, #335544320	; 0x14000000
     884:	2f060304 	svccs	0x00060304
     888:	02000c05 	andeq	r0, r0, #1280	; 0x500
     88c:	01060304 	tsteq	r6, r4, lsl #6
     890:	02000a05 	andeq	r0, r0, #20480	; 0x5000
     894:	052e0304 	streq	r0, [lr, #-772]!	; 0xfffffcfc
     898:	04020017 	streq	r0, [r2], #-23	; 0xffffffe9
     89c:	052d0603 	streq	r0, [sp, #-1539]!	; 0xfffff9fd
     8a0:	0402000b 	streq	r0, [r2], #-11
     8a4:	02050101 	andeq	r0, r5, #1073741824	; 0x40000000
     8a8:	01040200 	mrseq	r0, R12_usr
     8ac:	4c060106 	stfmis	f0, [r6], {6}
     8b0:	01060905 	tsteq	r6, r5, lsl #18
     8b4:	0602052e 	streq	r0, [r2], -lr, lsr #10
     8b8:	06010530 			; <UNDEFINED> instruction: 0x06010530
     8bc:	06490513 			; <UNDEFINED> instruction: 0x06490513
     8c0:	05010631 	streq	r0, [r1, #-1585]	; 0xfffff9cf
     8c4:	05a00602 	streq	r0, [r0, #1538]!	; 0x602
     8c8:	05010604 	streq	r0, [r1, #-1540]	; 0xfffff9fc
     8cc:	052f0603 	streq	r0, [pc, #-1539]!	; 2d1 <__code_start__-0x7d2f>
     8d0:	05010609 	streq	r0, [r1, #-1545]	; 0xfffff9f7
     8d4:	13300602 	teqne	r0, #2097152	; 0x200000
     8d8:	01060b05 	tsteq	r6, r5, lsl #22
     8dc:	30060205 	andcc	r0, r6, r5, lsl #4
     8e0:	04052e06 	streq	r2, [r5], #-3590	; 0xfffff1fa
     8e4:	15240206 	strne	r0, [r4, #-518]!	; 0xfffffdfa
     8e8:	060f0513 			; <UNDEFINED> instruction: 0x060f0513
     8ec:	06052e01 	streq	r2, [r5], -r1, lsl #28
     8f0:	0605054a 	streq	r0, [r5], -sl, asr #10
     8f4:	0905134b 	stmdbeq	r5, {r0, r1, r3, r6, r8, r9, ip}
     8f8:	05050106 	streq	r0, [r5, #-262]	; 0xfffffefa
     8fc:	0b052f06 	bleq	14c51c <__bss_end__+0x142f84>
     900:	0d051006 	stceq	0, cr1, [r5, #-24]	; 0xffffffe8
     904:	01040200 	mrseq	r0, R12_usr
     908:	0004052c 	andeq	r0, r4, ip, lsr #10
     90c:	06010402 	streq	r0, [r1], -r2, lsl #8
     910:	00050534 	andeq	r0, r5, r4, lsr r5
     914:	13010402 	movwne	r0, #5122	; 0x1402
     918:	02001b05 	andeq	r1, r0, #5120	; 0x1400
     91c:	01060104 	tsteq	r6, r4, lsl #2
     920:	02000705 	andeq	r0, r0, #1310720	; 0x140000
     924:	05d60104 	ldrbeq	r0, [r6, #260]	; 0x104
     928:	04020018 	streq	r0, [r2], #-24	; 0xffffffe8
     92c:	0a052e01 	beq	14c138 <__bss_end__+0x142ba0>
     930:	01040200 	mrseq	r0, R12_usr
     934:	000b054a 	andeq	r0, fp, sl, asr #10
     938:	06010402 	streq	r0, [r1], -r2, lsl #8
     93c:	000e052f 	andeq	r0, lr, pc, lsr #10
     940:	06010402 	streq	r0, [r1], -r2, lsl #8
     944:	0004052e 	andeq	r0, r4, lr, lsr #10
     948:	2e010402 	cdpcs	4, 0, cr0, cr1, cr2, {0}
     94c:	06054b06 	streq	r4, [r5], -r6, lsl #22
     950:	05050106 	streq	r0, [r5, #-262]	; 0xfffffefa
     954:	0a052f06 	beq	14c574 <__bss_end__+0x142fdc>
     958:	07050106 	streq	r0, [r5, -r6, lsl #2]
     95c:	0d052e4a 	stceq	14, cr2, [r5, #-296]	; 0xfffffed8
     960:	4a2e7603 	bmi	b9e174 <__bss_end__+0xb94bdc>
     964:	050f0205 	streq	r0, [pc, #-517]	; 767 <__code_start__-0x7899>
     968:	0402000d 	streq	r0, [r2], #-13
     96c:	12030601 	andne	r0, r3, #1048576	; 0x100000
     970:	0011052e 	andseq	r0, r1, lr, lsr #10
     974:	13010402 	movwne	r0, #5122	; 0x1402
     978:	02002d05 	andeq	r2, r0, #320	; 0x140
     97c:	01060104 	tsteq	r6, r4, lsl #2
     980:	02002a05 	andeq	r2, r0, #20480	; 0x5000
     984:	052e0104 	streq	r0, [lr, #-260]!	; 0xfffffefc
     988:	04020016 	streq	r0, [r2], #-22	; 0xffffffea
     98c:	14054a01 	strne	r4, [r5], #-2561	; 0xfffff5ff
     990:	01040200 	mrseq	r0, R12_usr
     994:	0d054b06 	vstreq	d4, [r5, #-24]	; 0xffffffe8
     998:	01040200 	mrseq	r0, R12_usr
     99c:	02000106 	andeq	r0, r0, #-2147483647	; 0x80000001
     9a0:	064a0104 	strbeq	r0, [sl], -r4, lsl #2
     9a4:	0612052f 	ldreq	r0, [r2], -pc, lsr #10
     9a8:	0d054a01 	vstreq	s8, [r5, #-4]
     9ac:	12052f06 	andne	r2, r5, #6, 30
     9b0:	19050106 	stmdbne	r5, {r1, r2, r8}
     9b4:	04054b06 	streq	r4, [r5], #-2822	; 0xfffff4fa
     9b8:	02040200 	andeq	r0, r4, #0, 4
     9bc:	00011103 	andeq	r1, r1, r3, lsl #2
     9c0:	01020402 	tsteq	r2, r2, lsl #8
     9c4:	02000205 	andeq	r0, r0, #1342177280	; 0x50000000
     9c8:	05150204 	ldreq	r0, [r5, #-516]	; 0xfffffdfc
     9cc:	04020009 	streq	r0, [r2], #-9
     9d0:	00010602 	andeq	r0, r1, r2, lsl #12
     9d4:	4a020402 	bmi	819e4 <__bss_end__+0x7844c>
     9d8:	02000105 	andeq	r0, r0, #1073741825	; 0x40000001
     9dc:	059f0204 	ldreq	r0, [pc, #516]	; be8 <__code_start__-0x7418>
     9e0:	6e030604 	cfmadd32vs	mvax0, mvfx0, mvfx3, mvfx4
     9e4:	0609054a 	streq	r0, [r9], -sl, asr #10
     9e8:	06040501 	streq	r0, [r4], -r1, lsl #10
     9ec:	0606052f 	streq	r0, [r6], -pc, lsr #10
     9f0:	2f040511 	svccs	0x00040511
     9f4:	65030205 	strvs	r0, [r3, #-517]	; 0xfffffdfb
     9f8:	0019052e 	andseq	r0, r9, lr, lsr #10
     9fc:	06010402 	streq	r0, [r1], -r2, lsl #8
     a00:	052e2203 	streq	r2, [lr, #-515]!	; 0xfffffdfd
     a04:	0402001a 	streq	r0, [r2], #-26	; 0xffffffe6
     a08:	28051301 	stmdacs	r5, {r0, r8, r9, ip}
     a0c:	01040200 	mrseq	r0, R12_usr
     a10:	25050106 	strcs	r0, [r5, #-262]	; 0xfffffefa
     a14:	01040200 	mrseq	r0, R12_usr
     a18:	001f052e 	andseq	r0, pc, lr, lsr #10
     a1c:	4a010402 	bmi	41a2c <__bss_end__+0x38494>
     a20:	02000b05 	andeq	r0, r0, #5120	; 0x1400
     a24:	4b060104 	blmi	180e3c <__bss_end__+0x1778a4>
     a28:	02000405 	andeq	r0, r0, #83886080	; 0x5000000
     a2c:	01060104 	tsteq	r6, r4, lsl #2
     a30:	01040200 	mrseq	r0, R12_usr
     a34:	0402004a 	streq	r0, [r2], #-74	; 0xffffffb6
     a38:	004e0601 	subeq	r0, lr, r1, lsl #12
     a3c:	01010402 	tsteq	r1, r2, lsl #8
     a40:	01040200 	mrseq	r0, R12_usr
     a44:	04020001 	streq	r0, [r2], #-1
     a48:	02000101 	andeq	r0, r0, #1073741824	; 0x40000000
     a4c:	2e060104 	adfcss	f0, f6, f4
     a50:	01040200 	mrseq	r0, R12_usr
     a54:	04020066 	streq	r0, [r2], #-102	; 0xffffff9a
     a58:	02002e01 	andeq	r2, r0, #1, 28
     a5c:	4a060104 	bmi	180e74 <__bss_end__+0x1778dc>
     a60:	a6034805 	strge	r4, [r3], -r5, lsl #16
     a64:	0520087f 	streq	r0, [r0, #-2175]!	; 0xfffff781
     a68:	06011305 	streq	r1, [r1], -r5, lsl #6
     a6c:	0402002e 	streq	r0, [r2], #-46	; 0xffffffd2
     a70:	002e0602 	eoreq	r0, lr, r2, lsl #12
     a74:	01020402 	tsteq	r2, r2, lsl #8
     a78:	02040200 	andeq	r0, r4, #0, 4
     a7c:	00110513 	andseq	r0, r1, r3, lsl r5
     a80:	06020402 	streq	r0, [r2], -r2, lsl #8
     a84:	00050501 	andeq	r0, r5, r1, lsl #10
     a88:	06020402 	streq	r0, [r2], -r2, lsl #8
     a8c:	0007054b 	andeq	r0, r7, fp, asr #10
     a90:	06020402 	streq	r0, [r2], -r2, lsl #8
     a94:	06090501 	streq	r0, [r9], -r1, lsl #10
     a98:	060e054b 	streq	r0, [lr], -fp, asr #10
     a9c:	00480501 	subeq	r0, r8, r1, lsl #10
     aa0:	62010402 	andvs	r0, r1, #33554432	; 0x2000000
     aa4:	02000505 	andeq	r0, r0, #20971520	; 0x1400000
     aa8:	4b060104 	blmi	180ec0 <__bss_end__+0x177928>
     aac:	01040200 	mrseq	r0, R12_usr
     ab0:	04020001 	streq	r0, [r2], #-1
     ab4:	009e0601 	addseq	r0, lr, r1, lsl #12
     ab8:	2e010402 	cdpcs	4, 0, cr0, cr1, cr2, {0}
     abc:	01040200 	mrseq	r0, R12_usr
     ac0:	40052e06 	andmi	r2, r5, r6, lsl #28
     ac4:	d600e103 	strle	lr, [r0], -r3, lsl #2
     ac8:	02050106 	andeq	r0, r5, #-2147483647	; 0x80000001
     acc:	1e059f06 	cdpne	15, 0, cr9, cr5, cr6, {0}
     ad0:	12050106 	andne	r0, r5, #-2147483647	; 0x80000001
     ad4:	0605052e 	streq	r0, [r5], -lr, lsr #10
     ad8:	1402052f 	strne	r0, [r2], #-1327	; 0xfffffad1
     adc:	01060905 	tsteq	r6, r5, lsl #18
     ae0:	4b060505 	blmi	181efc <__bss_end__+0x178964>
     ae4:	05130205 	ldreq	r0, [r3, #-517]	; 0xfffffdfb
     ae8:	050d0608 	streq	r0, [sp, #-1544]	; 0xfffff9f8
     aec:	08053302 	stmdaeq	r5, {r1, r8, r9, ip, sp}
     af0:	0e054e06 	cdpeq	14, 0, cr4, cr5, cr6, {0}
     af4:	0a050106 	beq	140f14 <__bss_end__+0x13797c>
     af8:	0604052e 	streq	r0, [r4], -lr, lsr #10
     afc:	0609054b 	streq	r0, [r9], -fp, asr #10
     b00:	06040501 	streq	r0, [r4], -r1, lsl #10
     b04:	0607052f 	streq	r0, [r7], -pc, lsr #10
     b08:	06080501 	streq	r0, [r8], -r1, lsl #10
     b0c:	052e7a03 	streq	r7, [lr, #-2563]!	; 0xfffff5fd
     b10:	052e0602 	streq	r0, [lr, #-1538]!	; 0xfffff9fe
     b14:	0402000d 	streq	r0, [r2], #-13
     b18:	03054a01 	movweq	r4, #23041	; 0x5a01
     b1c:	05054b06 	streq	r4, [r5, #-2822]	; 0xfffff4fa
     b20:	04050106 	streq	r0, [r5], #-262	; 0xfffffefa
     b24:	0f054b06 	svceq	0x00054b06
     b28:	09050106 	stmdbeq	r5, {r1, r2, r8}
     b2c:	04052e2e 	streq	r2, [r5], #-3630	; 0xfffff1d2
     b30:	07053406 	streq	r3, [r5, -r6, lsl #8]
     b34:	04050106 	streq	r0, [r5], #-262	; 0xfffffefa
     b38:	14133006 	ldrne	r3, [r3], #-6
     b3c:	10060d05 	andne	r0, r6, r5, lsl #26
     b40:	05300905 	ldreq	r0, [r0, #-2309]!	; 0xfffff6fb
     b44:	052f0605 	streq	r0, [pc, #-1541]!	; 547 <__code_start__-0x7ab9>
     b48:	05010612 	streq	r0, [r1, #-1554]	; 0xfffff9ee
     b4c:	0b052e16 	bleq	14c3ac <__bss_end__+0x142e14>
     b50:	0605052e 	streq	r0, [r5], -lr, lsr #10
     b54:	0608052f 	streq	r0, [r8], -pc, lsr #10
     b58:	06090501 	streq	r0, [r9], -r1, lsl #10
     b5c:	0612052c 	ldreq	r0, [r2], -ip, lsr #10
     b60:	2e0a0501 	cfsh32cs	mvfx0, mvfx10, #1
     b64:	054a0905 	strbeq	r0, [sl, #-2309]	; 0xfffff6fb
     b68:	014e0604 	cmpeq	lr, r4, lsl #12
     b6c:	0015014a 	andseq	r0, r5, sl, asr #2
     b70:	02010402 	andeq	r0, r1, #33554432	; 0x2000000
     b74:	02000f36 	andeq	r0, r0, #54, 30	; 0xd8
     b78:	00010104 	andeq	r0, r1, r4, lsl #2
     b7c:	d6010402 	strle	r0, [r1], -r2, lsl #8
     b80:	13341105 	teqne	r4, #1073741825	; 0x40000001
     b84:	04020001 	streq	r0, [r2], #-1
     b88:	00ba0602 	adcseq	r0, sl, r2, lsl #12
     b8c:	06030402 	streq	r0, [r3], -r2, lsl #8
     b90:	040200ba 	streq	r0, [r2], #-186	; 0xffffff46
     b94:	02000103 	andeq	r0, r0, #-1073741824	; 0xc0000000
     b98:	05140304 	ldreq	r0, [r4, #-772]	; 0xfffffcfc
     b9c:	04020015 	streq	r0, [r2], #-21	; 0xffffffeb
     ba0:	05010603 	streq	r0, [r1, #-1539]	; 0xfffff9fd
     ba4:	04020011 	streq	r0, [r2], #-17	; 0xffffffef
     ba8:	052f0603 	streq	r0, [pc, #-1539]!	; 5ad <__code_start__-0x7a53>
     bac:	0402001a 	streq	r0, [r2], #-26	; 0xffffffe6
     bb0:	05010603 	streq	r0, [r1, #-1539]	; 0xfffff9fd
     bb4:	04020011 	streq	r0, [r2], #-17	; 0xffffffef
     bb8:	00d70603 	sbcseq	r0, r7, r3, lsl #12
     bbc:	13030402 	movwne	r0, #13314	; 0x3402
     bc0:	03040200 	movweq	r0, #16896	; 0x4200
     bc4:	04020014 	streq	r0, [r2], #-20	; 0xffffffec
     bc8:	02006703 	andeq	r6, r0, #786432	; 0xc0000
     bcc:	05680304 	strbeq	r0, [r8, #-772]!	; 0xfffffcfc
     bd0:	04020014 	streq	r0, [r2], #-20	; 0xffffffec
     bd4:	05010603 	streq	r0, [r1, #-1539]	; 0xfffff9fd
     bd8:	04020013 	streq	r0, [r2], #-19	; 0xffffffed
     bdc:	18058203 	stmdane	r5, {r0, r1, r9, pc}
     be0:	1b054e06 	blne	154400 <__bss_end__+0x14ae68>
     be4:	1a050106 	bne	141004 <__bss_end__+0x137a6c>
     be8:	06090582 	streq	r0, [r9], -r2, lsl #11
     bec:	060d054b 	streq	r0, [sp], -fp, asr #10
     bf0:	09052e01 	stmdbeq	r5, {r0, r9, sl, fp, sp}
     bf4:	ba06f306 	blt	1bd814 <__bss_end__+0x1b427c>
     bf8:	30061505 	andcc	r1, r6, r5, lsl #10
     bfc:	01061805 	tsteq	r6, r5, lsl #16
     c00:	05661705 	strbeq	r1, [r6, #-1797]!	; 0xfffff8fb
     c04:	054b0619 	strbeq	r0, [fp, #-1561]	; 0xfffff9e7
     c08:	6f030615 	svcvs	0x00030615
     c0c:	06110566 	ldreq	r0, [r1], -r6, ror #10
     c10:	05d60148 	ldrbeq	r0, [r6, #328]	; 0x148
     c14:	2e0b0309 	cdpcs	3, 0, cr0, cr11, cr9, {0}
     c18:	01060d05 	tsteq	r6, r5, lsl #26
     c1c:	0609052e 	streq	r0, [r9], -lr, lsr #10
     c20:	05ba06f3 	ldreq	r0, [sl, #1779]!	; 0x6f3
     c24:	062f0615 			; <UNDEFINED> instruction: 0x062f0615
     c28:	05667503 	strbeq	r7, [r6, #-1283]!	; 0xfffffafd
     c2c:	13030619 	movwne	r0, #13849	; 0x3619
     c30:	0615054a 	ldreq	r0, [r5], -sl, asr #10
     c34:	06666d03 	strbteq	r6, [r6], -r3, lsl #26
     c38:	014a1503 	cmpeq	sl, r3, lsl #10
     c3c:	052e06ba 	streq	r0, [lr, #-1722]!	; 0xfffff946
     c40:	011a0605 	tsteq	sl, r5, lsl #12
     c44:	0e032e9e 	mcreq	14, 0, r2, cr3, cr14, {4}
     c48:	06090501 	streq	r0, [r9], -r1, lsl #10
     c4c:	06050501 	streq	r0, [r5], -r1, lsl #10
     c50:	04057508 	streq	r7, [r5], #-1288	; 0xfffffaf8
     c54:	05011803 	streq	r1, [r1, #-2051]	; 0xfffff7fd
     c58:	05010607 	streq	r0, [r1, #-1543]	; 0xfffff9f9
     c5c:	05310604 	ldreq	r0, [r1, #-1540]!	; 0xfffff9fc
     c60:	2e670305 	cdpcs	3, 6, cr0, cr7, cr5, {0}
     c64:	01061c05 	tsteq	r6, r5, lsl #24
     c68:	05820905 	streq	r0, [r2, #2309]	; 0x905
     c6c:	31f30605 	mvnscc	r0, r5, lsl #12
     c70:	01061c05 	tsteq	r6, r5, lsl #24
     c74:	05820905 	streq	r0, [r2, #2309]	; 0x905
     c78:	30f30605 	rscscc	r0, r3, r5, lsl #12
     c7c:	01061b05 	tsteq	r6, r5, lsl #22
     c80:	05820905 	streq	r0, [r2, #2309]	; 0x905
     c84:	30f30605 	rscscc	r0, r3, r5, lsl #12
     c88:	01060705 	tsteq	r6, r5, lsl #14
     c8c:	83060505 	movwhi	r0, #25861	; 0x6505
     c90:	06090530 			; <UNDEFINED> instruction: 0x06090530
     c94:	06050501 	streq	r0, [r5], -r1, lsl #10
     c98:	11057508 	tstne	r5, r8, lsl #10
     c9c:	06220530 			; <UNDEFINED> instruction: 0x06220530
     ca0:	06050501 	streq	r0, [r5], -r1, lsl #10
     ca4:	8311054b 	tsthi	r1, #314572800	; 0x12c00000
     ca8:	01830505 	orreq	r0, r3, r5, lsl #10
     cac:	0e05359e 	mcreq	5, 0, r3, cr5, cr14, {4}
     cb0:	0a050106 	beq	1410d0 <__bss_end__+0x137b38>
     cb4:	052d062e 	streq	r0, [sp, #-1582]!	; 0xfffff9d2
     cb8:	05010604 	streq	r0, [r1, #-1540]	; 0xfffff9fc
     cbc:	04020013 	streq	r0, [r2], #-19	; 0xffffffed
     cc0:	10054a01 	andne	r4, r5, r1, lsl #20
     cc4:	01040200 	mrseq	r0, R12_usr
     cc8:	0402002e 	streq	r0, [r2], #-46	; 0xffffffd2
     ccc:	02056601 	andeq	r6, r5, #1048576	; 0x100000
     cd0:	07051606 	streq	r1, [r5, -r6, lsl #12]
     cd4:	02050106 	andeq	r0, r5, #-2147483647	; 0x80000001
     cd8:	01054b06 	tsteq	r5, r6, lsl #22
     cdc:	02661306 	rsbeq	r1, r6, #402653184	; 0x18000000
     ce0:	0101001e 	tsteq	r1, lr, lsl r0
     ce4:	0000008b 	andeq	r0, r0, fp, lsl #1
     ce8:	00700003 	rsbseq	r0, r0, r3
     cec:	01020000 	mrseq	r0, (UNDEF: 2)
     cf0:	000d0efb 	strdeq	r0, [sp], -fp
     cf4:	01010101 	tsteq	r1, r1, lsl #2
     cf8:	01000000 	mrseq	r0, (UNDEF: 0)
     cfc:	2e010000 	cdpcs	0, 0, cr0, cr1, cr0, {0}
     d00:	6174732f 	cmnvs	r4, pc, lsr #6
     d04:	732d6666 			; <UNDEFINED> instruction: 0x732d6666
     d08:	2f006372 	svccs	0x00006372
     d0c:	656d6f68 	strbvs	r6, [sp, #-3944]!	; 0xfffff098
     d10:	7261702f 	rsbvc	r7, r1, #47	; 0x2f
     d14:	76696874 			; <UNDEFINED> instruction: 0x76696874
     d18:	636f442f 	cmnvs	pc, #788529152	; 0x2f000000
     d1c:	6e656d75 	mcrvs	13, 3, r6, cr5, cr5, {3}
     d20:	632f7374 			; <UNDEFINED> instruction: 0x632f7374
     d24:	30343273 	eorscc	r3, r4, r3, ror r2
     d28:	632f786c 			; <UNDEFINED> instruction: 0x632f786c
     d2c:	30343273 	eorscc	r3, r4, r3, ror r2
     d30:	6c2f786c 	stcvs	8, cr7, [pc], #-432	; b88 <__code_start__-0x7478>
     d34:	69706269 	ldmdbvs	r0!, {r0, r3, r5, r6, r9, sp, lr}^
     d38:	636e692f 	cmnvs	lr, #770048	; 0xbc000
     d3c:	6564756c 	strbvs	r7, [r4, #-1388]!	; 0xfffffa94
     d40:	6c630000 	stclvs	0, cr0, [r3], #-0
     d44:	2d6e6165 	stfcse	f6, [lr, #-404]!	; 0xfffffe6c
     d48:	6f626572 	svcvs	0x00626572
     d4c:	632e746f 			; <UNDEFINED> instruction: 0x632e746f
     d50:	00000100 	andeq	r0, r0, r0, lsl #2
     d54:	2e697072 	mcrcs	0, 3, r7, cr9, cr2, {3}
     d58:	00020068 	andeq	r0, r2, r8, rrx
     d5c:	19050000 	stmdbne	r5, {}	; <UNPREDICTABLE>
     d60:	64020500 	strvs	r0, [r2], #-1280	; 0xfffffb00
     d64:	1500008b 	strne	r0, [r0, #-139]	; 0xffffff75
     d68:	832f0505 			; <UNDEFINED> instruction: 0x832f0505
     d6c:	06024b2f 	streq	r4, [r2], -pc, lsr #22
     d70:	a7010100 	strge	r0, [r1, -r0, lsl #2]
     d74:	03000000 	movweq	r0, #0
     d78:	00006a00 	andeq	r6, r0, r0, lsl #20
     d7c:	fb010200 	blx	41586 <__bss_end__+0x37fee>
     d80:	01000d0e 	tsteq	r0, lr, lsl #26
     d84:	00010101 	andeq	r0, r1, r1, lsl #2
     d88:	00010000 	andeq	r0, r1, r0
     d8c:	2f2e0100 	svccs	0x002e0100
     d90:	66617473 			; <UNDEFINED> instruction: 0x66617473
     d94:	72732d66 	rsbsvc	r2, r3, #6528	; 0x1980
     d98:	682f0063 	stmdavs	pc!, {r0, r1, r5, r6}	; <UNPREDICTABLE>
     d9c:	2f656d6f 	svccs	0x00656d6f
     da0:	74726170 	ldrbtvc	r6, [r2], #-368	; 0xfffffe90
     da4:	2f766968 	svccs	0x00766968
     da8:	75636f44 	strbvc	r6, [r3, #-3908]!	; 0xfffff0bc
     dac:	746e656d 	strbtvc	r6, [lr], #-1389	; 0xfffffa93
     db0:	73632f73 	cmnvc	r3, #460	; 0x1cc
     db4:	6c303432 	cfldrsvs	mvf3, [r0], #-200	; 0xffffff38
     db8:	73632f78 	cmnvc	r3, #120, 30	; 0x1e0
     dbc:	6c303432 	cfldrsvs	mvf3, [r0], #-200	; 0xffffff38
     dc0:	696c2f78 	stmdbvs	ip!, {r3, r4, r5, r6, r8, r9, sl, fp, sp}^
     dc4:	2f697062 	svccs	0x00697062
     dc8:	6c636e69 	stclvs	14, cr6, [r3], #-420	; 0xfffffe5c
     dcc:	00656475 	rsbeq	r6, r5, r5, ror r4
     dd0:	74736300 	ldrbtvc	r6, [r3], #-768	; 0xfffffd00
     dd4:	2e747261 	cdpcs	2, 7, cr7, cr4, cr1, {3}
     dd8:	00010063 	andeq	r0, r1, r3, rrx
     ddc:	69707200 	ldmdbvs	r0!, {r9, ip, sp, lr}^
     de0:	0200682e 	andeq	r6, r0, #3014656	; 0x2e0000
     de4:	05000000 	streq	r0, [r0, #-0]
     de8:	02050010 	andeq	r0, r5, #16
     dec:	00008b90 	muleq	r0, r0, fp
     df0:	2f050515 	svccs	0x00050515
     df4:	05130205 	ldreq	r0, [r3, #-517]	; 0xfffffdfb
     df8:	13301405 	teqne	r0, #83886080	; 0x5000000
     dfc:	060a0514 			; <UNDEFINED> instruction: 0x060a0514
     e00:	0905310f 	stmdbeq	r5, {r0, r1, r2, r3, r8, ip, sp}
     e04:	10052f06 	andne	r2, r5, r6, lsl #30
     e08:	0a050106 	beq	141228 <__bss_end__+0x137c90>
     e0c:	05054906 	streq	r4, [r5, #-2310]	; 0xfffff6fa
     e10:	01013269 	tsteq	r1, r9, ror #4
     e14:	0205144a 	andeq	r1, r5, #1241513984	; 0x4a000000
     e18:	0006022f 	andeq	r0, r6, pc, lsr #4
     e1c:	006b0101 	rsbeq	r0, fp, r1, lsl #2
     e20:	00030000 	andeq	r0, r3, r0
     e24:	0000002a 	andeq	r0, r0, sl, lsr #32
     e28:	0efb0102 	cdpeq	1, 15, cr0, cr11, cr2, {0}
     e2c:	0101000d 	tsteq	r1, sp
     e30:	00000101 	andeq	r0, r0, r1, lsl #2
     e34:	00000100 	andeq	r0, r0, r0, lsl #2
     e38:	732f2e01 			; <UNDEFINED> instruction: 0x732f2e01
     e3c:	66666174 			; <UNDEFINED> instruction: 0x66666174
     e40:	6372732d 	cmnvs	r2, #-1275068416	; 0xb4000000
     e44:	61630000 	cmnvs	r3, r0
     e48:	2e656863 	cdpcs	8, 6, cr6, cr5, cr3, {3}
     e4c:	00010063 	andeq	r0, r1, r3, rrx
     e50:	19050000 	stmdbne	r5, {}	; <UNPREDICTABLE>
     e54:	d0020500 	andle	r0, r2, r0, lsl #10
     e58:	1400008b 	strne	r0, [r0], #-139	; 0xffffff75
     e5c:	13130505 	tstne	r3, #20971520	; 0x1400000
     e60:	132f0205 			; <UNDEFINED> instruction: 0x132f0205
     e64:	01060405 	tsteq	r6, r5, lsl #8
     e68:	2f060505 	svccs	0x00060505
     e6c:	2f060105 	svccs	0x00060105
     e70:	31061a05 	tstcc	r6, r5, lsl #20
     e74:	13130505 	tstne	r3, #20971520	; 0x1400000
     e78:	13300205 	teqne	r0, #1342177280	; 0x50000000
     e7c:	01060405 	tsteq	r6, r5, lsl #8
     e80:	2f060505 	svccs	0x00060505
     e84:	2f060105 	svccs	0x00060105
     e88:	01000202 	tsteq	r0, r2, lsl #4
     e8c:	0000d901 	andeq	sp, r0, r1, lsl #18
     e90:	6a000300 	bvs	1a98 <__code_start__-0x6568>
     e94:	02000000 	andeq	r0, r0, #0
     e98:	0d0efb01 	vstreq	d15, [lr, #-4]
     e9c:	01010100 	mrseq	r0, (UNDEF: 17)
     ea0:	00000001 	andeq	r0, r0, r1
     ea4:	01000001 	tsteq	r0, r1
     ea8:	74732f2e 	ldrbtvc	r2, [r3], #-3886	; 0xfffff0d2
     eac:	2d666661 	stclcs	6, cr6, [r6, #-388]!	; 0xfffffe7c
     eb0:	00637273 	rsbeq	r7, r3, r3, ror r2
     eb4:	6d6f682f 	stclvs	8, cr6, [pc, #-188]!	; e00 <__code_start__-0x7200>
     eb8:	61702f65 	cmnvs	r0, r5, ror #30
     ebc:	69687472 	stmdbvs	r8!, {r1, r4, r5, r6, sl, ip, sp, lr}^
     ec0:	6f442f76 	svcvs	0x00442f76
     ec4:	656d7563 	strbvs	r7, [sp, #-1379]!	; 0xfffffa9d
     ec8:	2f73746e 	svccs	0x0073746e
     ecc:	34327363 	ldrtcc	r7, [r2], #-867	; 0xfffffc9d
     ed0:	2f786c30 	svccs	0x00786c30
     ed4:	34327363 	ldrtcc	r7, [r2], #-867	; 0xfffffc9d
     ed8:	2f786c30 	svccs	0x00786c30
     edc:	7062696c 	rsbvc	r6, r2, ip, ror #18
     ee0:	6e692f69 	cdpvs	15, 6, cr2, cr9, cr9, {3}
     ee4:	64756c63 	ldrbtvs	r6, [r5], #-3171	; 0xfffff39d
     ee8:	72000065 	andvc	r0, r0, #101	; 0x65
     eec:	6f6f6265 	svcvs	0x006f6265
     ef0:	00632e74 	rsbeq	r2, r3, r4, ror lr
     ef4:	72000001 	andvc	r0, r0, #1
     ef8:	682e6970 	stmdavs	lr!, {r4, r5, r6, r8, fp, sp, lr}
     efc:	00000200 	andeq	r0, r0, r0, lsl #4
     f00:	00190500 	andseq	r0, r9, r0, lsl #10
     f04:	8bf00205 	blhi	ffc01720 <__bss_end__+0xffbf8188>
     f08:	0d030000 	stceq	0, cr0, [r3, #-0]
     f0c:	13050501 	movwne	r0, #21761	; 0x5501
     f10:	13053113 	movwne	r3, #20755	; 0x5113
     f14:	01050106 	tsteq	r5, r6, lsl #2
     f18:	061b052f 	ldreq	r0, [fp], -pc, lsr #10
     f1c:	13050585 	movwne	r0, #21893	; 0x5585
     f20:	2f090514 	svccs	0x00090514
     f24:	01061605 	tsteq	r6, r5, lsl #12
     f28:	052e0e05 	streq	r0, [lr, #-3589]!	; 0xfffff1fb
     f2c:	052f0605 	streq	r0, [pc, #-1541]!	; 92f <__code_start__-0x76d1>
     f30:	052f0601 	streq	r0, [pc, #-1537]!	; 937 <__code_start__-0x76c9>
     f34:	05300617 	ldreq	r0, [r0, #-1559]!	; 0xfffff9e9
     f38:	08052f05 	stmdaeq	r5, {r0, r2, r8, r9, sl, fp, sp}
     f3c:	07050106 	streq	r0, [r5, -r6, lsl #2]
     f40:	0605052e 	streq	r0, [r5], -lr, lsr #10
     f44:	4d2f3050 	stcmi	0, cr3, [pc, #-320]!	; e0c <__code_start__-0x71f4>
     f48:	15131313 	ldrne	r1, [r3, #-787]	; 0xfffffced
     f4c:	04020067 	streq	r0, [r2], #-103	; 0xffffff99
     f50:	0d056701 	stceq	7, cr6, [r5, #-4]
     f54:	01040200 	mrseq	r0, R12_usr
     f58:	000a0501 	andeq	r0, sl, r1, lsl #10
     f5c:	01010402 	tsteq	r1, r2, lsl #8
     f60:	6d030905 	vstrvs.16	s0, [r3, #-10]	; <UNPREDICTABLE>
     f64:	000c022e 	andeq	r0, ip, lr, lsr #4
     f68:	00530101 	subseq	r0, r3, r1, lsl #2
     f6c:	00030000 	andeq	r0, r3, r0
     f70:	0000003b 	andeq	r0, r0, fp, lsr r0
     f74:	0efb0102 	cdpeq	1, 15, cr0, cr11, cr2, {0}
     f78:	0101000d 	tsteq	r1, sp
     f7c:	00000101 	andeq	r0, r0, r1, lsl #2
     f80:	00000100 	andeq	r0, r0, r0, lsl #2
     f84:	732f2e01 			; <UNDEFINED> instruction: 0x732f2e01
     f88:	66666174 			; <UNDEFINED> instruction: 0x66666174
     f8c:	6372732d 	cmnvs	r2, #-1275068416	; 0xb4000000
     f90:	65640000 	strbvs	r0, [r4, #-0]!
     f94:	6c756166 	ldfvse	f6, [r5], #-408	; 0xfffffe68
     f98:	65722d74 	ldrbvs	r2, [r2, #-3444]!	; 0xfffff28c
     f9c:	746f6f62 	strbtvc	r6, [pc], #-3938	; fa4 <__code_start__-0x705c>
     fa0:	6c61632d 	stclvs	3, cr6, [r1], #-180	; 0xffffff4c
     fa4:	74756f6c 	ldrbtvc	r6, [r5], #-3948	; 0xfffff094
     fa8:	0100632e 	tsteq	r0, lr, lsr #6
     fac:	05000000 	streq	r0, [r0, #-0]
     fb0:	0205001b 	andeq	r0, r5, #27
     fb4:	00008c70 	andeq	r8, r0, r0, ror ip
     fb8:	011c0514 	tsteq	ip, r4, lsl r5
     fbc:	01000202 	tsteq	r0, r2, lsl #4
     fc0:	00004a01 	andeq	r4, r0, r1, lsl #20
     fc4:	32000300 	andcc	r0, r0, #0, 6
     fc8:	02000000 	andeq	r0, r0, #0
     fcc:	0d0efb01 	vstreq	d15, [lr, #-4]
     fd0:	01010100 	mrseq	r0, (UNDEF: 17)
     fd4:	00000001 	andeq	r0, r0, r1
     fd8:	01000001 	tsteq	r0, r1
     fdc:	74732f2e 	ldrbtvc	r2, [r3], #-3886	; 0xfffff0d2
     fe0:	2d666661 	stclcs	6, cr6, [r6, #-388]!	; 0xfffffe7c
     fe4:	00637273 	rsbeq	r7, r3, r3, ror r2
     fe8:	73756300 	cmnvc	r5, #0, 6
     fec:	2d6d6f74 	stclcs	15, cr6, [sp, #-464]!	; 0xfffffe30
     ff0:	64616f6c 	strbtvs	r6, [r1], #-3948	; 0xfffff094
     ff4:	632e7265 			; <UNDEFINED> instruction: 0x632e7265
     ff8:	00000100 	andeq	r0, r0, r0, lsl #2
     ffc:	001a0500 	andseq	r0, sl, r0, lsl #10
    1000:	8c740205 	lfmhi	f0, 2, [r4], #-20	; 0xffffffec
    1004:	05150000 	ldreq	r0, [r5, #-0]
    1008:	02021401 	andeq	r1, r2, #16777216	; 0x1000000
    100c:	e0010100 	and	r0, r1, r0, lsl #2
    1010:	03000000 	movweq	r0, #0
    1014:	00006900 	andeq	r6, r0, r0, lsl #18
    1018:	fb010200 	blx	41822 <__bss_end__+0x3828a>
    101c:	01000d0e 	tsteq	r0, lr, lsl #26
    1020:	00010101 	andeq	r0, r1, r1, lsl #2
    1024:	00010000 	andeq	r0, r1, r0
    1028:	2f2e0100 	svccs	0x002e0100
    102c:	66617473 			; <UNDEFINED> instruction: 0x66617473
    1030:	72732d66 	rsbsvc	r2, r3, #6528	; 0x1980
    1034:	682f0063 	stmdavs	pc!, {r0, r1, r5, r6}	; <UNPREDICTABLE>
    1038:	2f656d6f 	svccs	0x00656d6f
    103c:	74726170 	ldrbtvc	r6, [r2], #-368	; 0xfffffe90
    1040:	2f766968 	svccs	0x00766968
    1044:	75636f44 	strbvc	r6, [r3, #-3908]!	; 0xfffff0bc
    1048:	746e656d 	strbtvc	r6, [lr], #-1389	; 0xfffffa93
    104c:	73632f73 	cmnvc	r3, #460	; 0x1cc
    1050:	6c303432 	cfldrsvs	mvf3, [r0], #-200	; 0xffffff38
    1054:	73632f78 	cmnvc	r3, #120, 30	; 0x1e0
    1058:	6c303432 	cfldrsvs	mvf3, [r0], #-200	; 0xffffff38
    105c:	696c2f78 	stmdbvs	ip!, {r3, r4, r5, r6, r8, r9, sl, fp, sp}^
    1060:	2f697062 	svccs	0x00697062
    1064:	6c636e69 	stclvs	14, cr6, [r3], #-420	; 0xfffffe5c
    1068:	00656475 	rsbeq	r6, r5, r5, ror r4
    106c:	6d697400 	cfstrdvs	mvd7, [r9, #-0]
    1070:	632e7265 			; <UNDEFINED> instruction: 0x632e7265
    1074:	00000100 	andeq	r0, r0, r0, lsl #2
    1078:	2e697072 	mcrcs	0, 3, r7, cr9, cr2, {3}
    107c:	00020068 	andeq	r0, r2, r8, rrx
    1080:	23050000 	movwcs	r0, #20480	; 0x5000
    1084:	78020500 	stmdavc	r2, {r8, sl}
    1088:	1500008c 	strne	r0, [r0, #-140]	; 0xffffff74
    108c:	052f0505 	streq	r0, [pc, #-1285]!	; b8f <__code_start__-0x7471>
    1090:	0501060c 	streq	r0, [r1, #-1548]	; 0xfffff9f4
    1094:	1f054b01 	svcne	0x00054b01
    1098:	05054d06 	streq	r4, [r5, #-3334]	; 0xfffff2fa
    109c:	12052f31 	andne	r2, r5, #49, 30	; 0xc4
    10a0:	05050106 	streq	r0, [r5, #-262]	; 0xfffffefa
    10a4:	052f4b06 	streq	r4, [pc, #-2822]!	; 5a6 <__code_start__-0x7a5a>
    10a8:	05130601 	ldreq	r0, [r3, #-1537]	; 0xfffff9ff
    10ac:	064c061c 			; <UNDEFINED> instruction: 0x064c061c
    10b0:	06050501 	streq	r0, [r5], -r1, lsl #10
    10b4:	0613054b 	ldreq	r0, [r3], -fp, asr #10
    10b8:	05052e01 	streq	r2, [r5, #-3585]	; 0xfffff1ff
    10bc:	09052f06 	stmdbeq	r5, {r1, r2, r8, r9, sl, fp, sp}
    10c0:	06170513 			; <UNDEFINED> instruction: 0x06170513
    10c4:	06090501 	streq	r0, [r9], -r1, lsl #10
    10c8:	0611052f 	ldreq	r0, [r1], -pc, lsr #10
    10cc:	2e0c0501 	cfsh32cs	mvfx0, mvfx12, #1
    10d0:	6b061c05 	blvs	1880ec <__bss_end__+0x17eb54>
    10d4:	05050106 	streq	r0, [r5, #-262]	; 0xfffffefa
    10d8:	4a062f06 	bmi	18ccf8 <__bss_end__+0x183760>
    10dc:	054b0105 	strbeq	r0, [fp, #-261]	; 0xfffffefb
    10e0:	062f061e 			; <UNDEFINED> instruction: 0x062f061e
    10e4:	06050501 	streq	r0, [r5], -r1, lsl #10
    10e8:	054a062f 	strbeq	r0, [sl, #-1583]	; 0xfffff9d1
    10ec:	02024b01 	andeq	r4, r2, #1024	; 0x400
    10f0:	04010100 	streq	r0, [r1], #-256	; 0xffffff00
    10f4:	03000002 	movweq	r0, #2
    10f8:	0000c800 	andeq	ip, r0, r0, lsl #16
    10fc:	fb010200 	blx	41906 <__bss_end__+0x3836e>
    1100:	01000d0e 	tsteq	r0, lr, lsl #26
    1104:	00010101 	andeq	r0, r1, r1, lsl #2
    1108:	00010000 	andeq	r0, r1, r0
    110c:	682f0100 	stmdavs	pc!, {r8}	; <UNPREDICTABLE>
    1110:	2f656d6f 	svccs	0x00656d6f
    1114:	6c676e65 	stclvs	14, cr6, [r7], #-404	; 0xfffffe6c
    1118:	632f7265 			; <UNDEFINED> instruction: 0x632f7265
    111c:	7373616c 	cmnvc	r3, #108, 2
    1120:	3173632f 	cmncc	r3, pc, lsr #6
    1124:	2d653034 	stclcs	0, cr3, [r5, #-208]!	; 0xffffff30
    1128:	69773232 	ldmdbvs	r7!, {r1, r4, r5, r9, ip, sp}^
    112c:	6c2f2f6e 	stcvs	15, cr2, [pc], #-440	; f7c <__code_start__-0x7084>
    1130:	69706269 	ldmdbvs	r0!, {r0, r3, r5, r6, r9, sp, lr}^
    1134:	636e692f 	cmnvs	lr, #770048	; 0xbc000
    1138:	6564756c 	strbvs	r7, [r4, #-1388]!	; 0xfffffa94
    113c:	73752f00 	cmnvc	r5, #0, 30
    1140:	68732f72 	ldmdavs	r3!, {r1, r4, r5, r6, r8, r9, sl, fp, sp}^
    1144:	2f657261 	svccs	0x00657261
    1148:	2d636367 	stclcs	3, cr6, [r3, #-412]!	; 0xfffffe64
    114c:	2d6d7261 	sfmcs	f7, 2, [sp, #-388]!	; 0xfffffe7c
    1150:	656e6f6e 	strbvs	r6, [lr, #-3950]!	; 0xfffff092
    1154:	6261652d 	rsbvs	r6, r1, #188743680	; 0xb400000
    1158:	30312d69 	eorscc	r2, r1, r9, ror #26
    115c:	322d332e 	eorcc	r3, sp, #-1207959552	; 0xb8000000
    1160:	2e313230 	mrccs	2, 1, r3, cr1, cr0, {1}
    1164:	6c2f3031 	stcvs	0, cr3, [pc], #-196	; 10a8 <__code_start__-0x6f58>
    1168:	672f6269 	strvs	r6, [pc, -r9, ror #4]!
    116c:	612f6363 			; <UNDEFINED> instruction: 0x612f6363
    1170:	6e2d6d72 	mcrvs	13, 1, r6, cr13, cr2, {3}
    1174:	2d656e6f 	stclcs	14, cr6, [r5, #-444]!	; 0xfffffe44
    1178:	69626165 	stmdbvs	r2!, {r0, r2, r5, r6, r8, sp, lr}^
    117c:	2e30312f 	rsfcssp	f3, f0, #10.0
    1180:	2f312e33 	svccs	0x00312e33
    1184:	6c636e69 	stclvs	14, cr6, [r3], #-420	; 0xfffffe5c
    1188:	00656475 	rsbeq	r6, r5, r5, ror r4
    118c:	72617500 	rsbvc	r7, r1, #0, 10
    1190:	00632e74 	rsbeq	r2, r3, r4, ror lr
    1194:	75000000 	strvc	r0, [r0, #-0]
    1198:	2e747261 	cdpcs	2, 7, cr7, cr4, cr1, {3}
    119c:	00010068 	andeq	r0, r1, r8, rrx
    11a0:	69707200 	ldmdbvs	r0!, {r9, ip, sp, lr}^
    11a4:	0100682e 	tsteq	r0, lr, lsr #16
    11a8:	70670000 	rsbvc	r0, r7, r0
    11ac:	682e6f69 	stmdavs	lr!, {r0, r3, r5, r6, r8, r9, sl, fp, sp, lr}
    11b0:	00000100 	andeq	r0, r0, r0, lsl #2
    11b4:	69647473 	stmdbvs	r4!, {r0, r1, r4, r5, r6, sl, ip, sp, lr}^
    11b8:	672d746e 	strvs	r7, [sp, -lr, ror #8]!
    11bc:	682e6363 	stmdavs	lr!, {r0, r1, r5, r6, r8, r9, sp, lr}
    11c0:	00000200 	andeq	r0, r0, r0, lsl #4
    11c4:	00390500 	eorseq	r0, r9, r0, lsl #10
    11c8:	8cfc0205 	lfmhi	f0, 2, [ip], #20
    11cc:	30030000 	andcc	r0, r3, r0
    11d0:	05010601 	streq	r0, [r1, #-1537]	; 0xfffff9ff
    11d4:	05670605 	strbeq	r0, [r7, #-1541]!	; 0xfffff9fb
    11d8:	05010611 	streq	r0, [r1, #-1553]	; 0xfffff9ef
    11dc:	01052e05 	tsteq	r5, r5, lsl #28
    11e0:	06380567 	ldrteq	r0, [r8], -r7, ror #10
    11e4:	05010629 	streq	r0, [r1, #-1577]	; 0xfffff9d7
    11e8:	05670605 	strbeq	r0, [r7, #-1541]!	; 0xfffff9fb
    11ec:	05010611 	streq	r0, [r1, #-1553]	; 0xfffff9ef
    11f0:	01052e05 	tsteq	r5, r5, lsl #28
    11f4:	06160567 	ldreq	r0, [r6], -r7, ror #10
    11f8:	052e1503 	streq	r1, [lr, #-1283]!	; 0xfffffafd
    11fc:	68673505 	stmdavs	r7!, {r0, r2, r8, sl, ip, sp}^
    1200:	0c036835 	stceq	8, cr6, [r3], {53}	; 0x35
    1204:	696b852e 	stmdbvs	fp!, {r1, r2, r3, r5, r8, sl, pc}^
    1208:	660c0369 	strvs	r0, [ip], -r9, ror #6
    120c:	05676b13 	strbeq	r6, [r7, #-2835]!	; 0xfffff4ed
    1210:	052f0601 	streq	r0, [pc, #-1537]!	; c17 <__code_start__-0x73e9>
    1214:	25080619 	strcs	r0, [r8, #-1561]	; 0xfffff9e7
    1218:	05340505 	ldreq	r0, [r4, #-1285]!	; 0xfffffafb
    121c:	0501060d 	streq	r0, [r1, #-1549]	; 0xfffff9f3
    1220:	19054c01 	stmdbne	r5, {r0, sl, fp, lr}
    1224:	05056706 	streq	r6, [r5, #-1798]	; 0xfffff8fa
    1228:	060d0536 			; <UNDEFINED> instruction: 0x060d0536
    122c:	4a280501 	bmi	a02638 <__bss_end__+0x9f90a0>
    1230:	05300105 	ldreq	r0, [r0, #-261]!	; 0xfffffefb
    1234:	05870615 	streq	r0, [r7, #1557]	; 0x615
    1238:	052f2f05 	streq	r2, [pc, #-3845]!	; 33b <__code_start__-0x7cc5>
    123c:	04020009 	streq	r0, [r2], #-9
    1240:	0a051301 	beq	145e4c <__bss_end__+0x13c8b4>
    1244:	01040200 	mrseq	r0, R12_usr
    1248:	000c0511 	andeq	r0, ip, r1, lsl r5
    124c:	06010402 	streq	r0, [r1], -r2, lsl #8
    1250:	000a0501 	andeq	r0, sl, r1, lsl #10
    1254:	2e010402 	cdpcs	4, 0, cr0, cr1, cr2, {0}
    1258:	4c060505 	cfstr32mi	mvfx0, [r6], {5}
    125c:	01060e05 	tsteq	r6, r5, lsl #28
    1260:	054a0905 	strbeq	r0, [sl, #-2309]	; 0xfffff6fb
    1264:	2f2f0605 	svccs	0x002f0605
    1268:	13060105 	movwne	r0, #24837	; 0x6105
    126c:	67061c05 	strvs	r1, [r6, -r5, lsl #24]
    1270:	05050106 	streq	r0, [r5, #-262]	; 0xfffffefa
    1274:	052f4b06 	streq	r4, [pc, #-2822]!	; 776 <__code_start__-0x788a>
    1278:	04020009 	streq	r0, [r2], #-9
    127c:	0a051301 	beq	145e88 <__bss_end__+0x13c8f0>
    1280:	01040200 	mrseq	r0, R12_usr
    1284:	000c0511 	andeq	r0, ip, r1, lsl r5
    1288:	06010402 	streq	r0, [r1], -r2, lsl #8
    128c:	000a0501 	andeq	r0, sl, r1, lsl #10
    1290:	2e010402 	cdpcs	4, 0, cr0, cr1, cr2, {0}
    1294:	4c060505 	cfstr32mi	mvfx0, [r6], {5}
    1298:	06010567 	streq	r0, [r1], -r7, ror #10
    129c:	0619052f 	ldreq	r0, [r9], -pc, lsr #10
    12a0:	2e1b054c 	cfmac32cs	mvfx0, mvfx11, mvfx12
    12a4:	052e2a05 	streq	r2, [lr, #-2565]!	; 0xfffff5fb
    12a8:	05010631 	streq	r0, [r1, #-1585]	; 0xfffff9cf
    12ac:	1c052e42 	stcne	14, cr2, [r5], {66}	; 0x42
    12b0:	05053106 	streq	r3, [r5, #-262]	; 0xfffffefa
    12b4:	2e09032f 	cdpcs	3, 0, cr0, cr9, cr15, {1}
    12b8:	01060e05 	tsteq	r6, r5, lsl #28
    12bc:	054a2105 	strbeq	r2, [sl, #-261]	; 0xfffffefb
    12c0:	2e0a0301 	cdpcs	3, 0, cr0, cr10, cr1, {0}
    12c4:	68061a05 	stmdavs	r6, {r0, r2, r9, fp, ip}
    12c8:	02000905 	andeq	r0, r0, #81920	; 0x14000
    12cc:	05300104 	ldreq	r0, [r0, #-260]!	; 0xfffffefc
    12d0:	0402000a 	streq	r0, [r2], #-10
    12d4:	0c051101 	stfeqs	f1, [r5], {1}
    12d8:	01040200 	mrseq	r0, R12_usr
    12dc:	0a050106 	beq	1416fc <__bss_end__+0x138164>
    12e0:	01040200 	mrseq	r0, R12_usr
    12e4:	0619052e 	ldreq	r0, [r9], -lr, lsr #10
    12e8:	667ee803 	ldrbtvs	lr, [lr], -r3, lsl #16
    12ec:	2f2f0505 	svccs	0x002f0505
    12f0:	0105672f 	tsteq	r5, pc, lsr #14
    12f4:	04022f06 	streq	r2, [r2], #-3846	; 0xfffff0fa
    12f8:	68010100 	stmdavs	r1, {r8}
    12fc:	03000000 	movweq	r0, #0
    1300:	00002600 	andeq	r2, r0, r0, lsl #12
    1304:	fb010200 	blx	41b0e <__bss_end__+0x38576>
    1308:	01000d0e 	tsteq	r0, lr, lsl #26
    130c:	00010101 	andeq	r0, r1, r1, lsl #2
    1310:	00010000 	andeq	r0, r1, r0
    1314:	2f2e0100 	svccs	0x002e0100
    1318:	6362696c 	cmnvs	r2, #108, 18	; 0x1b0000
    131c:	74730000 	ldrbtvc	r0, [r3], #-0
    1320:	79706372 	ldmdbvc	r0!, {r1, r4, r5, r6, r8, r9, sp, lr}^
    1324:	0100632e 	tsteq	r0, lr, lsr #6
    1328:	05000000 	streq	r0, [r0, #-0]
    132c:	0205002a 	andeq	r0, r5, #42	; 0x2a
    1330:	00008eec 	andeq	r8, r0, ip, ror #29
    1334:	13050514 	movwne	r0, #21780	; 0x5514
    1338:	06140513 			; <UNDEFINED> instruction: 0x06140513
    133c:	00220511 	eoreq	r0, r2, r1, lsl r5
    1340:	06010402 	streq	r0, [r1], -r2, lsl #8
    1344:	000b052f 	andeq	r0, fp, pc, lsr #10
    1348:	01010402 	tsteq	r1, r2, lsl #8
    134c:	02001505 	andeq	r1, r0, #20971520	; 0x1400000
    1350:	01060104 	tsteq	r6, r4, lsl #2
    1354:	02001305 	andeq	r1, r0, #335544320	; 0x14000000
    1358:	054a0104 	strbeq	r0, [sl, #-260]	; 0xfffffefc
    135c:	0402000b 	streq	r0, [r2], #-11
    1360:	06024a01 	streq	r4, [r2], -r1, lsl #20
    1364:	b1010100 	mrslt	r0, (UNDEF: 17)
    1368:	03000000 	movweq	r0, #0
    136c:	00002600 	andeq	r2, r0, r0, lsl #12
    1370:	fb010200 	blx	41b7a <__bss_end__+0x385e2>
    1374:	01000d0e 	tsteq	r0, lr, lsl #26
    1378:	00010101 	andeq	r0, r1, r1, lsl #2
    137c:	00010000 	andeq	r0, r1, r0
    1380:	2f2e0100 	svccs	0x002e0100
    1384:	6362696c 	cmnvs	r2, #108, 18	; 0x1b0000
    1388:	74730000 	ldrbtvc	r0, [r3], #-0
    138c:	74616372 	strbtvc	r6, [r1], #-882	; 0xfffffc8e
    1390:	0100632e 	tsteq	r0, lr, lsr #6
    1394:	05000000 	streq	r0, [r0, #-0]
    1398:	0205002c 	andeq	r0, r5, #44	; 0x2c
    139c:	00008f0c 	andeq	r8, r0, ip, lsl #30
    13a0:	13050515 	movwne	r0, #21781	; 0x5515
    13a4:	060b0513 			; <UNDEFINED> instruction: 0x060b0513
    13a8:	00050511 	andeq	r0, r5, r1, lsl r5
    13ac:	06010402 	streq	r0, [r1], -r2, lsl #8
    13b0:	04020030 	streq	r0, [r2], #-48	; 0xffffffd0
    13b4:	09051501 	stmdbeq	r5, {r0, r8, sl, ip}
    13b8:	01040200 	mrseq	r0, R12_usr
    13bc:	00100513 	andseq	r0, r0, r3, lsl r5
    13c0:	06010402 	streq	r0, [r1], -r2, lsl #8
    13c4:	000b052e 	andeq	r0, fp, lr, lsr #10
    13c8:	2e010402 	cdpcs	4, 0, cr0, cr1, cr2, {0}
    13cc:	01040200 	mrseq	r0, R12_usr
    13d0:	05052f06 	streq	r2, [r5, #-3846]	; 0xfffff0fa
    13d4:	01040200 	mrseq	r0, R12_usr
    13d8:	4e060106 	adfmis	f0, f6, f6
    13dc:	01060805 	tsteq	r6, r5, lsl #16
    13e0:	02000505 	andeq	r0, r0, #20971520	; 0x1400000
    13e4:	2f060104 	svccs	0x00060104
    13e8:	02000905 	andeq	r0, r0, #81920	; 0x14000
    13ec:	05130104 	ldreq	r0, [r3, #-260]	; 0xfffffefc
    13f0:	0402000b 	streq	r0, [r2], #-11
    13f4:	05010601 	streq	r0, [r1, #-1537]	; 0xfffff9ff
    13f8:	04020009 	streq	r0, [r2], #-9
    13fc:	054b0601 	strbeq	r0, [fp, #-1537]	; 0xfffff9ff
    1400:	0402000f 	streq	r0, [r2], #-15
    1404:	05010601 	streq	r0, [r1, #-1537]	; 0xfffff9ff
    1408:	0402000d 	streq	r0, [r2], #-13
    140c:	052f0601 	streq	r0, [pc, #-1537]!	; e13 <__code_start__-0x71ed>
    1410:	04020005 	streq	r0, [r2], #-5
    1414:	02010601 	andeq	r0, r1, #1048576	; 0x100000
    1418:	01010006 	tsteq	r1, r6
    141c:	0000006e 	andeq	r0, r0, lr, rrx
    1420:	00260003 	eoreq	r0, r6, r3
    1424:	01020000 	mrseq	r0, (UNDEF: 2)
    1428:	000d0efb 	strdeq	r0, [sp], -fp
    142c:	01010101 	tsteq	r1, r1, lsl #2
    1430:	01000000 	mrseq	r0, (UNDEF: 0)
    1434:	2e010000 	cdpcs	0, 0, cr0, cr1, cr0, {0}
    1438:	62696c2f 	rsbvs	r6, r9, #12032	; 0x2f00
    143c:	73000063 	movwvc	r0, #99	; 0x63
    1440:	6d637274 	sfmvs	f7, 2, [r3, #-464]!	; 0xfffffe30
    1444:	00632e70 	rsbeq	r2, r3, r0, ror lr
    1448:	00000001 	andeq	r0, r0, r1
    144c:	05002a05 	streq	r2, [r0, #-2565]	; 0xfffff5fb
    1450:	008f4002 	addeq	r4, pc, r2
    1454:	09051400 	stmdbeq	r5, {sl, ip}
    1458:	060f0513 			; <UNDEFINED> instruction: 0x060f0513
    145c:	06110501 	ldreq	r0, [r1], -r1, lsl #10
    1460:	0616052f 	ldreq	r0, [r6], -pc, lsr #10
    1464:	060f052e 	streq	r0, [pc], -lr, lsr #10
    1468:	0610052d 	ldreq	r0, [r0], -sp, lsr #10
    146c:	2e0f0501 	cfsh32cs	mvfx0, mvfx15, #1
    1470:	02001c05 	andeq	r1, r0, #1280	; 0x500
    1474:	054a0104 	strbeq	r0, [sl, #-260]	; 0xfffffefc
    1478:	04020013 	streq	r0, [r2], #-19	; 0xffffffed
    147c:	09052e01 	stmdbeq	r5, {r0, r9, sl, fp, sp}
    1480:	15054c06 	strne	r4, [r5, #-3078]	; 0xfffff3fa
    1484:	01050106 	tsteq	r5, r6, lsl #2
    1488:	0004022f 	andeq	r0, r4, pc, lsr #4
    148c:	00bc0101 	adcseq	r0, ip, r1, lsl #2
    1490:	00030000 	andeq	r0, r3, r0
    1494:	00000080 	andeq	r0, r0, r0, lsl #1
    1498:	0efb0102 	cdpeq	1, 15, cr0, cr11, cr2, {0}
    149c:	0101000d 	tsteq	r1, sp
    14a0:	00000101 	andeq	r0, r0, r1, lsl #2
    14a4:	00000100 	andeq	r0, r0, r0, lsl #2
    14a8:	6c2f2e01 	stcvs	14, cr2, [pc], #-4	; 14ac <__code_start__-0x6b54>
    14ac:	00636269 	rsbeq	r6, r3, r9, ror #4
    14b0:	7273752f 	rsbsvc	r7, r3, #197132288	; 0xbc00000
    14b4:	74706f2f 	ldrbtvc	r6, [r0], #-3887	; 0xfffff0d1
    14b8:	6363672f 	cmnvs	r3, #12320768	; 0xbc0000
    14bc:	6d72612d 	ldfvse	f6, [r2, #-180]!	; 0xffffff4c
    14c0:	6e6f6e2d 	cdpvs	14, 6, cr6, cr15, cr13, {1}
    14c4:	61652d65 	cmnvs	r5, r5, ror #26
    14c8:	312d6962 			; <UNDEFINED> instruction: 0x312d6962
    14cc:	2d332e30 	ldccs	14, cr2, [r3, #-192]!	; 0xffffff40
    14d0:	31323032 	teqcc	r2, r2, lsr r0
    14d4:	2f30312e 	svccs	0x0030312e
    14d8:	2f62696c 	svccs	0x0062696c
    14dc:	2f636367 	svccs	0x00636367
    14e0:	2d6d7261 	sfmcs	f7, 2, [sp, #-388]!	; 0xfffffe7c
    14e4:	656e6f6e 	strbvs	r6, [lr, #-3950]!	; 0xfffff092
    14e8:	6261652d 	rsbvs	r6, r1, #188743680	; 0xb400000
    14ec:	30312f69 	eorscc	r2, r1, r9, ror #30
    14f0:	312e332e 			; <UNDEFINED> instruction: 0x312e332e
    14f4:	636e692f 	cmnvs	lr, #770048	; 0xbc000
    14f8:	6564756c 	strbvs	r7, [r4, #-1388]!	; 0xfffffa94
    14fc:	74730000 	ldrbtvc	r0, [r3], #-0
    1500:	6d636e72 	stclvs	14, cr6, [r3, #-456]!	; 0xfffffe38
    1504:	00632e70 	rsbeq	r2, r3, r0, ror lr
    1508:	73000001 	movwvc	r0, #1
    150c:	65646474 	strbvs	r6, [r4, #-1140]!	; 0xfffffb8c
    1510:	00682e66 	rsbeq	r2, r8, r6, ror #28
    1514:	00000002 	andeq	r0, r0, r2
    1518:	05003905 	streq	r3, [r0, #-2309]	; 0xfffff6fb
    151c:	008f7002 	addeq	r7, pc, r2
    1520:	05051500 	streq	r1, [r5, #-1280]	; 0xfffffb00
    1524:	0a051313 	beq	146178 <__bss_end__+0x13cbe0>
    1528:	4a010601 	bmi	42d34 <__bss_end__+0x3979c>
    152c:	2f060905 	svccs	0x00060905
    1530:	01060c05 	tsteq	r6, r5, lsl #24
    1534:	052e1305 	streq	r1, [lr, #-773]!	; 0xfffffcfb
    1538:	0d052e0b 	stceq	14, cr2, [r5, #-44]	; 0xffffffd4
    153c:	1b054b06 	blne	15415c <__bss_end__+0x14abc4>
    1540:	052e0106 	streq	r0, [lr, #-262]!	; 0xfffffefa
    1544:	0105300c 	tsteq	r5, ip
    1548:	0002022f 	andeq	r0, r2, pc, lsr #4
    154c:	Address 0x000000000000154c is out of bounds.


Disassembly of section .debug_str:

00000000 <.debug_str>:
   0:	5f78616d 	svcpl	0x0078616d
   4:	6c637963 			; <UNDEFINED> instruction: 0x6c637963
   8:	74007365 	strvc	r7, [r0], #-869	; 0xfffffc9b
   c:	655f746f 	ldrbvs	r7, [pc, #-1135]	; fffffba5 <__bss_end__+0xffff660d>
  10:	2f007272 	svccs	0x00007272
  14:	656d6f68 	strbvs	r6, [sp, #-3944]!	; 0xfffff098
  18:	7261702f 	rsbvc	r7, r1, #47	; 0x2f
  1c:	76696874 			; <UNDEFINED> instruction: 0x76696874
  20:	636f442f 	cmnvs	pc, #788529152	; 0x2f000000
  24:	6e656d75 	mcrvs	13, 3, r6, cr5, cr5, {3}
  28:	632f7374 			; <UNDEFINED> instruction: 0x632f7374
  2c:	30343273 	eorscc	r3, r4, r3, ror r2
  30:	632f786c 			; <UNDEFINED> instruction: 0x632f786c
  34:	30343273 	eorscc	r3, r4, r3, ror r2
  38:	6c2f786c 	stcvs	8, cr7, [pc], #-432	; fffffe90 <__bss_end__+0xffff68f8>
  3c:	2f736261 	svccs	0x00736261
  40:	69642d33 	stmdbvs	r4!, {r0, r1, r4, r5, r8, sl, fp, sp}^
  44:	61746967 	cmnvs	r4, r7, ror #18
  48:	6e612d6c 	cdpvs	13, 6, cr2, cr1, cr12, {3}
  4c:	7a796c61 	bvc	1e5b1d8 <__bss_end__+0x1e51c40>
  50:	632f7265 			; <UNDEFINED> instruction: 0x632f7265
  54:	2f65646f 	svccs	0x0065646f
  58:	706f6373 	rsbvc	r6, pc, r3, ror r3	; <UNPREDICTABLE>
  5c:	636e0065 	cmnvs	lr, #101	; 0x65
  60:	6e006379 	mcrvs	3, 0, r6, cr0, cr9, {3}
  64:	78616d5f 	stmdavc	r1!, {r0, r1, r2, r3, r4, r6, r8, sl, fp, sp, lr}^
  68:	746f6e00 	strbtvc	r6, [pc], #-3584	; 70 <__code_start__-0x7f90>
  6c:	6e69616d 	powvsez	f6, f1, #5.0
  70:	69706700 	ldmdbvs	r0!, {r8, r9, sl, sp, lr}^
  74:	65725f6f 	ldrbvs	r5, [r2, #-3951]!	; 0xfffff091
  78:	75006461 	strvc	r6, [r0, #-1121]	; 0xfffffb9f
  7c:	6769736e 	strbvs	r7, [r9, -lr, ror #6]!
  80:	2064656e 	rsbcs	r6, r4, lr, ror #10
  84:	72616863 	rsbvc	r6, r1, #6488064	; 0x630000
  88:	79636e00 	stmdbvc	r3!, {r9, sl, fp, sp, lr}^
  8c:	73656c63 	cmnvc	r5, #25344	; 0x6300
  90:	656c6300 	strbvs	r6, [ip, #-768]!	; 0xfffffd00
  94:	725f6e61 	subsvc	r6, pc, #1552	; 0x610
  98:	6f6f6265 	svcvs	0x006f6265
  9c:	736d0074 	cmnvc	sp, #116	; 0x74
  a0:	745f6365 	ldrbvc	r6, [pc], #-869	; a8 <__code_start__-0x7f58>
  a4:	79635f6f 	stmdbvc	r3!, {r0, r1, r2, r3, r5, r6, r8, r9, sl, fp, ip, lr}^
  a8:	00656c63 	rsbeq	r6, r5, r3, ror #24
  ac:	726f6873 	rsbvc	r6, pc, #7536640	; 0x730000
  b0:	6e752074 	mrcvs	0, 3, r2, cr5, cr4, {3}
  b4:	6e676973 			; <UNDEFINED> instruction: 0x6e676973
  b8:	69206465 	stmdbvs	r0!, {r0, r2, r5, r6, sl, sp, lr}
  bc:	6700746e 	strvs	r7, [r0, -lr, ror #8]
  c0:	5f6f6970 	svcpl	0x006f6970
  c4:	5f746573 	svcpl	0x00746573
  c8:	75706e69 	ldrbvc	r6, [r0, #-3689]!	; 0xfffff197
  cc:	6f5f0074 	svcvs	0x005f0074
  d0:	6c007475 	cfstrsvs	mvf7, [r0], {117}	; 0x75
  d4:	5f706f6f 	svcpl	0x00706f6f
  d8:	6c6c6974 			; <UNDEFINED> instruction: 0x6c6c6974
  dc:	5f31325f 	svcpl	0x0031325f
  e0:	00776f6c 	rsbseq	r6, r7, ip, ror #30
  e4:	64616572 	strbtvs	r6, [r1], #-1394	; 0xfffffa8e
  e8:	6d69745f 	cfstrdvs	mvd7, [r9, #-380]!	; 0xfffffe84
  ec:	75640065 	strbvc	r0, [r4, #-101]!	; 0xffffff9b
  f0:	735f706d 	cmpvc	pc, #109	; 0x6d
  f4:	6c706d61 	ldclvs	13, cr6, [r0], #-388	; 0xfffffe7c
  f8:	73007365 	movwvc	r7, #869	; 0x365
  fc:	65706f63 	ldrbvs	r6, [r0, #-3939]!	; 0xfffff09d
 100:	4700632e 	strmi	r6, [r0, -lr, lsr #6]
 104:	4320554e 			; <UNDEFINED> instruction: 0x4320554e
 108:	31203939 			; <UNDEFINED> instruction: 0x31203939
 10c:	2e332e30 	mrccs	14, 1, r2, cr3, cr0, {1}
 110:	30322031 	eorscc	r2, r2, r1, lsr r0
 114:	38303132 	ldmdacc	r0!, {r1, r4, r5, r8, ip, sp}
 118:	28203432 	stmdacs	r0!, {r1, r4, r5, sl, ip, sp}
 11c:	656c6572 	strbvs	r6, [ip, #-1394]!	; 0xfffffa8e
 120:	29657361 	stmdbcs	r5!, {r0, r5, r6, r8, r9, ip, sp, lr}^
 124:	636d2d20 	cmnvs	sp, #32, 26	; 0x800
 128:	613d7570 	teqvs	sp, r0, ror r5
 12c:	31316d72 	teqcc	r1, r2, ror sp
 130:	7a6a3637 	bvc	1a8da14 <__bss_end__+0x1a8447c>
 134:	20732d66 	rsbscs	r2, r3, r6, ror #26
 138:	75746d2d 	ldrbvc	r6, [r4, #-3373]!	; 0xfffff2d3
 13c:	613d656e 	teqvs	sp, lr, ror #10
 140:	31316d72 	teqcc	r1, r2, ror sp
 144:	7a6a3637 	bvc	1a8da28 <__bss_end__+0x1a84490>
 148:	20732d66 	rsbscs	r2, r3, r6, ror #26
 14c:	6c666d2d 	stclvs	13, cr6, [r6], #-180	; 0xffffff4c
 150:	2d74616f 	ldfcse	f6, [r4, #-444]!	; 0xfffffe44
 154:	3d696261 	sfmcc	f6, 2, [r9, #-388]!	; 0xfffffe7c
 158:	74666f73 	strbtvc	r6, [r6], #-3955	; 0xfffff08d
 15c:	616d2d20 	cmnvs	sp, r0, lsr #26
 160:	2d206d72 	stccs	13, cr6, [r0, #-456]!	; 0xfffffe38
 164:	6372616d 	cmnvs	r2, #1073741851	; 0x4000001b
 168:	72613d68 	rsbvc	r3, r1, #104, 26	; 0x1a00
 16c:	6b36766d 	blvs	d9db28 <__bss_end__+0xd94590>
 170:	672d207a 			; <UNDEFINED> instruction: 0x672d207a
 174:	20626467 	rsbcs	r6, r2, r7, ror #8
 178:	20674f2d 	rsbcs	r4, r7, sp, lsr #30
 17c:	6474732d 	ldrbtvs	r7, [r4], #-813	; 0xfffffcd3
 180:	756e673d 	strbvc	r6, [lr, #-1853]!	; 0xfffff8c3
 184:	2d203939 			; <UNDEFINED> instruction: 0x2d203939
 188:	65726666 	ldrbvs	r6, [r2, #-1638]!	; 0xfffff99a
 18c:	61747365 	cmnvs	r4, r5, ror #6
 190:	6e69646e 	cdpvs	4, 6, cr6, cr9, cr14, {3}
 194:	73750067 	cmnvc	r5, #103	; 0x67
 198:	745f6365 	ldrbvc	r6, [pc], #-869	; 1a0 <__code_start__-0x7e60>
 19c:	79635f6f 	stmdbvc	r3!, {r0, r1, r2, r3, r5, r6, r8, r9, sl, fp, ip, lr}^
 1a0:	00656c63 	rsbeq	r6, r5, r3, ror #24
 1a4:	676e6f6c 	strbvs	r6, [lr, -ip, ror #30]!
 1a8:	6e6f6c20 	cdpvs	12, 6, cr6, cr15, cr0, {1}
 1ac:	6e752067 	cdpvs	0, 7, cr2, cr5, cr7, {3}
 1b0:	6e676973 			; <UNDEFINED> instruction: 0x6e676973
 1b4:	69206465 	stmdbvs	r0!, {r0, r2, r5, r6, sl, sp, lr}
 1b8:	7000746e 	andvc	r7, r0, lr, ror #8
 1bc:	6f697265 	svcvs	0x00697265
 1c0:	6f6c0064 	svcvs	0x006c0064
 1c4:	6c20676e 	stcvs	7, cr6, [r0], #-440	; 0xfffffe48
 1c8:	20676e6f 	rsbcs	r6, r7, pc, ror #28
 1cc:	00746e69 	rsbseq	r6, r4, r9, ror #28
 1d0:	76657270 			; <UNDEFINED> instruction: 0x76657270
 1d4:	616e6500 	cmnvs	lr, r0, lsl #10
 1d8:	5f656c62 	svcpl	0x00656c62
 1dc:	68636163 	stmdavs	r3!, {r0, r1, r5, r6, r8, sp, lr}^
 1e0:	68730065 	ldmdavs	r3!, {r0, r2, r5, r6}^
 1e4:	2074726f 	rsbscs	r7, r4, pc, ror #4
 1e8:	00746e69 	rsbseq	r6, r4, r9, ror #28
 1ec:	706f6f6c 	rsbvc	r6, pc, ip, ror #30
 1f0:	6c69745f 	cfstrdvs	mvd7, [r9], #-380	; 0xfffffe84
 1f4:	31325f6c 	teqcc	r2, ip, ror #30
 1f8:	6769685f 			; <UNDEFINED> instruction: 0x6769685f
 1fc:	666f0068 	strbtvs	r0, [pc], -r8, rrx
 200:	6c007473 	cfstrsvs	mvf7, [r0], {115}	; 0x73
 204:	655f676f 	ldrbvs	r6, [pc, #-1903]	; fffffa9d <__bss_end__+0xffff6505>
 208:	745f746e 	ldrbvc	r7, [pc], #-1134	; 210 <__code_start__-0x7df0>
 20c:	69706700 	ldmdbvs	r0!, {r8, r9, sl, sp, lr}^
 210:	6c635f6f 	stclvs	15, cr5, [r3], #-444	; 0xfffffe44
 214:	67003072 	smlsdxvs	r0, r2, r0, r3
 218:	5f6f6970 	svcpl	0x006f6970
 21c:	30746573 	rsbscc	r6, r4, r3, ror r5
 220:	6f682f00 	svcvs	0x00682f00
 224:	702f656d 	eorvc	r6, pc, sp, ror #10
 228:	68747261 	ldmdavs	r4!, {r0, r5, r6, r9, ip, sp, lr}^
 22c:	442f7669 	strtmi	r7, [pc], #-1641	; 234 <__code_start__-0x7dcc>
 230:	6d75636f 	ldclvs	3, cr6, [r5, #-444]!	; 0xfffffe44
 234:	73746e65 	cmnvc	r4, #1616	; 0x650
 238:	3273632f 	rsbscc	r6, r3, #-1140850688	; 0xbc000000
 23c:	786c3034 	stmdavc	ip!, {r2, r4, r5, ip, sp}^
 240:	3273632f 	rsbscc	r6, r3, #-1140850688	; 0xbc000000
 244:	786c3034 	stmdavc	ip!, {r2, r4, r5, ip, sp}^
 248:	62696c2f 	rsbvs	r6, r9, #12032	; 0x2f00
 24c:	47006970 	smlsdxmi	r0, r0, r9, r6
 250:	5f4f4950 	svcpl	0x004f4950
 254:	434e5546 	movtmi	r5, #58694	; 0xe546
 258:	54554f5f 	ldrbpl	r4, [r5], #-3935	; 0xfffff0a1
 25c:	00545550 	subseq	r5, r4, r0, asr r5
 260:	5f564544 	svcpl	0x00564544
 264:	334c4156 	movtcc	r4, #49494	; 0xc156
 268:	55500032 	ldrbpl	r0, [r0, #-50]	; 0xffffffce
 26c:	00323354 	eorseq	r3, r2, r4, asr r3
 270:	33544547 	cmpcc	r4, #297795584	; 0x11c00000
 274:	50470032 	subpl	r0, r7, r2, lsr r0
 278:	465f4f49 	ldrbmi	r4, [pc], -r9, asr #30
 27c:	5f434e55 	svcpl	0x00434e55
 280:	30544c41 	subscc	r4, r4, r1, asr #24
 284:	49504700 	ldmdbmi	r0, {r8, r9, sl, lr}^
 288:	55465f4f 	strbpl	r5, [r6, #-3919]	; 0xfffff0b1
 28c:	415f434e 	cmpmi	pc, lr, asr #6
 290:	0031544c 	eorseq	r5, r1, ip, asr #8
 294:	4f495047 	svcmi	0x00495047
 298:	4e55465f 	mrcmi	6, 2, r4, cr5, cr15, {2}
 29c:	4c415f43 	mcrrmi	15, 4, r5, r1, cr3
 2a0:	47003254 	smlsdmi	r0, r4, r2, r3
 2a4:	5f4f4950 	svcpl	0x004f4950
 2a8:	434e5546 	movtmi	r5, #58694	; 0xe546
 2ac:	544c415f 	strbpl	r4, [ip], #-351	; 0xfffffea1
 2b0:	50470033 	subpl	r0, r7, r3, lsr r0
 2b4:	465f4f49 	ldrbmi	r4, [pc], -r9, asr #30
 2b8:	5f434e55 	svcpl	0x00434e55
 2bc:	35544c41 	ldrbcc	r4, [r4, #-3137]	; 0xfffff3bf
 2c0:	732f2e00 			; <UNDEFINED> instruction: 0x732f2e00
 2c4:	672f6372 			; <UNDEFINED> instruction: 0x672f6372
 2c8:	2e6f6970 			; <UNDEFINED> instruction: 0x2e6f6970
 2cc:	70670063 	rsbvc	r0, r7, r3, rrx
 2d0:	735f6f69 	cmpvc	pc, #420	; 0x1a4
 2d4:	6f5f7465 	svcvs	0x005f7465
 2d8:	67006666 	strvs	r6, [r0, -r6, ror #12]
 2dc:	5f6f6970 	svcpl	0x006f6970
 2e0:	5f746573 	svcpl	0x00746573
 2e4:	7074756f 	rsbsvc	r7, r4, pc, ror #10
 2e8:	66007475 			; <UNDEFINED> instruction: 0x66007475
 2ec:	00636e75 	rsbeq	r6, r3, r5, ror lr
 2f0:	6f697067 	svcvs	0x00697067
 2f4:	6e75665f 	mrcvs	6, 3, r6, cr5, cr15, {2}
 2f8:	00745f63 	rsbseq	r5, r4, r3, ror #30
 2fc:	6f697067 	svcvs	0x00697067
 300:	76656c5f 			; <UNDEFINED> instruction: 0x76656c5f
 304:	70670030 	rsbvc	r0, r7, r0, lsr r0
 308:	775f6f69 	ldrbvc	r6, [pc, -r9, ror #30]
 30c:	65746972 	ldrbvs	r6, [r4, #-2418]!	; 0xfffff68e
 310:	49504700 	ldmdbmi	r0, {r8, r9, sl, lr}^
 314:	55465f4f 	strbpl	r5, [r6, #-3919]	; 0xfffff0b1
 318:	415f434e 	cmpmi	pc, lr, asr #6
 31c:	0034544c 	eorseq	r5, r4, ip, asr #8
 320:	6b6e6162 	blvs	1b988b0 <__bss_end__+0x1b8f318>
 324:	6e697500 	cdpvs	5, 6, cr7, cr9, cr0, {0}
 328:	5f323374 	svcpl	0x00323374
 32c:	50470074 	subpl	r0, r7, r4, ror r0
 330:	465f4f49 	ldrbmi	r4, [pc], -r9, asr #30
 334:	5f434e55 	svcpl	0x00434e55
 338:	55504e49 	ldrbpl	r4, [r0, #-3657]	; 0xfffff1b7
 33c:	70670054 	rsbvc	r0, r7, r4, asr r0
 340:	735f6f69 	cmpvc	pc, #420	; 0x1a4
 344:	665f7465 	ldrbvs	r7, [pc], -r5, ror #8
 348:	74636e75 	strbtvc	r6, [r3], #-3701	; 0xfffff18b
 34c:	006e6f69 	rsbeq	r6, lr, r9, ror #30
 350:	6f697067 	svcvs	0x00697067
 354:	7465735f 	strbtvc	r7, [r5], #-863	; 0xfffffca1
 358:	006e6f5f 	rsbeq	r6, lr, pc, asr pc
 35c:	73677261 	cmnvc	r7, #268435462	; 0x10000006
 360:	5f617600 	svcpl	0x00617600
 364:	6e697270 	mcrvs	2, 3, r7, cr9, cr0, {3}
 368:	5f006b74 	svcpl	0x00006b74
 36c:	756e675f 	strbvc	r6, [lr, #-1887]!	; 0xfffff8a1
 370:	61765f63 	cmnvs	r6, r3, ror #30
 374:	73696c5f 	cmnvc	r9, #24320	; 0x5f00
 378:	5f5f0074 	svcpl	0x005f0074
 37c:	2e007061 	cdpcs	0, 0, cr7, cr0, cr1, {3}
 380:	62696c2f 	rsbvs	r6, r9, #12032	; 0x2f00
 384:	72702f63 	rsbsvc	r2, r0, #396	; 0x18c
 388:	6b746e69 	blvs	1d1bd34 <__bss_end__+0x1d1279c>
 38c:	5f00632e 	svcpl	0x0000632e
 390:	5f61765f 	svcpl	0x0061765f
 394:	7473696c 	ldrbtvc	r6, [r3], #-2412	; 0xfffff694
 398:	746e6900 	strbtvc	r6, [lr], #-2304	; 0xfffff700
 39c:	616e7265 	cmnvs	lr, r5, ror #4
 3a0:	75705f6c 	ldrbvc	r5, [r0, #-3948]!	; 0xfffff094
 3a4:	72006b74 	andvc	r6, r0, #116, 22	; 0x1d000
 3a8:	705f6970 	subsvc	r6, pc, r0, ror r9	; <UNPREDICTABLE>
 3ac:	68637475 	stmdavs	r3!, {r0, r2, r4, r5, r6, sl, ip, sp, lr}^
 3b0:	2e007261 	cdpcs	2, 0, cr7, cr0, cr1, {3}
 3b4:	62696c2f 	rsbvs	r6, r9, #12032	; 0x2f00
 3b8:	75702f63 	ldrbvc	r2, [r0, #-3939]!	; 0xfffff09d
 3bc:	632e6b74 			; <UNDEFINED> instruction: 0x632e6b74
 3c0:	746e6900 	strbtvc	r6, [lr], #-2304	; 0xfffff700
 3c4:	616e7265 	cmnvs	lr, r5, ror #4
 3c8:	75705f6c 	ldrbvc	r5, [r0, #-3948]!	; 0xfffff094
 3cc:	61686374 	smcvs	34356	; 0x8634
 3d0:	70720072 	rsbsvc	r0, r2, r2, ror r0
 3d4:	65735f69 	ldrbvs	r5, [r3, #-3945]!	; 0xfffff097
 3d8:	75705f74 	ldrbvc	r5, [r0, #-3956]!	; 0xfffff08c
 3dc:	2e006374 	mcrcs	3, 0, r6, cr0, cr4, {3}
 3e0:	62696c2f 	rsbvs	r6, r9, #12032	; 0x2f00
 3e4:	75702f63 	ldrbvc	r2, [r0, #-3939]!	; 0xfffff09d
 3e8:	61686374 	smcvs	34356	; 0x8634
 3ec:	00632e72 	rsbeq	r2, r3, r2, ror lr
 3f0:	74726175 	ldrbtvc	r6, [r2], #-373	; 0xfffffe8b
 3f4:	7475705f 	ldrbtvc	r7, [r5], #-95	; 0xffffffa1
 3f8:	70720063 	rsbsvc	r0, r2, r3, rrx
 3fc:	65725f69 	ldrbvs	r5, [r2, #-3945]!	; 0xfffff097
 400:	5f746573 	svcpl	0x00746573
 404:	63747570 	cmnvs	r4, #112, 10	; 0x1c000000
 408:	64736900 	ldrbtvs	r6, [r3], #-2304	; 0xfffff700
 40c:	74696769 	strbtvc	r6, [r9], #-1897	; 0xfffff897
 410:	6e697500 	cdpvs	5, 6, cr7, cr9, cr0, {0}
 414:	5f343674 	svcpl	0x00343674
 418:	2f2e0074 	svccs	0x002e0074
 41c:	6362696c 	cmnvs	r2, #108, 18	; 0x1b0000
 420:	2d61762f 	stclcs	6, cr7, [r1, #-188]!	; 0xffffff44
 424:	6e697270 	mcrvs	2, 3, r7, cr9, cr0, {3}
 428:	632e6b74 			; <UNDEFINED> instruction: 0x632e6b74
 42c:	64697700 	strbtvs	r7, [r9], #-1792	; 0xfffff900
 430:	5f006874 	svcpl	0x00006874
 434:	4e55465f 	mrcmi	6, 2, r4, cr5, cr15, {2}
 438:	4f495443 	svcmi	0x00495443
 43c:	005f5f4e 	subseq	r5, pc, lr, asr #30
 440:	63747570 	cmnvs	r4, #112, 10	; 0x1c000000
 444:	0070665f 	rsbseq	r6, r0, pc, asr r6
 448:	5f697072 	svcpl	0x00697072
 44c:	5f746573 	svcpl	0x00746573
 450:	7074756f 	rsbsvc	r7, r4, pc, ror #10
 454:	66007475 			; <UNDEFINED> instruction: 0x66007475
 458:	735f746d 	cmpvc	pc, #1828716544	; 0x6d000000
 45c:	74726174 	ldrbtvc	r6, [r2], #-372	; 0xfffffe8c
 460:	72747300 	rsbsvc	r7, r4, #0, 6
 464:	00746163 	rsbseq	r6, r4, r3, ror #2
 468:	63727473 	cmnvs	r2, #1929379840	; 0x73000000
 46c:	6e007970 			; <UNDEFINED> instruction: 0x6e007970
 470:	705f6765 	subsvc	r6, pc, r5, ror #14
 474:	696d6500 	stmdbvs	sp!, {r8, sl, sp, lr}^
 478:	75700074 	ldrbvc	r0, [r0, #-116]!	; 0xffffff8c
 47c:	665f7374 			; <UNDEFINED> instruction: 0x665f7374
 480:	65720070 	ldrbvs	r0, [r2, #-112]!	; 0xffffff90
 484:	73726576 	cmnvc	r2, #494927872	; 0x1d800000
 488:	74730065 	ldrbtvc	r0, [r3], #-101	; 0xffffff9b
 48c:	706d6372 	rsbvc	r6, sp, r2, ror r3
 490:	6d756e00 	ldclvs	14, cr6, [r5, #-0]
 494:	74730031 	ldrbtvc	r0, [r3], #-49	; 0xffffffcf
 498:	6d636e72 	stclvs	14, cr6, [r3, #-456]!	; 0xfffffe38
 49c:	61620070 	smcvs	8192	; 0x2000
 4a0:	73006573 	movwvc	r6, #1395	; 0x573
 4a4:	656e6769 	strbvs	r6, [lr, #-1897]!	; 0xfffff897
 4a8:	00705f64 	rsbseq	r5, r0, r4, ror #30
 4ac:	5f697072 	svcpl	0x00697072
 4b0:	6f626572 	svcvs	0x00626572
 4b4:	6400746f 	strvs	r7, [r0], #-1135	; 0xfffffb91
 4b8:	79616c65 	stmdbvc	r1!, {r0, r2, r5, r6, sl, fp, sp, lr}^
 4bc:	00736d5f 	rsbseq	r6, r3, pc, asr sp
 4c0:	74732f2e 	ldrbtvc	r2, [r3], #-3886	; 0xfffff0d2
 4c4:	2d666661 	stclcs	6, cr6, [r6, #-388]!	; 0xfffffe7c
 4c8:	2f637273 	svccs	0x00637273
 4cc:	61656c63 	cmnvs	r5, r3, ror #24
 4d0:	65722d6e 	ldrbvs	r2, [r2, #-3438]!	; 0xfffff292
 4d4:	746f6f62 	strbtvc	r6, [pc], #-3938	; 4dc <__code_start__-0x7b24>
 4d8:	7500632e 	strvc	r6, [r0, #-814]	; 0xfffffcd2
 4dc:	5f747261 	svcpl	0x00747261
 4e0:	73756c66 	cmnvc	r5, #26112	; 0x6600
 4e4:	78745f68 	ldmdavc	r4!, {r3, r5, r6, r8, r9, sl, fp, ip, lr}^
 4e8:	625f5f00 	subsvs	r5, pc, #0, 30
 4ec:	735f7373 	cmpvc	pc, #-872415231	; 0xcc000001
 4f0:	74726174 	ldrbtvc	r6, [r2], #-372	; 0xfffffe8c
 4f4:	5f005f5f 	svcpl	0x00005f5f
 4f8:	61747363 	cmnvs	r4, r3, ror #6
 4fc:	62007472 	andvs	r7, r0, #1912602624	; 0x72000000
 500:	655f7373 	ldrbvs	r7, [pc, #-883]	; 195 <__code_start__-0x7e6b>
 504:	7500646e 	strvc	r6, [r0, #-1134]	; 0xfffffb92
 508:	5f747261 	svcpl	0x00747261
 50c:	74696e69 	strbtvc	r6, [r9], #-3689	; 0xfffff197
 510:	73756300 	cmnvc	r5, #0, 6
 514:	5f6d6f74 	svcpl	0x006d6f74
 518:	64616f6c 	strbtvs	r6, [r1], #-3948	; 0xfffff094
 51c:	2e007265 	cdpcs	2, 0, cr7, cr0, cr5, {3}
 520:	6174732f 	cmnvs	r4, pc, lsr #6
 524:	732d6666 			; <UNDEFINED> instruction: 0x732d6666
 528:	632f6372 			; <UNDEFINED> instruction: 0x632f6372
 52c:	72617473 	rsbvc	r7, r1, #1929379840	; 0x73000000
 530:	00632e74 	rsbeq	r2, r3, r4, ror lr
 534:	73625f5f 	cmnvc	r2, #380	; 0x17c
 538:	6e655f73 	mcrvs	15, 3, r5, cr5, cr3, {3}
 53c:	005f5f64 	subseq	r5, pc, r4, ror #30
 540:	61736964 	cmnvs	r3, r4, ror #18
 544:	5f656c62 	svcpl	0x00656c62
 548:	68636163 	stmdavs	r3!, {r0, r1, r5, r6, r8, sp, lr}^
 54c:	2f2e0065 	svccs	0x002e0065
 550:	66617473 			; <UNDEFINED> instruction: 0x66617473
 554:	72732d66 	rsbsvc	r2, r3, #6528	; 0x1980
 558:	61632f63 	cmnvs	r3, r3, ror #30
 55c:	2e656863 	cdpcs	8, 6, cr6, cr5, cr3, {3}
 560:	65720063 	ldrbvs	r0, [r2, #-99]!	; 0xffffff9d
 564:	746f6f62 	strbtvc	r6, [pc], #-3938	; 56c <__code_start__-0x7a94>
 568:	6c61635f 	stclvs	3, cr6, [r1], #-380	; 0xfffffe84
 56c:	74756f6c 	ldrbtvc	r6, [r5], #-3948	; 0xfffff094
 570:	5f4d5000 	svcpl	0x004d5000
 574:	474f4457 	smlsldmi	r4, pc, r7, r4	; <UNPREDICTABLE>
 578:	74657300 	strbtvc	r7, [r5], #-768	; 0xfffffd00
 57c:	6573755f 	ldrbvs	r7, [r3, #-1375]!	; 0xfffffaa1
 580:	656c5f72 	strbvs	r5, [ip, #-3954]!	; 0xfffff08e
 584:	006c6576 	rsbeq	r6, ip, r6, ror r5
 588:	74732f2e 	ldrbtvc	r2, [r3], #-3886	; 0xfffff0d2
 58c:	2d666661 	stclcs	6, cr6, [r6, #-388]!	; 0xfffffe7c
 590:	2f637273 	svccs	0x00637273
 594:	6f626572 	svcvs	0x00626572
 598:	632e746f 			; <UNDEFINED> instruction: 0x632e746f
 59c:	5f4d5000 	svcpl	0x004d5000
 5a0:	53534150 	cmppl	r3, #80, 2
 5a4:	44524f57 	ldrbmi	r4, [r2], #-3927	; 0xfffff0a9
 5a8:	5f746100 	svcpl	0x00746100
 5ac:	72657375 	rsbvc	r7, r5, #-738197503	; 0xd4000001
 5b0:	76656c5f 			; <UNDEFINED> instruction: 0x76656c5f
 5b4:	50006c65 	andpl	r6, r0, r5, ror #24
 5b8:	53525f4d 	cmppl	r2, #308	; 0x134
 5bc:	575f4354 			; <UNDEFINED> instruction: 0x575f4354
 5c0:	47464352 	smlsldmi	r4, r6, r2, r3
 5c4:	4c55465f 	mrrcmi	6, 5, r4, r5, cr15
 5c8:	45525f4c 	ldrbmi	r5, [r2, #-3916]	; 0xfffff0b4
 5cc:	00544553 	subseq	r4, r4, r3, asr r5
 5d0:	525f4d50 	subspl	r4, pc, #80, 26	; 0x1400
 5d4:	00435453 	subeq	r5, r3, r3, asr r4
 5d8:	72737063 	rsbsvc	r7, r3, #99	; 0x63
 5dc:	732f2e00 			; <UNDEFINED> instruction: 0x732f2e00
 5e0:	66666174 			; <UNDEFINED> instruction: 0x66666174
 5e4:	6372732d 	cmnvs	r2, #-1275068416	; 0xb4000000
 5e8:	6665642f 	strbtvs	r6, [r5], -pc, lsr #8
 5ec:	746c7561 	strbtvc	r7, [ip], #-1377	; 0xfffffa9f
 5f0:	6265722d 	rsbvs	r7, r5, #-805306366	; 0xd0000002
 5f4:	2d746f6f 	ldclcs	15, cr6, [r4, #-444]!	; 0xfffffe44
 5f8:	6c6c6163 	stfvse	f6, [ip], #-396	; 0xfffffe74
 5fc:	2e74756f 	cdpcs	5, 7, cr7, cr4, cr15, {3}
 600:	2f2e0063 	svccs	0x002e0063
 604:	66617473 			; <UNDEFINED> instruction: 0x66617473
 608:	72732d66 	rsbsvc	r2, r3, #6528	; 0x1980
 60c:	75632f63 	strbvc	r2, [r3, #-3939]!	; 0xfffff09d
 610:	6d6f7473 	cfstrdvs	mvd7, [pc, #-460]!	; 44c <__code_start__-0x7bb4>
 614:	616f6c2d 	cmnvs	pc, sp, lsr #24
 618:	2e726564 	cdpcs	5, 7, cr6, cr2, cr4, {3}
 61c:	65640063 	strbvs	r0, [r4, #-99]!	; 0xffffff9d
 620:	61625f76 	smcvs	9718	; 0x25f6
 624:	65697272 	strbvs	r7, [r9, #-626]!	; 0xfffffd8e
 628:	65640072 	strbvs	r0, [r4, #-114]!	; 0xffffff8e
 62c:	5f79616c 	svcpl	0x0079616c
 630:	00636573 	rsbeq	r6, r3, r3, ror r5
 634:	74732f2e 	ldrbtvc	r2, [r3], #-3886	; 0xfffff0d2
 638:	2d666661 	stclcs	6, cr6, [r6, #-388]!	; 0xfffffe7c
 63c:	2f637273 	svccs	0x00637273
 640:	656d6974 	strbvs	r6, [sp, #-2420]!	; 0xfffff68c
 644:	00632e72 	rsbeq	r2, r3, r2, ror lr
 648:	656d6974 	strbvs	r6, [sp, #-2420]!	; 0xfffff68c
 64c:	65675f72 	strbvs	r5, [r7, #-3954]!	; 0xfffff08e
 650:	73755f74 	cmnvc	r5, #116, 30	; 0x1d0
 654:	64006365 	strvs	r6, [r0], #-869	; 0xfffffc9b
 658:	79616c65 	stmdbvc	r1!, {r0, r2, r5, r6, sl, fp, sp, lr}^
 65c:	0073755f 	rsbseq	r7, r3, pc, asr r5
 660:	656d6974 	strbvs	r6, [sp, #-2420]!	; 0xfffff68c
 664:	65675f72 	strbvs	r5, [r7, #-3954]!	; 0xfffff08e
 668:	73755f74 	cmnvc	r5, #116, 30	; 0x1d0
 66c:	725f6365 	subsvc	r6, pc, #-1811939327	; 0x94000001
 670:	62007761 	andvs	r7, r0, #25427968	; 0x1840000
 674:	5f647561 	svcpl	0x00647561
 678:	006c6176 	rsbeq	r6, ip, r6, ror r1
 67c:	74617473 	strbtvc	r7, [r1], #-1139	; 0xfffffb8d
 680:	72617500 	rsbvc	r7, r1, #0, 10
 684:	61635f74 	smcvs	13812	; 0x35f4
 688:	65675f6e 	strbvs	r5, [r7, #-3950]!	; 0xfffff092
 68c:	75006374 	strvc	r6, [r0, #-884]	; 0xfffffc8c
 690:	2e747261 	cdpcs	2, 7, cr7, cr4, cr1, {3}
 694:	61750063 	cmnvs	r5, r3, rrx
 698:	635f7472 	cmpvs	pc, #1912602624	; 0x72000000
 69c:	705f6e61 	subsvc	r6, pc, r1, ror #28
 6a0:	00637475 	rsbeq	r7, r3, r5, ror r4
 6a4:	74726175 	ldrbtvc	r6, [r2], #-373	; 0xfffffe8b
 6a8:	64646100 	strbtvs	r6, [r4], #-256	; 0xffffff00
 6ac:	61750072 	cmnvs	r5, r2, ror r0
 6b0:	745f7472 	ldrbvc	r7, [pc], #-1138	; 6b8 <__code_start__-0x7948>
 6b4:	73695f78 	cmnvc	r9, #120, 30	; 0x1e0
 6b8:	706d655f 	rsbvc	r6, sp, pc, asr r5
 6bc:	70007974 	andvc	r7, r0, r4, ror r9
 6c0:	32337475 	eorscc	r7, r3, #1962934272	; 0x75000000
 6c4:	75616200 	strbvc	r6, [r1, #-512]!	; 0xfffffe00
 6c8:	75610064 	strbvc	r0, [r1, #-100]!	; 0xffffff9c
 6cc:	6e655f78 	mcrvs	15, 3, r5, cr5, cr8, {3}
 6d0:	656c6261 	strbvs	r6, [ip, #-609]!	; 0xfffffd9f
 6d4:	61750073 	cmnvs	r5, r3, ror r0
 6d8:	675f7472 			; <UNDEFINED> instruction: 0x675f7472
 6dc:	00637465 	rsbeq	r7, r3, r5, ror #8
 6e0:	6c746e63 	ldclvs	14, cr6, [r4], #-396	; 0xfffffe74
 6e4:	72617500 	rsbvc	r7, r1, #0, 10
 6e8:	69645f74 	stmdbvs	r4!, {r2, r4, r5, r6, r8, r9, sl, fp, ip, lr}^
 6ec:	6c626173 	stfvse	f6, [r2], #-460	; 0xfffffe34
 6f0:	61750065 	cmnvs	r5, r5, rrx
 6f4:	685f7472 	ldmdavs	pc, {r1, r4, r5, r6, sl, ip, sp, lr}^	; <UNPREDICTABLE>
 6f8:	645f7361 	ldrbvs	r7, [pc], #-865	; 700 <__code_start__-0x7900>
 6fc:	00617461 	rsbeq	r7, r1, r1, ror #8
 700:	695f726f 	ldmdbvs	pc, {r0, r1, r2, r3, r5, r6, r9, ip, sp, lr}^	; <UNPREDICTABLE>
 704:	0032336e 	eorseq	r3, r2, lr, ror #6
 708:	61726373 	cmnvs	r2, r3, ror r3
 70c:	00686374 	rsbeq	r6, r8, r4, ror r3
 710:	5f787561 	svcpl	0x00787561
 714:	69726570 	ldmdbvs	r2!, {r4, r5, r6, r8, sl, sp, lr}^
 718:	00736870 	rsbseq	r6, r3, r0, ror r8
 71c:	6d6f682f 	stclvs	8, cr6, [pc, #-188]!	; 668 <__code_start__-0x7998>
 720:	6e652f65 	cdpvs	15, 6, cr2, cr5, cr5, {3}
 724:	72656c67 	rsbvc	r6, r5, #26368	; 0x6700
 728:	616c632f 	cmnvs	ip, pc, lsr #6
 72c:	632f7373 			; <UNDEFINED> instruction: 0x632f7373
 730:	30343173 	eorscc	r3, r4, r3, ror r1
 734:	32322d65 	eorscc	r2, r2, #6464	; 0x1940
 738:	2f6e6977 	svccs	0x006e6977
 73c:	7062696c 	rsbvc	r6, r2, ip, ror #18
 740:	74732f69 	ldrbtvc	r2, [r3], #-3945	; 0xfffff097
 744:	2d666661 	stclcs	6, cr6, [r6, #-388]!	; 0xfffffe7c
 748:	76697270 			; <UNDEFINED> instruction: 0x76697270
 74c:	00657461 	rsbeq	r7, r5, r1, ror #8
 750:	5f646e61 	svcpl	0x00646e61
 754:	32336e69 	eorscc	r6, r3, #1680	; 0x690
 758:	74656700 	strbtvc	r6, [r5], #-1792	; 0xfffff900
 75c:	2e003233 	mcrcs	2, 0, r3, cr0, cr3, {1}
 760:	62696c2f 	rsbvs	r6, r9, #12032	; 0x2f00
 764:	74732f63 	ldrbtvc	r2, [r3], #-3939	; 0xfffff09d
 768:	79706372 	ldmdbvc	r0!, {r1, r4, r5, r6, r8, r9, sp, lr}^
 76c:	6400632e 	strvs	r6, [r0], #-814	; 0xfffffcd2
 770:	00747365 	rsbseq	r7, r4, r5, ror #6
 774:	696c2f2e 	stmdbvs	ip!, {r1, r2, r3, r5, r8, r9, sl, fp, sp}^
 778:	732f6362 			; <UNDEFINED> instruction: 0x732f6362
 77c:	61637274 	smcvs	14116	; 0x3724
 780:	00632e74 	rsbeq	r2, r3, r4, ror lr
 784:	696c2f2e 	stmdbvs	ip!, {r1, r2, r3, r5, r8, r9, sl, fp, sp}^
 788:	732f6362 			; <UNDEFINED> instruction: 0x732f6362
 78c:	6d637274 	sfmvs	f7, 2, [r3, #-464]!	; 0xfffffe30
 790:	00632e70 	rsbeq	r2, r3, r0, ror lr
 794:	657a6973 	ldrbvs	r6, [sl, #-2419]!	; 0xfffff68d
 798:	2e00745f 	cfmvsrcs	mvf0, r7
 79c:	62696c2f 	rsbvs	r6, r9, #12032	; 0x2f00
 7a0:	74732f63 	ldrbtvc	r2, [r3], #-3939	; 0xfffff09d
 7a4:	6d636e72 	stclvs	14, cr6, [r3, #-456]!	; 0xfffffe38
 7a8:	00632e70 	rsbeq	r2, r3, r0, ror lr

Disassembly of section .debug_frame:

00000000 <.debug_frame>:
   0:	0000000c 	andeq	r0, r0, ip
   4:	ffffffff 			; <UNDEFINED> instruction: 0xffffffff
   8:	7c020001 	stcvc	0, cr0, [r2], {1}
   c:	000d0c0e 	andeq	r0, sp, lr, lsl #24
  10:	00000018 	andeq	r0, r0, r8, lsl r0
  14:	00000000 	andeq	r0, r0, r0
  18:	00008038 	andeq	r8, r0, r8, lsr r0
  1c:	000000e4 	andeq	r0, r0, r4, ror #1
  20:	84100e42 	ldrhi	r0, [r0], #-3650	; 0xfffff1be
  24:	86038504 	strhi	r8, [r3], -r4, lsl #10
  28:	00018e02 	andeq	r8, r1, r2, lsl #28
  2c:	00000020 	andeq	r0, r0, r0, lsr #32
  30:	00000000 	andeq	r0, r0, r0
  34:	0000811c 	andeq	r8, r0, ip, lsl r1
  38:	000000d4 	ldrdeq	r0, [r0], -r4
  3c:	84180e42 	ldrhi	r0, [r8], #-3650	; 0xfffff1be
  40:	86058506 	strhi	r8, [r5], -r6, lsl #10
  44:	88038704 	stmdahi	r3, {r2, r8, r9, sl, pc}
  48:	42018e02 	andmi	r8, r1, #2, 28
  4c:	0002a80e 	andeq	sl, r2, lr, lsl #16
  50:	0000000c 	andeq	r0, r0, ip
  54:	ffffffff 			; <UNDEFINED> instruction: 0xffffffff
  58:	7c020001 	stcvc	0, cr0, [r2], {1}
  5c:	000d0c0e 	andeq	r0, sp, lr, lsl #24
  60:	00000018 	andeq	r0, r0, r8, lsl r0
  64:	00000050 	andeq	r0, r0, r0, asr r0
  68:	00008238 	andeq	r8, r0, r8, lsr r2
  6c:	00000064 	andeq	r0, r0, r4, rrx
  70:	84100e46 	ldrhi	r0, [r0], #-3654	; 0xfffff1ba
  74:	86038504 	strhi	r8, [r3], -r4, lsl #10
  78:	00018e02 	andeq	r8, r1, r2, lsl #28
  7c:	00000014 	andeq	r0, r0, r4, lsl r0
  80:	00000050 	andeq	r0, r0, r0, asr r0
  84:	0000829c 	muleq	r0, ip, r2
  88:	00000010 	andeq	r0, r0, r0, lsl r0
  8c:	84080e42 	strhi	r0, [r8], #-3650	; 0xfffff1be
  90:	00018e02 	andeq	r8, r1, r2, lsl #28
  94:	00000014 	andeq	r0, r0, r4, lsl r0
  98:	00000050 	andeq	r0, r0, r0, asr r0
  9c:	000082ac 	andeq	r8, r0, ip, lsr #5
  a0:	00000024 	andeq	r0, r0, r4, lsr #32
  a4:	84080e46 	strhi	r0, [r8], #-3654	; 0xfffff1ba
  a8:	00018e02 	andeq	r8, r1, r2, lsl #28
  ac:	00000014 	andeq	r0, r0, r4, lsl r0
  b0:	00000050 	andeq	r0, r0, r0, asr r0
  b4:	000082d0 	ldrdeq	r8, [r0], -r0
  b8:	00000024 	andeq	r0, r0, r4, lsr #32
  bc:	84080e46 	strhi	r0, [r8], #-3654	; 0xfffff1ba
  c0:	00018e02 	andeq	r8, r1, r2, lsl #28
  c4:	00000014 	andeq	r0, r0, r4, lsl r0
  c8:	00000050 	andeq	r0, r0, r0, asr r0
  cc:	000082f4 	strdeq	r8, [r0], -r4
  d0:	00000010 	andeq	r0, r0, r0, lsl r0
  d4:	84080e42 	strhi	r0, [r8], #-3650	; 0xfffff1be
  d8:	00018e02 	andeq	r8, r1, r2, lsl #28
  dc:	00000014 	andeq	r0, r0, r4, lsl r0
  e0:	00000050 	andeq	r0, r0, r0, asr r0
  e4:	00008304 	andeq	r8, r0, r4, lsl #6
  e8:	0000001c 	andeq	r0, r0, ip, lsl r0
  ec:	84080e42 	strhi	r0, [r8], #-3650	; 0xfffff1be
  f0:	00018e02 	andeq	r8, r1, r2, lsl #28
  f4:	00000018 	andeq	r0, r0, r8, lsl r0
  f8:	00000050 	andeq	r0, r0, r0, asr r0
  fc:	00008320 	andeq	r8, r0, r0, lsr #6
 100:	00000034 	andeq	r0, r0, r4, lsr r0
 104:	84080e46 	strhi	r0, [r8], #-3654	; 0xfffff1ba
 108:	4e018e02 	cdpmi	14, 0, cr8, cr1, cr2, {0}
 10c:	cec4000e 	cdpgt	0, 12, cr0, cr4, cr14, {0}
 110:	0000000c 	andeq	r0, r0, ip
 114:	ffffffff 			; <UNDEFINED> instruction: 0xffffffff
 118:	7c020001 	stcvc	0, cr0, [r2], {1}
 11c:	000d0c0e 	andeq	r0, sp, lr, lsl #24
 120:	00000034 	andeq	r0, r0, r4, lsr r0
 124:	00000110 	andeq	r0, r0, r0, lsl r1
 128:	00008354 	andeq	r8, r0, r4, asr r3
 12c:	00000058 	andeq	r0, r0, r8, asr r0
 130:	80100e42 	andshi	r0, r0, r2, asr #28
 134:	82038104 	andhi	r8, r3, #4, 2
 138:	42018302 	andmi	r8, r1, #134217728	; 0x8000000
 13c:	07841c0e 	streq	r1, [r4, lr, lsl #24]
 140:	058e0685 	streq	r0, [lr, #1669]	; 0x685
 144:	5c280e42 	stcpl	14, cr0, [r8], #-264	; 0xfffffef8
 148:	ce421c0e 	cdpgt	12, 4, cr1, cr2, cr14, {0}
 14c:	100ec4c5 	andne	ip, lr, r5, asr #9
 150:	c1c2c342 	bicgt	ip, r2, r2, asr #6
 154:	00000ec0 	andeq	r0, r0, r0, asr #29
 158:	0000000c 	andeq	r0, r0, ip
 15c:	ffffffff 			; <UNDEFINED> instruction: 0xffffffff
 160:	7c020001 	stcvc	0, cr0, [r2], {1}
 164:	000d0c0e 	andeq	r0, sp, lr, lsl #24
 168:	00000014 	andeq	r0, r0, r4, lsl r0
 16c:	00000158 	andeq	r0, r0, r8, asr r1
 170:	000083ac 	andeq	r8, r0, ip, lsr #7
 174:	00000034 	andeq	r0, r0, r4, lsr r0
 178:	84080e42 	strhi	r0, [r8], #-3650	; 0xfffff1be
 17c:	00018e02 	andeq	r8, r1, r2, lsl #28
 180:	0000000c 	andeq	r0, r0, ip
 184:	ffffffff 			; <UNDEFINED> instruction: 0xffffffff
 188:	7c020001 	stcvc	0, cr0, [r2], {1}
 18c:	000d0c0e 	andeq	r0, sp, lr, lsl #24
 190:	00000014 	andeq	r0, r0, r4, lsl r0
 194:	00000180 	andeq	r0, r0, r0, lsl #3
 198:	000083e0 	andeq	r8, r0, r0, ror #7
 19c:	00000014 	andeq	r0, r0, r4, lsl r0
 1a0:	84080e42 	strhi	r0, [r8], #-3650	; 0xfffff1be
 1a4:	00018e02 	andeq	r8, r1, r2, lsl #28
 1a8:	0000000c 	andeq	r0, r0, ip
 1ac:	00000180 	andeq	r0, r0, r0, lsl #3
 1b0:	000083f4 	strdeq	r8, [r0], -r4
 1b4:	00000018 	andeq	r0, r0, r8, lsl r0
 1b8:	0000000c 	andeq	r0, r0, ip
 1bc:	00000180 	andeq	r0, r0, r0, lsl #3
 1c0:	0000840c 	andeq	r8, r0, ip, lsl #8
 1c4:	00000010 	andeq	r0, r0, r0, lsl r0
 1c8:	0000000c 	andeq	r0, r0, ip
 1cc:	ffffffff 			; <UNDEFINED> instruction: 0xffffffff
 1d0:	7c020001 	stcvc	0, cr0, [r2], {1}
 1d4:	000d0c0e 	andeq	r0, sp, lr, lsl #24
 1d8:	0000000c 	andeq	r0, r0, ip
 1dc:	000001c8 	andeq	r0, r0, r8, asr #3
 1e0:	0000841c 	andeq	r8, r0, ip, lsl r4
 1e4:	00000014 	andeq	r0, r0, r4, lsl r0
 1e8:	0000000c 	andeq	r0, r0, ip
 1ec:	000001c8 	andeq	r0, r0, r8, asr #3
 1f0:	00008430 	andeq	r8, r0, r0, lsr r4
 1f4:	00000028 	andeq	r0, r0, r8, lsr #32
 1f8:	0000000c 	andeq	r0, r0, ip
 1fc:	000001c8 	andeq	r0, r0, r8, asr #3
 200:	00008458 	andeq	r8, r0, r8, asr r4
 204:	0000003c 	andeq	r0, r0, ip, lsr r0
 208:	00000024 	andeq	r0, r0, r4, lsr #32
 20c:	000001c8 	andeq	r0, r0, r8, asr #3
 210:	00008494 	muleq	r0, r4, r4
 214:	000001b4 			; <UNDEFINED> instruction: 0x000001b4
 218:	84140e42 	ldrhi	r0, [r4], #-3650	; 0xfffff1be
 21c:	86048505 	strhi	r8, [r4], -r5, lsl #10
 220:	8e028703 	cdphi	7, 0, cr8, cr2, cr3, {0}
 224:	600e4201 	andvs	r4, lr, r1, lsl #4
 228:	0e0a9a02 	vmlaeq.f32	s18, s20, s4
 22c:	000b4214 	andeq	r4, fp, r4, lsl r2
 230:	00000014 	andeq	r0, r0, r4, lsl r0
 234:	000001c8 	andeq	r0, r0, r8, asr #3
 238:	00008648 	andeq	r8, r0, r8, asr #12
 23c:	00000064 	andeq	r0, r0, r4, rrx
 240:	8e040e54 	mcrhi	14, 0, r0, cr4, cr4, {2}
 244:	100e4201 	andne	r4, lr, r1, lsl #4
 248:	0000002c 	andeq	r0, r0, ip, lsr #32
 24c:	000001c8 	andeq	r0, r0, r8, asr #3
 250:	000086ac 	andeq	r8, r0, ip, lsr #13
 254:	000004b8 			; <UNDEFINED> instruction: 0x000004b8
 258:	84240e42 	strthi	r0, [r4], #-3650	; 0xfffff1be
 25c:	86088509 	strhi	r8, [r8], -r9, lsl #10
 260:	88068707 	stmdahi	r6, {r0, r1, r2, r8, r9, sl, pc}
 264:	8a048905 	bhi	122680 <__bss_end__+0x1190e8>
 268:	8e028b03 	vmlahi.f64	d8, d2, d3
 26c:	b80e4201 	stmdalt	lr, {r0, r9, lr}
 270:	02380302 	eorseq	r0, r8, #134217728	; 0x8000000
 274:	0000240e 	andeq	r2, r0, lr, lsl #8
 278:	0000000c 	andeq	r0, r0, ip
 27c:	ffffffff 			; <UNDEFINED> instruction: 0xffffffff
 280:	7c020001 	stcvc	0, cr0, [r2], {1}
 284:	000d0c0e 	andeq	r0, sp, lr, lsl #24
 288:	00000014 	andeq	r0, r0, r4, lsl r0
 28c:	00000278 	andeq	r0, r0, r8, ror r2
 290:	00008b64 	andeq	r8, r0, r4, ror #22
 294:	0000002c 	andeq	r0, r0, ip, lsr #32
 298:	84080e42 	strhi	r0, [r8], #-3650	; 0xfffff1be
 29c:	00018e02 	andeq	r8, r1, r2, lsl #28
 2a0:	0000000c 	andeq	r0, r0, ip
 2a4:	ffffffff 			; <UNDEFINED> instruction: 0xffffffff
 2a8:	7c020001 	stcvc	0, cr0, [r2], {1}
 2ac:	000d0c0e 	andeq	r0, sp, lr, lsl #24
 2b0:	00000014 	andeq	r0, r0, r4, lsl r0
 2b4:	000002a0 	andeq	r0, r0, r0, lsr #5
 2b8:	00008b90 	muleq	r0, r0, fp
 2bc:	00000040 	andeq	r0, r0, r0, asr #32
 2c0:	84080e42 	strhi	r0, [r8], #-3650	; 0xfffff1be
 2c4:	00018e02 	andeq	r8, r1, r2, lsl #28
 2c8:	0000000c 	andeq	r0, r0, ip
 2cc:	ffffffff 			; <UNDEFINED> instruction: 0xffffffff
 2d0:	7c020001 	stcvc	0, cr0, [r2], {1}
 2d4:	000d0c0e 	andeq	r0, sp, lr, lsl #24
 2d8:	0000000c 	andeq	r0, r0, ip
 2dc:	000002c8 	andeq	r0, r0, r8, asr #5
 2e0:	00008bd0 	ldrdeq	r8, [r0], -r0
 2e4:	00000010 	andeq	r0, r0, r0, lsl r0
 2e8:	0000000c 	andeq	r0, r0, ip
 2ec:	000002c8 	andeq	r0, r0, r8, asr #5
 2f0:	00008be0 	andeq	r8, r0, r0, ror #23
 2f4:	00000010 	andeq	r0, r0, r0, lsl r0
 2f8:	0000000c 	andeq	r0, r0, ip
 2fc:	ffffffff 			; <UNDEFINED> instruction: 0xffffffff
 300:	7c020001 	stcvc	0, cr0, [r2], {1}
 304:	000d0c0e 	andeq	r0, sp, lr, lsl #24
 308:	0000000c 	andeq	r0, r0, ip
 30c:	000002f8 	strdeq	r0, [r0], -r8
 310:	00008bf0 	strdeq	r8, [r0], -r0
 314:	00000018 	andeq	r0, r0, r8, lsl r0
 318:	0000000c 	andeq	r0, r0, ip
 31c:	000002f8 	strdeq	r0, [r0], -r8
 320:	00008c08 	andeq	r8, r0, r8, lsl #24
 324:	00000014 	andeq	r0, r0, r4, lsl r0
 328:	00000014 	andeq	r0, r0, r4, lsl r0
 32c:	000002f8 	strdeq	r0, [r0], -r8
 330:	00008c1c 	andeq	r8, r0, ip, lsl ip
 334:	00000054 	andeq	r0, r0, r4, asr r0
 338:	84080e42 	strhi	r0, [r8], #-3650	; 0xfffff1be
 33c:	00018e02 	andeq	r8, r1, r2, lsl #28
 340:	0000000c 	andeq	r0, r0, ip
 344:	ffffffff 			; <UNDEFINED> instruction: 0xffffffff
 348:	7c020001 	stcvc	0, cr0, [r2], {1}
 34c:	000d0c0e 	andeq	r0, sp, lr, lsl #24
 350:	0000000c 	andeq	r0, r0, ip
 354:	00000340 	andeq	r0, r0, r0, asr #6
 358:	00008c70 	andeq	r8, r0, r0, ror ip
 35c:	00000004 	andeq	r0, r0, r4
 360:	0000000c 	andeq	r0, r0, ip
 364:	ffffffff 			; <UNDEFINED> instruction: 0xffffffff
 368:	7c020001 	stcvc	0, cr0, [r2], {1}
 36c:	000d0c0e 	andeq	r0, sp, lr, lsl #24
 370:	0000000c 	andeq	r0, r0, ip
 374:	00000360 	andeq	r0, r0, r0, ror #6
 378:	00008c74 	andeq	r8, r0, r4, ror ip
 37c:	00000004 	andeq	r0, r0, r4
 380:	0000000c 	andeq	r0, r0, ip
 384:	ffffffff 			; <UNDEFINED> instruction: 0xffffffff
 388:	7c020001 	stcvc	0, cr0, [r2], {1}
 38c:	000d0c0e 	andeq	r0, sp, lr, lsl #24
 390:	00000014 	andeq	r0, r0, r4, lsl r0
 394:	00000380 	andeq	r0, r0, r0, lsl #7
 398:	00008c78 	andeq	r8, r0, r8, ror ip
 39c:	00000014 	andeq	r0, r0, r4, lsl r0
 3a0:	84080e42 	strhi	r0, [r8], #-3650	; 0xfffff1be
 3a4:	00018e02 	andeq	r8, r1, r2, lsl #28
 3a8:	00000014 	andeq	r0, r0, r4, lsl r0
 3ac:	00000380 	andeq	r0, r0, r0, lsl #7
 3b0:	00008c8c 	andeq	r8, r0, ip, lsl #25
 3b4:	0000001c 	andeq	r0, r0, ip, lsl r0
 3b8:	84080e42 	strhi	r0, [r8], #-3650	; 0xfffff1be
 3bc:	00018e02 	andeq	r8, r1, r2, lsl #28
 3c0:	00000018 	andeq	r0, r0, r8, lsl r0
 3c4:	00000380 	andeq	r0, r0, r0, lsl #7
 3c8:	00008ca8 	andeq	r8, r0, r8, lsr #25
 3cc:	00000024 	andeq	r0, r0, r4, lsr #32
 3d0:	84100e42 	ldrhi	r0, [r0], #-3650	; 0xfffff1be
 3d4:	86038504 	strhi	r8, [r3], -r4, lsl #10
 3d8:	00018e02 	andeq	r8, r1, r2, lsl #28
 3dc:	00000014 	andeq	r0, r0, r4, lsl r0
 3e0:	00000380 	andeq	r0, r0, r0, lsl #7
 3e4:	00008ccc 	andeq	r8, r0, ip, asr #25
 3e8:	00000018 	andeq	r0, r0, r8, lsl r0
 3ec:	84080e42 	strhi	r0, [r8], #-3650	; 0xfffff1be
 3f0:	00018e02 	andeq	r8, r1, r2, lsl #28
 3f4:	00000014 	andeq	r0, r0, r4, lsl r0
 3f8:	00000380 	andeq	r0, r0, r0, lsl #7
 3fc:	00008ce4 	andeq	r8, r0, r4, ror #25
 400:	00000018 	andeq	r0, r0, r8, lsl r0
 404:	84080e42 	strhi	r0, [r8], #-3650	; 0xfffff1be
 408:	00018e02 	andeq	r8, r1, r2, lsl #28
 40c:	0000000c 	andeq	r0, r0, ip
 410:	ffffffff 			; <UNDEFINED> instruction: 0xffffffff
 414:	7c020001 	stcvc	0, cr0, [r2], {1}
 418:	000d0c0e 	andeq	r0, sp, lr, lsl #24
 41c:	00000018 	andeq	r0, r0, r8, lsl r0
 420:	0000040c 	andeq	r0, r0, ip, lsl #8
 424:	00008cfc 	strdeq	r8, [r0], -ip
 428:	00000020 	andeq	r0, r0, r0, lsr #32
 42c:	84100e42 	ldrhi	r0, [r0], #-3650	; 0xfffff1be
 430:	86038504 	strhi	r8, [r3], -r4, lsl #10
 434:	00018e02 	andeq	r8, r1, r2, lsl #28
 438:	00000018 	andeq	r0, r0, r8, lsl r0
 43c:	0000040c 	andeq	r0, r0, ip, lsl #8
 440:	00008d1c 	andeq	r8, r0, ip, lsl sp
 444:	00000020 	andeq	r0, r0, r0, lsr #32
 448:	84100e42 	ldrhi	r0, [r0], #-3650	; 0xfffff1be
 44c:	86038504 	strhi	r8, [r3], -r4, lsl #10
 450:	00018e02 	andeq	r8, r1, r2, lsl #28
 454:	00000014 	andeq	r0, r0, r4, lsl r0
 458:	0000040c 	andeq	r0, r0, ip, lsl #8
 45c:	00008d3c 	andeq	r8, r0, ip, lsr sp
 460:	000000b0 	strheq	r0, [r0], -r0	; <UNPREDICTABLE>
 464:	84080e42 	strhi	r0, [r8], #-3650	; 0xfffff1be
 468:	00018e02 	andeq	r8, r1, r2, lsl #28
 46c:	00000014 	andeq	r0, r0, r4, lsl r0
 470:	0000040c 	andeq	r0, r0, ip, lsl #8
 474:	00008dec 	andeq	r8, r0, ip, ror #27
 478:	00000018 	andeq	r0, r0, r8, lsl r0
 47c:	84080e42 	strhi	r0, [r8], #-3650	; 0xfffff1be
 480:	00018e02 	andeq	r8, r1, r2, lsl #28
 484:	00000014 	andeq	r0, r0, r4, lsl r0
 488:	0000040c 	andeq	r0, r0, ip, lsl #8
 48c:	00008e04 	andeq	r8, r0, r4, lsl #28
 490:	00000020 	andeq	r0, r0, r0, lsr #32
 494:	84080e42 	strhi	r0, [r8], #-3650	; 0xfffff1be
 498:	00018e02 	andeq	r8, r1, r2, lsl #28
 49c:	00000014 	andeq	r0, r0, r4, lsl r0
 4a0:	0000040c 	andeq	r0, r0, ip, lsl #8
 4a4:	00008e24 	andeq	r8, r0, r4, lsr #28
 4a8:	00000030 	andeq	r0, r0, r0, lsr r0
 4ac:	84080e42 	strhi	r0, [r8], #-3650	; 0xfffff1be
 4b0:	00018e02 	andeq	r8, r1, r2, lsl #28
 4b4:	00000014 	andeq	r0, r0, r4, lsl r0
 4b8:	0000040c 	andeq	r0, r0, ip, lsl #8
 4bc:	00008e54 	andeq	r8, r0, r4, asr lr
 4c0:	00000030 	andeq	r0, r0, r0, lsr r0
 4c4:	84080e42 	strhi	r0, [r8], #-3650	; 0xfffff1be
 4c8:	00018e02 	andeq	r8, r1, r2, lsl #28
 4cc:	00000014 	andeq	r0, r0, r4, lsl r0
 4d0:	0000040c 	andeq	r0, r0, ip, lsl #8
 4d4:	00008e84 	andeq	r8, r0, r4, lsl #29
 4d8:	00000010 	andeq	r0, r0, r0, lsl r0
 4dc:	84080e42 	strhi	r0, [r8], #-3650	; 0xfffff1be
 4e0:	00018e02 	andeq	r8, r1, r2, lsl #28
 4e4:	00000014 	andeq	r0, r0, r4, lsl r0
 4e8:	0000040c 	andeq	r0, r0, ip, lsl #8
 4ec:	00008e94 	muleq	r0, r4, lr
 4f0:	00000020 	andeq	r0, r0, r0, lsr #32
 4f4:	84080e42 	strhi	r0, [r8], #-3650	; 0xfffff1be
 4f8:	00018e02 	andeq	r8, r1, r2, lsl #28
 4fc:	00000014 	andeq	r0, r0, r4, lsl r0
 500:	0000040c 	andeq	r0, r0, ip, lsl #8
 504:	00008eb4 			; <UNDEFINED> instruction: 0x00008eb4
 508:	00000014 	andeq	r0, r0, r4, lsl r0
 50c:	84080e42 	strhi	r0, [r8], #-3650	; 0xfffff1be
 510:	00018e02 	andeq	r8, r1, r2, lsl #28
 514:	00000014 	andeq	r0, r0, r4, lsl r0
 518:	0000040c 	andeq	r0, r0, ip, lsl #8
 51c:	00008ec8 	andeq	r8, r0, r8, asr #29
 520:	00000024 	andeq	r0, r0, r4, lsr #32
 524:	84080e42 	strhi	r0, [r8], #-3650	; 0xfffff1be
 528:	00018e02 	andeq	r8, r1, r2, lsl #28
 52c:	0000000c 	andeq	r0, r0, ip
 530:	ffffffff 			; <UNDEFINED> instruction: 0xffffffff
 534:	7c020001 	stcvc	0, cr0, [r2], {1}
 538:	000d0c0e 	andeq	r0, sp, lr, lsl #24
 53c:	0000000c 	andeq	r0, r0, ip
 540:	0000052c 	andeq	r0, r0, ip, lsr #10
 544:	00008eec 	andeq	r8, r0, ip, ror #29
 548:	00000020 	andeq	r0, r0, r0, lsr #32
 54c:	0000000c 	andeq	r0, r0, ip
 550:	ffffffff 			; <UNDEFINED> instruction: 0xffffffff
 554:	7c020001 	stcvc	0, cr0, [r2], {1}
 558:	000d0c0e 	andeq	r0, sp, lr, lsl #24
 55c:	0000000c 	andeq	r0, r0, ip
 560:	0000054c 	andeq	r0, r0, ip, asr #10
 564:	00008f0c 	andeq	r8, r0, ip, lsl #30
 568:	00000034 	andeq	r0, r0, r4, lsr r0
 56c:	0000000c 	andeq	r0, r0, ip
 570:	ffffffff 			; <UNDEFINED> instruction: 0xffffffff
 574:	7c020001 	stcvc	0, cr0, [r2], {1}
 578:	000d0c0e 	andeq	r0, sp, lr, lsl #24
 57c:	0000000c 	andeq	r0, r0, ip
 580:	0000056c 	andeq	r0, r0, ip, ror #10
 584:	00008f40 	andeq	r8, r0, r0, asr #30
 588:	00000030 	andeq	r0, r0, r0, lsr r0
 58c:	0000000c 	andeq	r0, r0, ip
 590:	ffffffff 			; <UNDEFINED> instruction: 0xffffffff
 594:	7c020001 	stcvc	0, cr0, [r2], {1}
 598:	000d0c0e 	andeq	r0, sp, lr, lsl #24
 59c:	0000000c 	andeq	r0, r0, ip
 5a0:	0000058c 	andeq	r0, r0, ip, lsl #11
 5a4:	00008f70 	andeq	r8, r0, r0, ror pc
 5a8:	0000002c 	andeq	r0, r0, ip, lsr #32
